(dp1
S'output'
p2
S"<type 'exceptions.TypeError'> datetime.datetime(2017, 1, 26, 20, 47, 41) is not JSON serializable"
p3
sS'layer'
p4
S'C:\\Users\\Wesly\\Desktop\\UCSC-Hack-2017\\applications\\ourhours\\controllers/default.py'
p5
sS'code'
p6
S"from gluon.tools import Mail\nimport imaplib\nimport email\nfrom email.header import decode_header\n\nimport random\nimport string\ndef index():\n    groups = db(db.groups).select(db.groups.ALL)\n    return locals()\n\n# @auth.requires_login()\ndef create():\n    form = SQLFORM(db.groups, deletable=True).process()\n    if form.accepted:\n        \n        redirect(URL('index'))\n    return locals()\n\ndef join():\n    groups = db(db.groups).select(db.groups.group_code)\n    form = SQLFORM(db.join_group, deletable=True).process()\n    if form.accepted:\n        for groups in groups:\n            # response.flash = groups.group_code\n            if request.vars.join_code in groups.group_code:\n                response.flash = 'Welcome to the group!'\n                redirect(URL('index'))\n    return locals()\n\n# @auth.requires_login()\ndef ecreate():\n    form = SQLFORM(db.event, deletable=True).process()\n    if form.accepted:\n        redirect(URL('index'))\n    return locals()\nimport json\nfrom datetime import datetime\nfrom json import dumps\n# @auth.requires_login()\ndef event_page():\n    #currently faulty, returns all events\n    g = db.groups(request.args(0,cast=int)) or redirect(URL('index'))\n    db.event.event_id.default = g.id\n    db.event.event_code.default = g.group_code\n    # event = db(db.event.event_id == g.id).select()\n    event = db(db.event).select(db.event.ALL)\n    json_data = json.dumps([[e.event_allDay, e.event_name, e.event_id, e.start, e.end, e.event_description] for e in event])\n    response.flash = json_data\n\n    return locals()\n\ndef user():\n    return dict(form=auth())\n\ndef download():\n    return response.download(request, db)\n\ndef picture():\n    return response.view(request, db)\n\ndef getdata():\n    rows = db().select(db.realtimedata.id, db.realtimedata.FlowRate,\n                       limitby=(0, 3), orderby=~db.realtimedata.id)\n    return json.dumps([[r.id, r.FlowRate] for r in rows])\nresponse._vars=response._caller(event_page)\n"
p7
sS'snapshot'
p8
(dp9
S'exception'
p10
(dp11
S'__hash__'
p12
S"<method-wrapper '__hash__' of exceptions.TypeError object>"
p13
sS'__setattr__'
p14
S"<method-wrapper '__setattr__' of exceptions.TypeError object>"
p15
sS'__reduce_ex__'
p16
S'<built-in method __reduce_ex__ of exceptions.TypeError object>'
p17
sS'__getslice__'
p18
S"<method-wrapper '__getslice__' of exceptions.TypeError object>"
p19
sS'__getitem__'
p20
S"<method-wrapper '__getitem__' of exceptions.TypeError object>"
p21
sS'__setstate__'
p22
S'<built-in method __setstate__ of exceptions.TypeError object>'
p23
sS'__reduce__'
p24
S'<built-in method __reduce__ of exceptions.TypeError object>'
p25
sS'__str__'
p26
S"<method-wrapper '__str__' of exceptions.TypeError object>"
p27
sS'__format__'
p28
S'<built-in method __format__ of exceptions.TypeError object>'
p29
sS'__getattribute__'
p30
S"<method-wrapper '__getattribute__' of exceptions.TypeError object>"
p31
sS'__class__'
p32
S"<type 'exceptions.TypeError'>"
p33
sS'__unicode__'
p34
S'<built-in method __unicode__ of exceptions.TypeError object>'
p35
sS'__delattr__'
p36
S"<method-wrapper '__delattr__' of exceptions.TypeError object>"
p37
sS'__subclasshook__'
p38
S'<built-in method __subclasshook__ of type object>'
p39
sS'__repr__'
p40
S"<method-wrapper '__repr__' of exceptions.TypeError object>"
p41
sS'args'
p42
S"('datetime.datetime(2017, 1, 26, 20, 47, 41) is not JSON serializable',)"
p43
sS'__dict__'
p44
S'{}'
p45
sS'__sizeof__'
p46
S'<built-in method __sizeof__ of exceptions.TypeError object>'
p47
sS'__doc__'
p48
S"'Inappropriate argument type.'"
p49
sS'__init__'
p50
S"<method-wrapper '__init__' of exceptions.TypeError object>"
p51
sS'__new__'
p52
S'<built-in method __new__ of type object>'
p53
ssS'evalue'
p54
S'datetime.datetime(2017, 1, 26, 20, 47, 41) is not JSON serializable'
p55
sS'request'
p56
cgluon.html
XML_unpickle
p57
(S's)\x97\x00\x00<div><table><tr><td style="font-weight:bold;vertical-align:top;">ajax</td><td style="vertical-align:top;">:</td><td><div>False</div></td></tr><tr><td style="font-weight:bold;vertical-align:top;">application</td><td style="vertical-align:top;">:</td><td><div>ourhours</div></td></tr><tr><td style="font-weight:bold;vertical-align:top;">args</td><td style="vertical-align:top;">:</td><td><div><table><tr><td><div>21</div></td></tr></table></div></td></tr><tr><td style="font-weight:bold;vertical-align:top;">cid</td><td style="vertical-align:top;">:</td><td><div>None</div></td></tr><tr><td style="font-weight:bold;vertical-align:top;">client</td><td style="vertical-align:top;">:</td><td><div>127.0.0.1</div></td></tr><tr><td style="font-weight:bold;vertical-align:top;">controller</td><td style="vertical-align:top;">:</td><td><div>default</div></td></tr><tr><td style="font-weight:bold;vertical-align:top;">cookies</td><td style="vertical-align:top;">:</td><td><div><table><tr><td style="font-weight:bold;vertical-align:top;">resolution</td><td style="vertical-align:top;">:</td><td><div>1349<table><tr><td style="font-weight:bold;vertical-align:top;">comment</td><td style="vertical-align:top;">:</td><td><div></div></td></tr><tr><td style="font-weight:bold;vertical-align:top;">domain</td><td style="vertical-align:top;">:</td><td><div></div></td></tr><tr><td style="font-weight:bold;vertical-align:top;">expires</td><td style="vertical-align:top;">:</td><td><div></div></td></tr><tr><td style="font-weight:bold;vertical-align:top;">httponly</td><td style="vertical-align:top;">:</td><td><div></div></td></tr><tr><td style="font-weight:bold;vertical-align:top;">max-age</td><td style="vertical-align:top;">:</td><td><div></div></td></tr><tr><td style="font-weight:bold;vertical-align:top;">path</td><td style="vertical-align:top;">:</td><td><div></div></td></tr><tr><td style="font-weight:bold;vertical-align:top;">secure</td><td style="vertical-align:top;">:</td><td><div></div></td></tr><tr><td style="font-weight:bold;vertical-align:top;">version</td><td style="vertical-align:top;">:</td><td><div></div></td></tr></table></div></td></tr><tr><td style="font-weight:bold;vertical-align:top;">session_data_ourhours</td><td style="vertical-align:top;">:</td><td><div>b2d71c9a9065d532946549e93b8b85e1:qNniJ-5tKprx28-LYgyB1Pcx_PV695UI0Dp-txnQ9Frx5_tEuorX4hrEQefMmxQJSyGBca4ZD4aOk7pFl48xB6ryIPTd4p1wMGiAbKYQ8UyfaWaUhspT9jZEnhWKBZOY1JCU_mShEDrc1ZVXL4nLj21c8UQXky9igDD2LJKo4JX1vPREQw41enjtJ5sT4l_P1S5_AOKzkNNS4A38Gv-wc16hSHovrlGEm5hUIhhsxiTRulavoW5coowrAbtLDgfr8Yj6PVbLbfnqO7GhsPeoHWmN8Pfg4FsqdePEJq9dYKezcsXRAdshE65Sc4eTs25bjeCbevdV2XrNbiMOo2XcsUWMnjynRTr2eqcBI3u8Zft17GNDoLjPB54tr2MuncTwTdyNYSc-MU-VJ7g26BoQ4IzmJOPa3gWf9ZLzdOFZRTaVOaOAEh_y3hLIrif0pCdpKT6bSzeguurYNjdBPG2dG9i1nEHMOwUl6mw1tXXsuveBNiiEuD5IipSKTJT8wabzVdfZqgrL1PnibQXyUWHmhAJhTgT88Ma5OL4r-RqF4piSHEMm6j38bOcjQomnTwNyBbLc0nOSQZPpJDdaxdp5XihB0kEcZzCjuJdQ7-x9i-xZ_gPI14eRTGZ21ZcG7XFWoEXseZ6c6RPYtjkEU63B7x2DL9mTgDp09fJMkGlH9ZG1FrJONMU990ZeyiJCQrafavxZilzHaVJdqcZKMm5MfNOM1sDrb4llrtAAdFG2DI0sWHUQZkmv5JA5AjIjs3z-k4JpGdoNgHdUZpJHVz0hRo1eEV66uNptKEMv-AOPMatcQuFJ9gq4eby4ycvf67bz-MNZrYbP1Q2ES1VqlRyycOqmuVtSf1Ge7AvKalNA8AovPVTWDQDzPx-ZbuIPZ2DGhamR8PqxhnRGNwOfHrE9S3Mn-lsYfq3XChl9DRRu0BoTbcn-hi5Tz6kYDE2aqa2jYV9D8spdv3HZwGMpjs_VM5kAyAZuSxPSjKypx86sbSTJmmyekxa_i5zIXYMF0BMLZqLCZKaUgx42TTAupkYO2oI9SchbL8rSMeiaN523rGjywDBVQ3VJY3RDxRb9Yf33mQWeMJ2yTz3sVtXxvZojQsi20YpWE4jnHFwiuHln-ZhydICNN5N21hYVWmKOJeXkumJfFGC9Xg8T-qLuAgreh8H0uHNIdp-y5iD0b6CUoPTorE-KaYNGHpn2_ZTxizF7nNlR2EwL3TUyRppN1wTOQ3Oazfatffk4au17EZoqiBHgAo-0j9JQxlRS0O5U7sBN-a7uSsnybgkG-9kSBHri9zcRB34BYbvEZuVfh95LyxiqcKrLutdmqNA1kYLo25_YPSLu80jT_N9JRdLOUyuVMD0xjS8W6BptZgOmM08j9UNqx6RoOExma_1OQPeI9HwBR2_beioaKkt2khwVQ7z6JUA2zi9JhqmvtbCdzm1hzEa_dW0T7-hPU6ja1DALihbZhyabZwNie6OaKV8cdOkbXEsnr1eteL3IsRWwOoslsJ9oAFJwSOfaACh-rJXwpj8y_YPDci7f0bZf5x11nK-SJlSV-NLOTUVuwfE-0fnnH-3tj_D0uz-47Dy6haIdXL0SFlQFgylFks5UWmSeK2fuHPJwGr5j43l1xHAdUTYsQJGF3Xn3cgAVOCy5NcdovyzYXfFoJJbC2ow3lMGryGZ5Rw291p0tnU9f_GCsmup7iy8prVrxI3FQpcJTMPegFecXH3k21v-HrUMkcy65ZSueMJOV7wM8riKf4owWKbrU7fP_GQhm3eGU7v76etpW-W6cqtrqfO-MYLjitpqILuds2-Pd91wH2E5pL7GOPFoXYeWv7AsQ52BgPzqbP9hA2X6xswOQglFImZKltA24C8scNs4J1_x9XphTvvIi_8VvlRIxv7L78-0CRMoYw2vS5pdPSFk0MeML7v19aKSJt9APBSylh4lZeuGbzlqNtaaEd39NMaj8SrYiF6vacmRO7_xlxWiItm4kPRx3ZPkgvRxtAz-dVQ2TlqRBd9e_49Q_iZqIMXRbCGh3tUpcZQu-dsslW9yDlj91rorHIIMq691RbMvdNn5OhtMJwPGodU_Cd7OE9Y4ATLUl9QAjuZiDPrtdzB7EAp-QLExEAxmbxYOuf0luLp68sXpDoMgyl62uhZgbBl0pIqmJu95x8T-3sQW4Bggze03CpHS2Cgu0c5C0y7xOmM-EA_n39KFezI4xWjPHOVf2Hp4TeZfBBUUPrRibwfc1rZvbc5HFqnr-0oUJqSsLTcIZ9-ozxTXg9sHaJR2F29mEi-w_SYTdQw-QqutRyLRTildLcdi460lZn7o1VNhRy5U76qKDjz4QqjEm25yEvmOZhayLmVgIWRkiBC8CH66TaMOXuj48Qug60qmIyzcRd3DEkAev6A_JRDI5FRMP8FLB2dKjhcEnSg2XgmDcBI_GWGrWe0M9VjltxvcOi6j2OSWYQ4Hst-Kgkf0C50opvcZ5OPtLk65VavL0e0hcdnPE5_4A0VU5k74z0mBuJADpkag6ip9HpzsYnHVpXwg=<table><tr><td style="font-weight:bold;vertical-align:top;">comment</td><td style="vertical-align:top;">:</td><td><div></div></td></tr><tr><td style="font-weight:bold;vertical-align:top;">domain</td><td style="vertical-align:top;">:</td><td><div></div></td></tr><tr><td style="font-weight:bold;vertical-align:top;">expires</td><td style="vertical-align:top;">:</td><td><div></div></td></tr><tr><td style="font-weight:bold;vertical-align:top;">httponly</td><td style="vertical-align:top;">:</td><td><div></div></td></tr><tr><td style="font-weight:bold;vertical-align:top;">max-age</td><td style="vertical-align:top;">:</td><td><div></div></td></tr><tr><td style="font-weight:bold;vertical-align:top;">path</td><td style="vertical-align:top;">:</td><td><div></div></td></tr><tr><td style="font-weight:bold;vertical-align:top;">secure</td><td style="vertical-align:top;">:</td><td><div></div></td></tr><tr><td style="font-weight:bold;vertical-align:top;">version</td><td style="vertical-align:top;">:</td><td><div></div></td></tr></table></div></td></tr><tr><td style="font-weight:bold;vertical-align:top;">session_id_admin</td><td style="vertical-align:top;">:</td><td><div>127.0.0.1-5e4d5587-8e46-4ab9-bda4-cde90ee24cff<table><tr><td style="font-weight:bold;vertical-align:top;">comment</td><td style="vertical-align:top;">:</td><td><div></div></td></tr><tr><td style="font-weight:bold;vertical-align:top;">domain</td><td style="vertical-align:top;">:</td><td><div></div></td></tr><tr><td style="font-weight:bold;vertical-align:top;">expires</td><td style="vertical-align:top;">:</td><td><div></div></td></tr><tr><td style="font-weight:bold;vertical-align:top;">httponly</td><td style="vertical-align:top;">:</td><td><div></div></td></tr><tr><td style="font-weight:bold;vertical-align:top;">max-age</td><td style="vertical-align:top;">:</td><td><div></div></td></tr><tr><td style="font-weight:bold;vertical-align:top;">path</td><td style="vertical-align:top;">:</td><td><div></div></td></tr><tr><td style="font-weight:bold;vertical-align:top;">secure</td><td style="vertical-align:top;">:</td><td><div></div></td></tr><tr><td style="font-weight:bold;vertical-align:top;">version</td><td style="vertical-align:top;">:</td><td><div></div></td></tr></table></div></td></tr><tr><td style="font-weight:bold;vertical-align:top;">session_id_hackathon</td><td style="vertical-align:top;">:</td><td><div>127.0.0.1-e9d19e57-2c82-4246-95e2-3afb87897355<table><tr><td style="font-weight:bold;vertical-align:top;">comment</td><td style="vertical-align:top;">:</td><td><div></div></td></tr><tr><td style="font-weight:bold;vertical-align:top;">domain</td><td style="vertical-align:top;">:</td><td><div></div></td></tr><tr><td style="font-weight:bold;vertical-align:top;">expires</td><td style="vertical-align:top;">:</td><td><div></div></td></tr><tr><td style="font-weight:bold;vertical-align:top;">httponly</td><td style="vertical-align:top;">:</td><td><div></div></td></tr><tr><td style="font-weight:bold;vertical-align:top;">max-age</td><td style="vertical-align:top;">:</td><td><div></div></td></tr><tr><td style="font-weight:bold;vertical-align:top;">path</td><td style="vertical-align:top;">:</td><td><div></div></td></tr><tr><td style="font-weight:bold;vertical-align:top;">secure</td><td style="vertical-align:top;">:</td><td><div></div></td></tr><tr><td style="font-weight:bold;vertical-align:top;">version</td><td style="vertical-align:top;">:</td><td><div></div></td></tr></table></div></td></tr><tr><td style="font-weight:bold;vertical-align:top;">session_id_hw</td><td style="vertical-align:top;">:</td><td><div>127.0.0.1-23223d0c-fdad-4421-b0fa-bfb22452a98b<table><tr><td style="font-weight:bold;vertical-align:top;">comment</td><td style="vertical-align:top;">:</td><td><div></div></td></tr><tr><td style="font-weight:bold;vertical-align:top;">domain</td><td style="vertical-align:top;">:</td><td><div></div></td></tr><tr><td style="font-weight:bold;vertical-align:top;">expires</td><td style="vertical-align:top;">:</td><td><div></div></td></tr><tr><td style="font-weight:bold;vertical-align:top;">httponly</td><td style="vertical-align:top;">:</td><td><div></div></td></tr><tr><td style="font-weight:bold;vertical-align:top;">max-age</td><td style="vertical-align:top;">:</td><td><div></div></td></tr><tr><td style="font-weight:bold;vertical-align:top;">path</td><td style="vertical-align:top;">:</td><td><div></div></td></tr><tr><td style="font-weight:bold;vertical-align:top;">secure</td><td style="vertical-align:top;">:</td><td><div></div></td></tr><tr><td style="font-weight:bold;vertical-align:top;">version</td><td style="vertical-align:top;">:</td><td><div></div></td></tr></table></div></td></tr><tr><td style="font-weight:bold;vertical-align:top;">session_id_layouttest</td><td style="vertical-align:top;">:</td><td><div>127.0.0.1-9dd550cb-7d25-4599-add6-bbf406414416<table><tr><td style="font-weight:bold;vertical-align:top;">comment</td><td style="vertical-align:top;">:</td><td><div></div></td></tr><tr><td style="font-weight:bold;vertical-align:top;">domain</td><td style="vertical-align:top;">:</td><td><div></div></td></tr><tr><td style="font-weight:bold;vertical-align:top;">expires</td><td style="vertical-align:top;">:</td><td><div></div></td></tr><tr><td style="font-weight:bold;vertical-align:top;">httponly</td><td style="vertical-align:top;">:</td><td><div></div></td></tr><tr><td style="font-weight:bold;vertical-align:top;">max-age</td><td style="vertical-align:top;">:</td><td><div></div></td></tr><tr><td style="font-weight:bold;vertical-align:top;">path</td><td style="vertical-align:top;">:</td><td><div></div></td></tr><tr><td style="font-weight:bold;vertical-align:top;">secure</td><td style="vertical-align:top;">:</td><td><div></div></td></tr><tr><td style="font-weight:bold;vertical-align:top;">version</td><td style="vertical-align:top;">:</td><td><div></div></td></tr></table></div></td></tr><tr><td style="font-weight:bold;vertical-align:top;">session_id_ourhours</td><td style="vertical-align:top;">:</td><td><div>True<table><tr><td style="font-weight:bold;vertical-align:top;">comment</td><td style="vertical-align:top;">:</td><td><div></div></td></tr><tr><td style="font-weight:bold;vertical-align:top;">domain</td><td style="vertical-align:top;">:</td><td><div></div></td></tr><tr><td style="font-weight:bold;vertical-align:top;">expires</td><td style="vertical-align:top;">:</td><td><div></div></td></tr><tr><td style="font-weight:bold;vertical-align:top;">httponly</td><td style="vertical-align:top;">:</td><td><div></div></td></tr><tr><td style="font-weight:bold;vertical-align:top;">max-age</td><td style="vertical-align:top;">:</td><td><div></div></td></tr><tr><td style="font-weight:bold;vertical-align:top;">path</td><td style="vertical-align:top;">:</td><td><div></div></td></tr><tr><td style="font-weight:bold;vertical-align:top;">secure</td><td style="vertical-align:top;">:</td><td><div></div></td></tr><tr><td style="font-weight:bold;vertical-align:top;">version</td><td style="vertical-align:top;">:</td><td><div></div></td></tr></table></div></td></tr><tr><td style="font-weight:bold;vertical-align:top;">session_id_welcome</td><td style="vertical-align:top;">:</td><td><div>127.0.0.1-3404b542-72e6-426d-9bd7-f225ed0f1803<table><tr><td style="font-weight:bold;vertical-align:top;">comment</td><td style="vertical-align:top;">:</td><td><div></div></td></tr><tr><td style="font-weight:bold;vertical-align:top;">domain</td><td style="vertical-align:top;">:</td><td><div></div></td></tr><tr><td style="font-weight:bold;vertical-align:top;">expires</td><td style="vertical-align:top;">:</td><td><div></div></td></tr><tr><td style="font-weight:bold;vertical-align:top;">httponly</td><td style="vertical-align:top;">:</td><td><div></div></td></tr><tr><td style="font-weight:bold;vertical-align:top;">max-age</td><td style="vertical-align:top;">:</td><td><div></div></td></tr><tr><td style="font-weight:bold;vertical-align:top;">path</td><td style="vertical-align:top;">:</td><td><div></div></td></tr><tr><td style="font-weight:bold;vertical-align:top;">secure</td><td style="vertical-align:top;">:</td><td><div></div></td></tr><tr><td style="font-weight:bold;vertical-align:top;">version</td><td style="vertical-align:top;">:</td><td><div></div></td></tr></table></div></td></tr></table></div></td></tr><tr><td style="font-weight:bold;vertical-align:top;">env</td><td style="vertical-align:top;">:</td><td><div><table><tr><td style="font-weight:bold;vertical-align:top;">HTTP_ACCEPT</td><td style="vertical-align:top;">:</td><td><div>text/html,application/xhtml+xml,application/xml;q=0.9,image/webp,*/*;q=0.8</div></td></tr><tr><td style="font-weight:bold;vertical-align:top;">HTTP_ACCEPT_ENCODING</td><td style="vertical-align:top;">:</td><td><div>gzip, deflate, sdch, br</div></td></tr><tr><td style="font-weight:bold;vertical-align:top;">HTTP_ACCEPT_LANGUAGE</td><td style="vertical-align:top;">:</td><td><div>en-US,en;q=0.8</div></td></tr><tr><td style="font-weight:bold;vertical-align:top;">HTTP_CACHE_CONTROL</td><td style="vertical-align:top;">:</td><td><div>max-age=0</div></td></tr><tr><td style="font-weight:bold;vertical-align:top;">HTTP_CONNECTION</td><td style="vertical-align:top;">:</td><td><div>keep-alive</div></td></tr><tr><td style="font-weight:bold;vertical-align:top;">HTTP_COOKIE</td><td style="vertical-align:top;">:</td><td><div>session_id_layouttest=127.0.0.1-9dd550cb-7d25-4599-add6-bbf406414416; resolution=1349; session_id_hackathon=127.0.0.1-e9d19e57-2c82-4246-95e2-3afb87897355; session_id_hw=127.0.0.1-23223d0c-fdad-4421-b0fa-bfb22452a98b; session_id_welcome=127.0.0.1-3404b542-72e6-426d-9bd7-f225ed0f1803; session_data_ourhours=&quot;b2d71c9a9065d532946549e93b8b85e1:qNniJ-5tKprx28-LYgyB1Pcx_PV695UI0Dp-txnQ9Frx5_tEuorX4hrEQefMmxQJSyGBca4ZD4aOk7pFl48xB6ryIPTd4p1wMGiAbKYQ8UyfaWaUhspT9jZEnhWKBZOY1JCU_mShEDrc1ZVXL4nLj21c8UQXky9igDD2LJKo4JX1vPREQw41enjtJ5sT4l_P1S5_AOKzkNNS4A38Gv-wc16hSHovrlGEm5hUIhhsxiTRulavoW5coowrAbtLDgfr8Yj6PVbLbfnqO7GhsPeoHWmN8Pfg4FsqdePEJq9dYKezcsXRAdshE65Sc4eTs25bjeCbevdV2XrNbiMOo2XcsUWMnjynRTr2eqcBI3u8Zft17GNDoLjPB54tr2MuncTwTdyNYSc-MU-VJ7g26BoQ4IzmJOPa3gWf9ZLzdOFZRTaVOaOAEh_y3hLIrif0pCdpKT6bSzeguurYNjdBPG2dG9i1nEHMOwUl6mw1tXXsuveBNiiEuD5IipSKTJT8wabzVdfZqgrL1PnibQXyUWHmhAJhTgT88Ma5OL4r-RqF4piSHEMm6j38bOcjQomnTwNyBbLc0nOSQZPpJDdaxdp5XihB0kEcZzCjuJdQ7-x9i-xZ_gPI14eRTGZ21ZcG7XFWoEXseZ6c6RPYtjkEU63B7x2DL9mTgDp09fJMkGlH9ZG1FrJONMU990ZeyiJCQrafavxZilzHaVJdqcZKMm5MfNOM1sDrb4llrtAAdFG2DI0sWHUQZkmv5JA5AjIjs3z-k4JpGdoNgHdUZpJHVz0hRo1eEV66uNptKEMv-AOPMatcQuFJ9gq4eby4ycvf67bz-MNZrYbP1Q2ES1VqlRyycOqmuVtSf1Ge7AvKalNA8AovPVTWDQDzPx-ZbuIPZ2DGhamR8PqxhnRGNwOfHrE9S3Mn-lsYfq3XChl9DRRu0BoTbcn-hi5Tz6kYDE2aqa2jYV9D8spdv3HZwGMpjs_VM5kAyAZuSxPSjKypx86sbSTJmmyekxa_i5zIXYMF0BMLZqLCZKaUgx42TTAupkYO2oI9SchbL8rSMeiaN523rGjywDBVQ3VJY3RDxRb9Yf33mQWeMJ2yTz3sVtXxvZojQsi20YpWE4jnHFwiuHln-ZhydICNN5N21hYVWmKOJeXkumJfFGC9Xg8T-qLuAgreh8H0uHNIdp-y5iD0b6CUoPTorE-KaYNGHpn2_ZTxizF7nNlR2EwL3TUyRppN1wTOQ3Oazfatffk4au17EZoqiBHgAo-0j9JQxlRS0O5U7sBN-a7uSsnybgkG-9kSBHri9zcRB34BYbvEZuVfh95LyxiqcKrLutdmqNA1kYLo25_YPSLu80jT_N9JRdLOUyuVMD0xjS8W6BptZgOmM08j9UNqx6RoOExma_1OQPeI9HwBR2_beioaKkt2khwVQ7z6JUA2zi9JhqmvtbCdzm1hzEa_dW0T7-hPU6ja1DALihbZhyabZwNie6OaKV8cdOkbXEsnr1eteL3IsRWwOoslsJ9oAFJwSOfaACh-rJXwpj8y_YPDci7f0bZf5x11nK-SJlSV-NLOTUVuwfE-0fnnH-3tj_D0uz-47Dy6haIdXL0SFlQFgylFks5UWmSeK2fuHPJwGr5j43l1xHAdUTYsQJGF3Xn3cgAVOCy5NcdovyzYXfFoJJbC2ow3lMGryGZ5Rw291p0tnU9f_GCsmup7iy8prVrxI3FQpcJTMPegFecXH3k21v-HrUMkcy65ZSueMJOV7wM8riKf4owWKbrU7fP_GQhm3eGU7v76etpW-W6cqtrqfO-MYLjitpqILuds2-Pd91wH2E5pL7GOPFoXYeWv7AsQ52BgPzqbP9hA2X6xswOQglFImZKltA24C8scNs4J1_x9XphTvvIi_8VvlRIxv7L78-0CRMoYw2vS5pdPSFk0MeML7v19aKSJt9APBSylh4lZeuGbzlqNtaaEd39NMaj8SrYiF6vacmRO7_xlxWiItm4kPRx3ZPkgvRxtAz-dVQ2TlqRBd9e_49Q_iZqIMXRbCGh3tUpcZQu-dsslW9yDlj91rorHIIMq691RbMvdNn5OhtMJwPGodU_Cd7OE9Y4ATLUl9QAjuZiDPrtdzB7EAp-QLExEAxmbxYOuf0luLp68sXpDoMgyl62uhZgbBl0pIqmJu95x8T-3sQW4Bggze03CpHS2Cgu0c5C0y7xOmM-EA_n39KFezI4xWjPHOVf2Hp4TeZfBBUUPrRibwfc1rZvbc5HFqnr-0oUJqSsLTcIZ9-ozxTXg9sHaJR2F29mEi-w_SYTdQw-QqutRyLRTildLcdi460lZn7o1VNhRy5U76qKDjz4QqjEm25yEvmOZhayLmVgIWRkiBC8CH66TaMOXuj48Qug60qmIyzcRd3DEkAev6A_JRDI5FRMP8FLB2dKjhcEnSg2XgmDcBI_GWGrWe0M9VjltxvcOi6j2OSWYQ4Hst-Kgkf0C50opvcZ5OPtLk65VavL0e0hcdnPE5_4A0VU5k74z0mBuJADpkag6ip9HpzsYnHVpXwg=&quot;; session_id_ourhours=True; session_id_admin=127.0.0.1-5e4d5587-8e46-4ab9-bda4-cde90ee24cff</div></td></tr><tr><td style="font-weight:bold;vertical-align:top;">HTTP_HOST</td><td style="vertical-align:top;">:</td><td><div>127.0.0.1:8000</div></td></tr><tr><td style="font-weight:bold;vertical-align:top;">HTTP_REFERER</td><td style="vertical-align:top;">:</td><td><div>http://127.0.0.1:8000/ourhours/default/index</div></td></tr><tr><td style="font-weight:bold;vertical-align:top;">HTTP_UPGRADE_INSECURE_REQUESTS</td><td style="vertical-align:top;">:</td><td><div>1</div></td></tr><tr><td style="font-weight:bold;vertical-align:top;">HTTP_USER_AGENT</td><td style="vertical-align:top;">:</td><td><div>Mozilla/5.0 (Windows NT 10.0; Win64; x64) AppleWebKit/537.36 (KHTML, like Gecko) Chrome/55.0.2883.87 Safari/537.36</div></td></tr><tr><td style="font-weight:bold;vertical-align:top;">PATH_INFO</td><td style="vertical-align:top;">:</td><td><div>/ourhours/default/event_page/21</div></td></tr><tr><td style="font-weight:bold;vertical-align:top;">QUERY_STRING</td><td style="vertical-align:top;">:</td><td><div></div></td></tr><tr><td style="font-weight:bold;vertical-align:top;">REMOTE_ADDR</td><td style="vertical-align:top;">:</td><td><div>127.0.0.1</div></td></tr><tr><td style="font-weight:bold;vertical-align:top;">REMOTE_PORT</td><td style="vertical-align:top;">:</td><td><div>50774</div></td></tr><tr><td style="font-weight:bold;vertical-align:top;">REQUEST_METHOD</td><td style="vertical-align:top;">:</td><td><div>GET</div></td></tr><tr><td style="font-weight:bold;vertical-align:top;">SCRIPT_NAME</td><td style="vertical-align:top;">:</td><td><div></div></td></tr><tr><td style="font-weight:bold;vertical-align:top;">SERVER_NAME</td><td style="vertical-align:top;">:</td><td><div>DESKTOP-GDD7DCK</div></td></tr><tr><td style="font-weight:bold;vertical-align:top;">SERVER_PORT</td><td style="vertical-align:top;">:</td><td><div>8000</div></td></tr><tr><td style="font-weight:bold;vertical-align:top;">SERVER_PROTOCOL</td><td style="vertical-align:top;">:</td><td><div>HTTP/1.1</div></td></tr><tr><td style="font-weight:bold;vertical-align:top;">SERVER_SOFTWARE</td><td style="vertical-align:top;">:</td><td><div>Rocket 1.2.6</div></td></tr><tr><td style="font-weight:bold;vertical-align:top;">app_folders</td><td style="vertical-align:top;">:</td><td><div>set([&#x27;C:\\\\Users\\\\Wesly\\\\Desktop\\\\UCSC-Hack-2017\\\\applications\\\\welcome\\\\&#x27;, &#x27;C:\\\\Users\\\\Wesly\\\\Desktop\\\\UCSC-Hack-2017\\\\applications\\\\examples\\\\&#x27;, &#x27;C:\\\\Users\\\\Wesly\\\\Desktop\\\\UCSC-Hack-2017\\\\applications\\\\ourhours\\\\&#x27;, &#x27;C:\\\\Users\\\\Wesly\\\\Desktop\\\\UCSC-Hack-2017\\\\applications\\\\admin\\\\&#x27;])</div></td></tr><tr><td style="font-weight:bold;vertical-align:top;">applications_parent</td><td style="vertical-align:top;">:</td><td><div>C:\\Users\\Wesly\\Desktop\\UCSC-Hack-2017</div></td></tr><tr><td style="font-weight:bold;vertical-align:top;">cmd_args</td><td style="vertical-align:top;">:</td><td><div><table></table></div></td></tr><tr><td style="font-weight:bold;vertical-align:top;">cmd_options</td><td style="vertical-align:top;">:</td><td><div>&lt;Values at 0x2ddaeb8: {&#x27;verbose&#x27;: False, &#x27;ip&#x27;: &#x27;127.0.0.1&#x27;, &#x27;debuglevel&#x27;: 30, &#x27;with_scheduler&#x27;: False, &#x27;shutdown_timeout&#x27;: 5, &#x27;taskbar&#x27;: False, &#x27;with_coverage&#x27;: False, &#x27;pid_filename&#x27;: &#x27;httpserver.pid&#x27;, &#x27;maxthreads&#x27;: None, &#x27;softcron&#x27;: False, &#x27;server_name&#x27;: &#x27;DESKTOP-GDD7DCK&#x27;, &#x27;bpython&#x27;: False, &#x27;nogui&#x27;: False, &#x27;port&#x27;: 8000, &#x27;print_errors&#x27;: False, &#x27;extcron&#x27;: False, &#x27;runcron&#x27;: False, &#x27;run_system_tests&#x27;: False, &#x27;test&#x27;: None, &#x27;folder&#x27;: &#x27;C:\\\\Users\\\\Wesly\\\\Desktop\\\\UCSC-Hack-2017&#x27;, &#x27;config&#x27;: &#x27;&#x27;, &#x27;minthreads&#x27;: None, &#x27;shell&#x27;: None, &#x27;run&#x27;: &#x27;&#x27;, &#x27;log_filename&#x27;: &#x27;httpserver.log&#x27;, &#x27;profiler_dir&#x27;: None, &#x27;args&#x27;: [&#x27;&#x27;], &#x27;socket_timeout&#x27;: 5, &#x27;ssl_ca_certificate&#x27;: None, &#x27;scheduler&#x27;: None, &#x27;interfaces&#x27;: None, &#x27;ssl_private_key&#x27;: &#x27;&#x27;, &#x27;gae&#x27;: None, &#x27;password&#x27;: &#x27;******&#x27;, &#x27;request_queue_size&#x27;: 5, &#x27;ssl_certificate&#x27;: &#x27;&#x27;, &#x27;cronjob&#x27;: False, &#x27;numthreads&#x27;: None, &#x27;quiet&#x27;: False, &#x27;import_models&#x27;: False, &#x27;timeout&#x27;: 10, &#x27;plain&#x27;: False, &#x27;nobanner&#x27;: False}&gt;</div></td></tr><tr><td style="font-weight:bold;vertical-align:top;">db_sessions</td><td style="vertical-align:top;">:</td><td><div>set([])</div></td></tr><tr><td style="font-weight:bold;vertical-align:top;">debugging</td><td style="vertical-align:top;">:</td><td><div>True</div></td></tr><tr><td style="font-weight:bold;vertical-align:top;">gluon_parent</td><td style="vertical-align:top;">:</td><td><div>C:\\Users\\Wesly\\Desktop\\UCSC-Hack-2017</div></td></tr><tr><td style="font-weight:bold;vertical-align:top;">http_accept</td><td style="vertical-align:top;">:</td><td><div>text/html,application/xhtml+xml,application/xml;q=0.9,image/webp,*/*;q=0.8</div></td></tr><tr><td style="font-weight:bold;vertical-align:top;">http_accept_encoding</td><td style="vertical-align:top;">:</td><td><div>gzip, deflate, sdch, br</div></td></tr><tr><td style="font-weight:bold;vertical-align:top;">http_accept_language</td><td style="vertical-align:top;">:</td><td><div>en-US,en;q=0.8</div></td></tr><tr><td style="font-weight:bold;vertical-align:top;">http_cache_control</td><td style="vertical-align:top;">:</td><td><div>max-age=0</div></td></tr><tr><td style="font-weight:bold;vertical-align:top;">http_connection</td><td style="vertical-align:top;">:</td><td><div>keep-alive</div></td></tr><tr><td style="font-weight:bold;vertical-align:top;">http_cookie</td><td style="vertical-align:top;">:</td><td><div>session_id_layouttest=127.0.0.1-9dd550cb-7d25-4599-add6-bbf406414416; resolution=1349; session_id_hackathon=127.0.0.1-e9d19e57-2c82-4246-95e2-3afb87897355; session_id_hw=127.0.0.1-23223d0c-fdad-4421-b0fa-bfb22452a98b; session_id_welcome=127.0.0.1-3404b542-72e6-426d-9bd7-f225ed0f1803; session_data_ourhours=&quot;b2d71c9a9065d532946549e93b8b85e1:qNniJ-5tKprx28-LYgyB1Pcx_PV695UI0Dp-txnQ9Frx5_tEuorX4hrEQefMmxQJSyGBca4ZD4aOk7pFl48xB6ryIPTd4p1wMGiAbKYQ8UyfaWaUhspT9jZEnhWKBZOY1JCU_mShEDrc1ZVXL4nLj21c8UQXky9igDD2LJKo4JX1vPREQw41enjtJ5sT4l_P1S5_AOKzkNNS4A38Gv-wc16hSHovrlGEm5hUIhhsxiTRulavoW5coowrAbtLDgfr8Yj6PVbLbfnqO7GhsPeoHWmN8Pfg4FsqdePEJq9dYKezcsXRAdshE65Sc4eTs25bjeCbevdV2XrNbiMOo2XcsUWMnjynRTr2eqcBI3u8Zft17GNDoLjPB54tr2MuncTwTdyNYSc-MU-VJ7g26BoQ4IzmJOPa3gWf9ZLzdOFZRTaVOaOAEh_y3hLIrif0pCdpKT6bSzeguurYNjdBPG2dG9i1nEHMOwUl6mw1tXXsuveBNiiEuD5IipSKTJT8wabzVdfZqgrL1PnibQXyUWHmhAJhTgT88Ma5OL4r-RqF4piSHEMm6j38bOcjQomnTwNyBbLc0nOSQZPpJDdaxdp5XihB0kEcZzCjuJdQ7-x9i-xZ_gPI14eRTGZ21ZcG7XFWoEXseZ6c6RPYtjkEU63B7x2DL9mTgDp09fJMkGlH9ZG1FrJONMU990ZeyiJCQrafavxZilzHaVJdqcZKMm5MfNOM1sDrb4llrtAAdFG2DI0sWHUQZkmv5JA5AjIjs3z-k4JpGdoNgHdUZpJHVz0hRo1eEV66uNptKEMv-AOPMatcQuFJ9gq4eby4ycvf67bz-MNZrYbP1Q2ES1VqlRyycOqmuVtSf1Ge7AvKalNA8AovPVTWDQDzPx-ZbuIPZ2DGhamR8PqxhnRGNwOfHrE9S3Mn-lsYfq3XChl9DRRu0BoTbcn-hi5Tz6kYDE2aqa2jYV9D8spdv3HZwGMpjs_VM5kAyAZuSxPSjKypx86sbSTJmmyekxa_i5zIXYMF0BMLZqLCZKaUgx42TTAupkYO2oI9SchbL8rSMeiaN523rGjywDBVQ3VJY3RDxRb9Yf33mQWeMJ2yTz3sVtXxvZojQsi20YpWE4jnHFwiuHln-ZhydICNN5N21hYVWmKOJeXkumJfFGC9Xg8T-qLuAgreh8H0uHNIdp-y5iD0b6CUoPTorE-KaYNGHpn2_ZTxizF7nNlR2EwL3TUyRppN1wTOQ3Oazfatffk4au17EZoqiBHgAo-0j9JQxlRS0O5U7sBN-a7uSsnybgkG-9kSBHri9zcRB34BYbvEZuVfh95LyxiqcKrLutdmqNA1kYLo25_YPSLu80jT_N9JRdLOUyuVMD0xjS8W6BptZgOmM08j9UNqx6RoOExma_1OQPeI9HwBR2_beioaKkt2khwVQ7z6JUA2zi9JhqmvtbCdzm1hzEa_dW0T7-hPU6ja1DALihbZhyabZwNie6OaKV8cdOkbXEsnr1eteL3IsRWwOoslsJ9oAFJwSOfaACh-rJXwpj8y_YPDci7f0bZf5x11nK-SJlSV-NLOTUVuwfE-0fnnH-3tj_D0uz-47Dy6haIdXL0SFlQFgylFks5UWmSeK2fuHPJwGr5j43l1xHAdUTYsQJGF3Xn3cgAVOCy5NcdovyzYXfFoJJbC2ow3lMGryGZ5Rw291p0tnU9f_GCsmup7iy8prVrxI3FQpcJTMPegFecXH3k21v-HrUMkcy65ZSueMJOV7wM8riKf4owWKbrU7fP_GQhm3eGU7v76etpW-W6cqtrqfO-MYLjitpqILuds2-Pd91wH2E5pL7GOPFoXYeWv7AsQ52BgPzqbP9hA2X6xswOQglFImZKltA24C8scNs4J1_x9XphTvvIi_8VvlRIxv7L78-0CRMoYw2vS5pdPSFk0MeML7v19aKSJt9APBSylh4lZeuGbzlqNtaaEd39NMaj8SrYiF6vacmRO7_xlxWiItm4kPRx3ZPkgvRxtAz-dVQ2TlqRBd9e_49Q_iZqIMXRbCGh3tUpcZQu-dsslW9yDlj91rorHIIMq691RbMvdNn5OhtMJwPGodU_Cd7OE9Y4ATLUl9QAjuZiDPrtdzB7EAp-QLExEAxmbxYOuf0luLp68sXpDoMgyl62uhZgbBl0pIqmJu95x8T-3sQW4Bggze03CpHS2Cgu0c5C0y7xOmM-EA_n39KFezI4xWjPHOVf2Hp4TeZfBBUUPrRibwfc1rZvbc5HFqnr-0oUJqSsLTcIZ9-ozxTXg9sHaJR2F29mEi-w_SYTdQw-QqutRyLRTildLcdi460lZn7o1VNhRy5U76qKDjz4QqjEm25yEvmOZhayLmVgIWRkiBC8CH66TaMOXuj48Qug60qmIyzcRd3DEkAev6A_JRDI5FRMP8FLB2dKjhcEnSg2XgmDcBI_GWGrWe0M9VjltxvcOi6j2OSWYQ4Hst-Kgkf0C50opvcZ5OPtLk65VavL0e0hcdnPE5_4A0VU5k74z0mBuJADpkag6ip9HpzsYnHVpXwg=&quot;; session_id_ourhours=True; session_id_admin=127.0.0.1-5e4d5587-8e46-4ab9-bda4-cde90ee24cff</div></td></tr><tr><td style="font-weight:bold;vertical-align:top;">http_host</td><td style="vertical-align:top;">:</td><td><div>127.0.0.1:8000</div></td></tr><tr><td style="font-weight:bold;vertical-align:top;">http_referer</td><td style="vertical-align:top;">:</td><td><div>http://127.0.0.1:8000/ourhours/default/index</div></td></tr><tr><td style="font-weight:bold;vertical-align:top;">http_upgrade_insecure_requests</td><td style="vertical-align:top;">:</td><td><div>1</div></td></tr><tr><td style="font-weight:bold;vertical-align:top;">http_user_agent</td><td style="vertical-align:top;">:</td><td><div>Mozilla/5.0 (Windows NT 10.0; Win64; x64) AppleWebKit/537.36 (KHTML, like Gecko) Chrome/55.0.2883.87 Safari/537.36</div></td></tr><tr><td style="font-weight:bold;vertical-align:top;">is_jython</td><td style="vertical-align:top;">:</td><td><div>False</div></td></tr><tr><td style="font-weight:bold;vertical-align:top;">is_pypy</td><td style="vertical-align:top;">:</td><td><div>False</div></td></tr><tr><td style="font-weight:bold;vertical-align:top;">is_source</td><td style="vertical-align:top;">:</td><td><div>False</div></td></tr><tr><td style="font-weight:bold;vertical-align:top;">local_hosts</td><td style="vertical-align:top;">:</td><td><div><table><tr><td><div>fe80::81f2:e7ae:7efe:f1e7%23</div></td></tr><tr><td><div>DESKTOP-GDD7DCK</div></td></tr><tr><td><div>::ffff:127.0.0.1</div></td></tr><tr><td><div>::1</div></td></tr><tr><td><div>fe80::5efe:192.168.1.135%21</div></td></tr><tr><td><div>192.168.1.135</div></td></tr><tr><td><div>fe80::e941:c1cf:aca3:e27d%22</div></td></tr><tr><td><div>127.0.0.1</div></td></tr><tr><td><div>192.168.56.1</div></td></tr></table></div></td></tr><tr><td style="font-weight:bold;vertical-align:top;">path_info</td><td style="vertical-align:top;">:</td><td><div>/ourhours/default/event_page/21</div></td></tr><tr><td style="font-weight:bold;vertical-align:top;">query_string</td><td style="vertical-align:top;">:</td><td><div></div></td></tr><tr><td style="font-weight:bold;vertical-align:top;">remote_addr</td><td style="vertical-align:top;">:</td><td><div>127.0.0.1</div></td></tr><tr><td style="font-weight:bold;vertical-align:top;">remote_port</td><td style="vertical-align:top;">:</td><td><div>50774</div></td></tr><tr><td style="font-weight:bold;vertical-align:top;">request_method</td><td style="vertical-align:top;">:</td><td><div>GET</div></td></tr><tr><td style="font-weight:bold;vertical-align:top;">request_uri</td><td style="vertical-align:top;">:</td><td><div>/ourhours/default/event_page/21</div></td></tr><tr><td style="font-weight:bold;vertical-align:top;">script_name</td><td style="vertical-align:top;">:</td><td><div></div></td></tr><tr><td style="font-weight:bold;vertical-align:top;">server_name</td><td style="vertical-align:top;">:</td><td><div>DESKTOP-GDD7DCK</div></td></tr><tr><td style="font-weight:bold;vertical-align:top;">server_port</td><td style="vertical-align:top;">:</td><td><div>8000</div></td></tr><tr><td style="font-weight:bold;vertical-align:top;">server_protocol</td><td style="vertical-align:top;">:</td><td><div>HTTP/1.1</div></td></tr><tr><td style="font-weight:bold;vertical-align:top;">server_software</td><td style="vertical-align:top;">:</td><td><div>Rocket 1.2.6</div></td></tr><tr><td style="font-weight:bold;vertical-align:top;">web2py_path</td><td style="vertical-align:top;">:</td><td><div>C:\\Users\\Wesly\\Desktop\\UCSC-Hack-2017</div></td></tr><tr><td style="font-weight:bold;vertical-align:top;">web2py_version</td><td style="vertical-align:top;">:</td><td><div>2.14.6-stable+timestamp.2016.05.10.00.21.47</div></td></tr><tr><td style="font-weight:bold;vertical-align:top;">wsgi.errors</td><td style="vertical-align:top;">:</td><td><div>&lt;open file &#x27;&lt;stderr&gt;&#x27;, mode &#x27;w&#x27; at 0x0221D0D0&gt;</div></td></tr><tr><td style="font-weight:bold;vertical-align:top;">wsgi.file_wrapper</td><td style="vertical-align:top;">:</td><td><div>&lt;class wsgiref.util.FileWrapper at 0x0321F148&gt;</div></td></tr><tr><td style="font-weight:bold;vertical-align:top;">wsgi.input</td><td style="vertical-align:top;">:</td><td><div>&lt;socket._fileobject object at 0x080682F0&gt;</div></td></tr><tr><td style="font-weight:bold;vertical-align:top;">wsgi.multiprocess</td><td style="vertical-align:top;">:</td><td><div>False</div></td></tr><tr><td style="font-weight:bold;vertical-align:top;">wsgi.multithread</td><td style="vertical-align:top;">:</td><td><div>True</div></td></tr><tr><td style="font-weight:bold;vertical-align:top;">wsgi.run_once</td><td style="vertical-align:top;">:</td><td><div>False</div></td></tr><tr><td style="font-weight:bold;vertical-align:top;">wsgi.url_scheme</td><td style="vertical-align:top;">:</td><td><div>http</div></td></tr><tr><td style="font-weight:bold;vertical-align:top;">wsgi.version</td><td style="vertical-align:top;">:</td><td><div><table><tr><td><div>1</div></td></tr><tr><td><div>0</div></td></tr></table></div></td></tr><tr><td style="font-weight:bold;vertical-align:top;">wsgi_errors</td><td style="vertical-align:top;">:</td><td><div>&lt;open file &#x27;&lt;stderr&gt;&#x27;, mode &#x27;w&#x27; at 0x0221D0D0&gt;</div></td></tr><tr><td style="font-weight:bold;vertical-align:top;">wsgi_file_wrapper</td><td style="vertical-align:top;">:</td><td><div>&lt;class wsgiref.util.FileWrapper at 0x0321F148&gt;</div></td></tr><tr><td style="font-weight:bold;vertical-align:top;">wsgi_input</td><td style="vertical-align:top;">:</td><td><div>&lt;socket._fileobject object at 0x080682F0&gt;</div></td></tr><tr><td style="font-weight:bold;vertical-align:top;">wsgi_multiprocess</td><td style="vertical-align:top;">:</td><td><div>False</div></td></tr><tr><td style="font-weight:bold;vertical-align:top;">wsgi_multithread</td><td style="vertical-align:top;">:</td><td><div>True</div></td></tr><tr><td style="font-weight:bold;vertical-align:top;">wsgi_run_once</td><td style="vertical-align:top;">:</td><td><div>False</div></td></tr><tr><td style="font-weight:bold;vertical-align:top;">wsgi_url_scheme</td><td style="vertical-align:top;">:</td><td><div>http</div></td></tr><tr><td style="font-weight:bold;vertical-align:top;">wsgi_version</td><td style="vertical-align:top;">:</td><td><div><table><tr><td><div>1</div></td></tr><tr><td><div>0</div></td></tr></table></div></td></tr></table></div></td></tr><tr><td style="font-weight:bold;vertical-align:top;">extension</td><td style="vertical-align:top;">:</td><td><div>html</div></td></tr><tr><td style="font-weight:bold;vertical-align:top;">folder</td><td style="vertical-align:top;">:</td><td><div>C:\\Users\\Wesly\\Desktop\\UCSC-Hack-2017\\applications\\ourhours\\</div></td></tr><tr><td style="font-weight:bold;vertical-align:top;">function</td><td style="vertical-align:top;">:</td><td><div>event_page</div></td></tr><tr><td style="font-weight:bold;vertical-align:top;">global_settings</td><td style="vertical-align:top;">:</td><td><div><table><tr><td style="font-weight:bold;vertical-align:top;">app_folders</td><td style="vertical-align:top;">:</td><td><div>set([&#x27;C:\\\\Users\\\\Wesly\\\\Desktop\\\\UCSC-Hack-2017\\\\applications\\\\welcome\\\\&#x27;, &#x27;C:\\\\Users\\\\Wesly\\\\Desktop\\\\UCSC-Hack-2017\\\\applications\\\\examples\\\\&#x27;, &#x27;C:\\\\Users\\\\Wesly\\\\Desktop\\\\UCSC-Hack-2017\\\\applications\\\\ourhours\\\\&#x27;, &#x27;C:\\\\Users\\\\Wesly\\\\Desktop\\\\UCSC-Hack-2017\\\\applications\\\\admin\\\\&#x27;])</div></td></tr><tr><td style="font-weight:bold;vertical-align:top;">applications_parent</td><td style="vertical-align:top;">:</td><td><div>C:\\Users\\Wesly\\Desktop\\UCSC-Hack-2017</div></td></tr><tr><td style="font-weight:bold;vertical-align:top;">cmd_args</td><td style="vertical-align:top;">:</td><td><div><table></table></div></td></tr><tr><td style="font-weight:bold;vertical-align:top;">cmd_options</td><td style="vertical-align:top;">:</td><td><div>&lt;Values at 0x2ddaeb8: {&#x27;verbose&#x27;: False, &#x27;ip&#x27;: &#x27;127.0.0.1&#x27;, &#x27;debuglevel&#x27;: 30, &#x27;with_scheduler&#x27;: False, &#x27;shutdown_timeout&#x27;: 5, &#x27;taskbar&#x27;: False, &#x27;with_coverage&#x27;: False, &#x27;pid_filename&#x27;: &#x27;httpserver.pid&#x27;, &#x27;maxthreads&#x27;: None, &#x27;softcron&#x27;: False, &#x27;server_name&#x27;: &#x27;DESKTOP-GDD7DCK&#x27;, &#x27;bpython&#x27;: False, &#x27;nogui&#x27;: False, &#x27;port&#x27;: 8000, &#x27;print_errors&#x27;: False, &#x27;extcron&#x27;: False, &#x27;runcron&#x27;: False, &#x27;run_system_tests&#x27;: False, &#x27;test&#x27;: None, &#x27;folder&#x27;: &#x27;C:\\\\Users\\\\Wesly\\\\Desktop\\\\UCSC-Hack-2017&#x27;, &#x27;config&#x27;: &#x27;&#x27;, &#x27;minthreads&#x27;: None, &#x27;shell&#x27;: None, &#x27;run&#x27;: &#x27;&#x27;, &#x27;log_filename&#x27;: &#x27;httpserver.log&#x27;, &#x27;profiler_dir&#x27;: None, &#x27;args&#x27;: [&#x27;&#x27;], &#x27;socket_timeout&#x27;: 5, &#x27;ssl_ca_certificate&#x27;: None, &#x27;scheduler&#x27;: None, &#x27;interfaces&#x27;: None, &#x27;ssl_private_key&#x27;: &#x27;&#x27;, &#x27;gae&#x27;: None, &#x27;password&#x27;: &#x27;******&#x27;, &#x27;request_queue_size&#x27;: 5, &#x27;ssl_certificate&#x27;: &#x27;&#x27;, &#x27;cronjob&#x27;: False, &#x27;numthreads&#x27;: None, &#x27;quiet&#x27;: False, &#x27;import_models&#x27;: False, &#x27;timeout&#x27;: 10, &#x27;plain&#x27;: False, &#x27;nobanner&#x27;: False}&gt;</div></td></tr><tr><td style="font-weight:bold;vertical-align:top;">db_sessions</td><td style="vertical-align:top;">:</td><td><div>set([])</div></td></tr><tr><td style="font-weight:bold;vertical-align:top;">debugging</td><td style="vertical-align:top;">:</td><td><div>True</div></td></tr><tr><td style="font-weight:bold;vertical-align:top;">gluon_parent</td><td style="vertical-align:top;">:</td><td><div>C:\\Users\\Wesly\\Desktop\\UCSC-Hack-2017</div></td></tr><tr><td style="font-weight:bold;vertical-align:top;">is_jython</td><td style="vertical-align:top;">:</td><td><div>False</div></td></tr><tr><td style="font-weight:bold;vertical-align:top;">is_pypy</td><td style="vertical-align:top;">:</td><td><div>False</div></td></tr><tr><td style="font-weight:bold;vertical-align:top;">is_source</td><td style="vertical-align:top;">:</td><td><div>False</div></td></tr><tr><td style="font-weight:bold;vertical-align:top;">local_hosts</td><td style="vertical-align:top;">:</td><td><div><table><tr><td><div>fe80::81f2:e7ae:7efe:f1e7%23</div></td></tr><tr><td><div>DESKTOP-GDD7DCK</div></td></tr><tr><td><div>::ffff:127.0.0.1</div></td></tr><tr><td><div>::1</div></td></tr><tr><td><div>fe80::5efe:192.168.1.135%21</div></td></tr><tr><td><div>192.168.1.135</div></td></tr><tr><td><div>fe80::e941:c1cf:aca3:e27d%22</div></td></tr><tr><td><div>127.0.0.1</div></td></tr><tr><td><div>192.168.56.1</div></td></tr></table></div></td></tr><tr><td style="font-weight:bold;vertical-align:top;">web2py_version</td><td style="vertical-align:top;">:</td><td><div>2.14.6-stable+timestamp.2016.05.10.00.21.47</div></td></tr></table></div></td></tr><tr><td style="font-weight:bold;vertical-align:top;">is_https</td><td style="vertical-align:top;">:</td><td><div>False</div></td></tr><tr><td style="font-weight:bold;vertical-align:top;">is_local</td><td style="vertical-align:top;">:</td><td><div>True</div></td></tr><tr><td style="font-weight:bold;vertical-align:top;">is_restful</td><td style="vertical-align:top;">:</td><td><div>False</div></td></tr><tr><td style="font-weight:bold;vertical-align:top;">is_scheduler</td><td style="vertical-align:top;">:</td><td><div>False</div></td></tr><tr><td style="font-weight:bold;vertical-align:top;">is_shell</td><td style="vertical-align:top;">:</td><td><div>False</div></td></tr><tr><td style="font-weight:bold;vertical-align:top;">now</td><td style="vertical-align:top;">:</td><td><div>datetime.datetime(2017, 1, 21, 20, 49, 51, 367000)</div></td></tr><tr><td style="font-weight:bold;vertical-align:top;">raw_args</td><td style="vertical-align:top;">:</td><td><div>21</div></td></tr><tr><td style="font-weight:bold;vertical-align:top;">raw_extension</td><td style="vertical-align:top;">:</td><td><div>None</div></td></tr><tr><td style="font-weight:bold;vertical-align:top;">url</td><td style="vertical-align:top;">:</td><td><div>/ourhours/default/event_page/21</div></td></tr><tr><td style="font-weight:bold;vertical-align:top;">utcnow</td><td style="vertical-align:top;">:</td><td><div>datetime.datetime(2017, 1, 22, 4, 49, 51, 367000)</div></td></tr><tr><td style="font-weight:bold;vertical-align:top;">wsgi</td><td style="vertical-align:top;">:</td><td><div>&lt;gluon.main.LazyWSGI object at 0x07804950&gt;</div></td></tr></table></div>'
tRp58
sS'frames'
p59
(lp60
(dp61
S'file'
p62
S'C:\\Users\\Wesly\\Desktop\\UCSC-Hack-2017\\gluon\\restricted.py'
p63
sS'dump'
p64
(dp65
S'environment'
p66
S"{'A': <class 'gluon.html.A'>, 'ANY_OF': <class 'gluon.validators.ANY_OF'>, 'ASSIGNJS': <function ASSIGNJS>, 'Auth': <class 'gluon.tools.Auth'>, 'B': <class 'gluon.html.B'>, 'BEAUTIFY': <class 'gluon.html.BEAUTIFY'>, 'BODY': <class 'gluon.html.BODY'>, 'BR': <class 'gluon.html.BR'>, 'BUTTON': <class 'gluon.html.BUTTON'>, 'CAT': <class 'gluon.html.CAT'>, ...}"
p67
sS'ccode'
p68
S'<code object <module> at 0795E2F0, file "C:\\User...cations\\ourhours\\controllers/default.py", line 1>'
p69
ssS'lnum'
p70
I227
sS'lines'
p71
(dp72
I224
S'            ccode = code'
p73
sI225
S'        else:'
p74
sI226
S'            ccode = compile2(code, layer)'
p75
sI227
S'        exec ccode in environment'
p76
sI228
S'    except HTTP:'
p77
sI229
S'        raise'
p78
sI230
S'    except RestrictedError:'
p79
sI231
S'        # do not encapsulate (obfuscate) the original RestrictedError'
p80
sI222
S'    try:'
p81
sI223
S'        if isinstance(code, types.CodeType):'
p82
ssS'call'
p83
S"(code='from gluon.tools import Mail\\nimport imaplib\\nimpo...ws])\\nresponse._vars=response._caller(event_page)\\n', environment={'A': <class 'gluon.html.A'>, 'ANY_OF': <class 'gluon.validators.ANY_OF'>, 'ASSIGNJS': <function ASSIGNJS>, 'Auth': <class 'gluon.tools.Auth'>, 'B': <class 'gluon.html.B'>, 'BEAUTIFY': <class 'gluon.html.BEAUTIFY'>, 'BODY': <class 'gluon.html.BODY'>, 'BR': <class 'gluon.html.BR'>, 'BUTTON': <class 'gluon.html.BUTTON'>, 'CAT': <class 'gluon.html.CAT'>, ...}, layer=r'C:\\Users\\Wesly\\Desktop\\UCSC-Hack-2017\\applications\\ourhours\\controllers/default.py')"
p84
sS'func'
p85
S'restricted'
p86
sa(dp87
g62
S'C:\\Users\\Wesly\\Desktop\\UCSC-Hack-2017\\applications\\ourhours\\controllers\\default.py'
p88
sg64
(dp89
sg70
I66
sg71
(dp90
I64
S'                       limitby=(0, 3), orderby=~db.realtimedata.id)'
p91
sI65
S'    return json.dumps([[r.id, r.FlowRate] for r in rows])'
p92
sI56
S'def download():'
p93
sI57
S'    return response.download(request, db)'
p94
sI58
S''
sI59
S'def picture():'
p95
sI60
S'    return response.view(request, db)'
p96
sI61
S''
sI62
S'def getdata():'
p97
sI63
S'    rows = db().select(db.realtimedata.id, db.realtimedata.FlowRate,'
p98
ssg83
S'()'
p99
sg85
S'<module>'
p100
sa(dp101
g62
S'C:\\Users\\Wesly\\Desktop\\UCSC-Hack-2017\\gluon\\globals.py'
p102
sg64
(dp103
S'self'
p104
S'undefined'
p105
sS'f'
S'<function event_page>'
p106
ssg70
I417
sg71
(dp107
I416
S'        self._vars = None'
p108
sI417
S'        self._caller = lambda f: f()'
p109
sI418
S'        self._view_environment = None'
p110
sI419
S'        self._custom_commit = None'
p111
sI420
S'        self._custom_rollback = None'
p112
sI421
S"        self.generic_patterns = ['*']"
p113
sI412
S"        self.flash = ''            # used by the default view layout"
p114
sI413
S'        self.meta = Storage()      # used by web2py_ajax.html'
p115
sI414
S'        self.menu = []             # used by the default view layout'
p116
sI415
S'        self.files = []            # used by web2py_ajax.html'
p117
ssg83
S'(f=<function event_page>)'
p118
sg85
S'<lambda>'
p119
sa(dp120
g62
S'C:\\Users\\Wesly\\Desktop\\UCSC-Hack-2017\\applications\\ourhours\\controllers\\default.py'
p121
sg64
(dp122
S'e'
S"<Row {'event_description': 'test', 'end': dateti...nt_code': None, 'event_name': 'test', 'id': 28L}>"
p123
sS'e.event_name'
p124
S"'test'"
p125
sS'global json'
p126
S"<module 'json' from 'C:\\Users\\Wesly\\Desktop\\UCSC-Hack-2017\\library.zip\\json\\__init__.pyc'>"
p127
sS'json.dumps'
p128
S'<function dumps>'
p129
sS'e.start'
p130
S'datetime.datetime(2017, 1, 26, 20, 47, 41)'
p131
sS'e.event_allDay'
p132
S'True'
p133
sS'e.event_description'
p134
S"'test'"
p135
sS'e.end'
p136
S'datetime.datetime(2017, 1, 28, 20, 47, 46)'
p137
sS'e.event_id'
p138
S'None'
p139
sS'json_data'
p140
g105
sS'event'
p141
S'<Rows (1)>'
p142
ssg70
I48
sg71
(dp143
I43
S"    g = db.groups(request.args(0,cast=int)) or redirect(URL('index'))"
p144
sI44
S'    db.event.event_id.default = g.id'
p145
sI45
S'    db.event.event_code.default = g.group_code'
p146
sI46
S'    # event = db(db.event.event_id == g.id).select()'
p147
sI47
S'    event = db(db.event).select(db.event.ALL)'
p148
sI48
S'    json_data = json.dumps([[e.event_allDay, e.event_name, e.event_id, e.start, e.end, e.event_description] for e in event])'
p149
sI49
S'    response.flash = json_data'
p150
sI50
S''
sI51
S'    return locals()'
p151
sI52
S''
ssg83
S'()'
p152
sg85
S'event_page'
p153
sa(dp154
g62
S'C:\\Users\\Wesly\\Desktop\\UCSC-Hack-2017\\json\\__init__.py'
p155
sg64
(dp156
sg70
I243
sg71
(dp157
sg83
S"(obj=[[True, 'test', None, datetime.datetime(2017, 1, 26, 20, 47, 41), datetime.datetime(2017, 1, 28, 20, 47, 46), 'test']], skipkeys=False, ensure_ascii=True, check_circular=True, allow_nan=True, cls=None, indent=None, separators=None, encoding='utf-8', default=None, sort_keys=False, **kw={})"
p158
sg85
S'dumps'
p159
sa(dp160
g62
S'C:\\Users\\Wesly\\Desktop\\UCSC-Hack-2017\\json\\encoder.py'
p161
sg64
(dp162
sg70
I207
sg71
(dp163
sg83
S"(self=<json.encoder.JSONEncoder object>, o=[[True, 'test', None, datetime.datetime(2017, 1, 26, 20, 47, 41), datetime.datetime(2017, 1, 28, 20, 47, 46), 'test']])"
p164
sg85
S'encode'
p165
sa(dp166
g62
S'C:\\Users\\Wesly\\Desktop\\UCSC-Hack-2017\\json\\encoder.py'
p167
sg64
(dp168
sg70
I270
sg71
(dp169
sg83
S"(self=<json.encoder.JSONEncoder object>, o=[[True, 'test', None, datetime.datetime(2017, 1, 26, 20, 47, 41), datetime.datetime(2017, 1, 28, 20, 47, 46), 'test']], _one_shot=True)"
p170
sg85
S'iterencode'
p171
sa(dp172
g62
S'C:\\Users\\Wesly\\Desktop\\UCSC-Hack-2017\\json\\encoder.py'
p173
sg64
(dp174
sg70
I184
sg71
(dp175
sg83
S'(self=<json.encoder.JSONEncoder object>, o=datetime.datetime(2017, 1, 26, 20, 47, 41))'
p176
sg85
S'default'
p177
sasS'pyver'
p178
S'Python 2.7.9: C:\\Users\\Wesly\\Desktop\\UCSC-Hack-2017\\web2py.exe (prefix: )'
p179
sS'session'
p180
g57
(S's6\x01\x00\x00<div><table><tr><td style="font-weight:bold;vertical-align:top;">last_orderby</td><td style="vertical-align:top;">:</td><td><div>None</div></td></tr><tr><td style="font-weight:bold;vertical-align:top;">last_query</td><td style="vertical-align:top;">:</td><td><div>db.event.id&gt;0</div></td></tr></table></div>'
tRp181
sS'etype'
p182
S"<type 'exceptions.TypeError'>"
p183
sS'date'
p184
S'Sat Jan 21 20:49:51 2017'
p185
sS'response'
p186
g57
(S's\xc1\x16\x00\x00<div><table><tr><td style="font-weight:bold;vertical-align:top;">body</td><td style="vertical-align:top;">:</td><td><div>&lt;cStringIO.StringO object at 0x078044C0&gt;</div></td></tr><tr><td style="font-weight:bold;vertical-align:top;">cookies</td><td style="vertical-align:top;">:</td><td><div><table><tr><td style="font-weight:bold;vertical-align:top;">session_id_ourhours</td><td style="vertical-align:top;">:</td><td><div>127.0.0.1-808bdd6f-e140-4bd3-a66f-d7e78635e82f<table><tr><td style="font-weight:bold;vertical-align:top;">comment</td><td style="vertical-align:top;">:</td><td><div></div></td></tr><tr><td style="font-weight:bold;vertical-align:top;">domain</td><td style="vertical-align:top;">:</td><td><div></div></td></tr><tr><td style="font-weight:bold;vertical-align:top;">expires</td><td style="vertical-align:top;">:</td><td><div></div></td></tr><tr><td style="font-weight:bold;vertical-align:top;">httponly</td><td style="vertical-align:top;">:</td><td><div></div></td></tr><tr><td style="font-weight:bold;vertical-align:top;">max-age</td><td style="vertical-align:top;">:</td><td><div></div></td></tr><tr><td style="font-weight:bold;vertical-align:top;">path</td><td style="vertical-align:top;">:</td><td><div>/</div></td></tr><tr><td style="font-weight:bold;vertical-align:top;">secure</td><td style="vertical-align:top;">:</td><td><div></div></td></tr><tr><td style="font-weight:bold;vertical-align:top;">version</td><td style="vertical-align:top;">:</td><td><div></div></td></tr></table></div></td></tr></table></div></td></tr><tr><td style="font-weight:bold;vertical-align:top;">delimiters</td><td style="vertical-align:top;">:</td><td><div><table><tr><td><div>{{</div></td></tr><tr><td><div>}}</div></td></tr></table></div></td></tr><tr><td style="font-weight:bold;vertical-align:top;">files</td><td style="vertical-align:top;">:</td><td><div><table></table></div></td></tr><tr><td style="font-weight:bold;vertical-align:top;">flash</td><td style="vertical-align:top;">:</td><td><div></div></td></tr><tr><td style="font-weight:bold;vertical-align:top;">form_label_separator</td><td style="vertical-align:top;">:</td><td><div>: </div></td></tr><tr><td style="font-weight:bold;vertical-align:top;">formstyle</td><td style="vertical-align:top;">:</td><td><div>table3cols</div></td></tr><tr><td style="font-weight:bold;vertical-align:top;">generic_patterns</td><td style="vertical-align:top;">:</td><td><div><table><tr><td><div>*</div></td></tr></table></div></td></tr><tr><td style="font-weight:bold;vertical-align:top;">headers</td><td style="vertical-align:top;">:</td><td><div><table><tr><td style="font-weight:bold;vertical-align:top;">X-Powered-By</td><td style="vertical-align:top;">:</td><td><div>web2py</div></td></tr></table></div></td></tr><tr><td style="font-weight:bold;vertical-align:top;">menu</td><td style="vertical-align:top;">:</td><td><div><table><tr><td><div><table><tr><td><div>Home</div></td></tr><tr><td><div>False</div></td></tr><tr><td><div>/ourhours/default/index</div></td></tr></table></div></td></tr></table></div></td></tr><tr><td style="font-weight:bold;vertical-align:top;">meta</td><td style="vertical-align:top;">:</td><td><div><table></table></div></td></tr><tr><td style="font-weight:bold;vertical-align:top;">models_to_run</td><td style="vertical-align:top;">:</td><td><div><table><tr><td><div>^\\w+\\.py$</div></td></tr><tr><td><div>^default/\\w+\\.py$</div></td></tr><tr><td><div>^default/event_page/\\w+\\.py$</div></td></tr></table></div></td></tr><tr><td style="font-weight:bold;vertical-align:top;">postprocessing</td><td style="vertical-align:top;">:</td><td><div><table></table></div></td></tr><tr><td style="font-weight:bold;vertical-align:top;">session_client</td><td style="vertical-align:top;">:</td><td><div>127.0.0.1</div></td></tr><tr><td style="font-weight:bold;vertical-align:top;">session_cookie_compression_level</td><td style="vertical-align:top;">:</td><td><div>None</div></td></tr><tr><td style="font-weight:bold;vertical-align:top;">session_cookie_expires</td><td style="vertical-align:top;">:</td><td><div>None</div></td></tr><tr><td style="font-weight:bold;vertical-align:top;">session_data_name</td><td style="vertical-align:top;">:</td><td><div>session_data_ourhours</div></td></tr><tr><td style="font-weight:bold;vertical-align:top;">session_file</td><td style="vertical-align:top;">:</td><td><div>None</div></td></tr><tr><td style="font-weight:bold;vertical-align:top;">session_filename</td><td style="vertical-align:top;">:</td><td><div>C:\\Users\\Wesly\\Desktop\\UCSC-Hack-2017\\applications\\ourhours\\sessions\\127.0.0.1-808bdd6f-e140-4bd3-a66f-d7e78635e82f</div></td></tr><tr><td style="font-weight:bold;vertical-align:top;">session_hash</td><td style="vertical-align:top;">:</td><td><div>0f9a9bed8542c84cd1960a773a6fc7a6</div></td></tr><tr><td style="font-weight:bold;vertical-align:top;">session_id</td><td style="vertical-align:top;">:</td><td><div>True</div></td></tr><tr><td style="font-weight:bold;vertical-align:top;">session_id_name</td><td style="vertical-align:top;">:</td><td><div>session_id_ourhours</div></td></tr><tr><td style="font-weight:bold;vertical-align:top;">session_masterapp</td><td style="vertical-align:top;">:</td><td><div>ourhours</div></td></tr><tr><td style="font-weight:bold;vertical-align:top;">session_new</td><td style="vertical-align:top;">:</td><td><div>True</div></td></tr><tr><td style="font-weight:bold;vertical-align:top;">session_storage_type</td><td style="vertical-align:top;">:</td><td><div>cookie</div></td></tr><tr><td style="font-weight:bold;vertical-align:top;">status</td><td style="vertical-align:top;">:</td><td><div>200</div></td></tr><tr><td style="font-weight:bold;vertical-align:top;">view</td><td style="vertical-align:top;">:</td><td><div>default/event_page.html</div></td></tr></table></div>'
tRp187
sS'locals'
p188
(dp189
S'self'
p190
S'<json.encoder.JSONEncoder object>'
p191
sS'o'
S'datetime.datetime(2017, 1, 26, 20, 47, 41)'
p192
sssS'traceback'
p193
S'Traceback (most recent call last):\n  File "C:\\Users\\Wesly\\Desktop\\UCSC-Hack-2017\\gluon\\restricted.py", line 227, in restricted\n    exec ccode in environment\n  File "C:\\Users\\Wesly\\Desktop\\UCSC-Hack-2017\\applications\\ourhours\\controllers/default.py", line 66, in <module>\n  File "C:\\Users\\Wesly\\Desktop\\UCSC-Hack-2017\\gluon\\globals.py", line 417, in <lambda>\n    self._caller = lambda f: f()\n  File "C:\\Users\\Wesly\\Desktop\\UCSC-Hack-2017\\applications\\ourhours\\controllers/default.py", line 48, in event_page\n    json_data = json.dumps([[e.event_allDay, e.event_name, e.event_id, e.start, e.end, e.event_description] for e in event])\n  File "json/__init__.py", line 243, in dumps\n  File "json/encoder.py", line 207, in encode\n  File "json/encoder.py", line 270, in iterencode\n  File "json/encoder.py", line 184, in default\nTypeError: datetime.datetime(2017, 1, 26, 20, 47, 41) is not JSON serializable\n'
p194
s.