(dp1
S'output'
p2
S"<type 'exceptions.AttributeError'> 'Rows' object has no attribute 'event_name'"
p3
sS'layer'
p4
S'C:\\Users\\Wesly\\Desktop\\UCSC-Hack-2017\\applications\\ourhours\\views\\default/event_page.html'
p5
sS'code'
p6
S'response.write(\'\\r\\n<a href = "\', escape=False)\nresponse.write(URL(\'ecreate\'))\nresponse.write(\'"><button>\\r\\n    Create Event\\r\\n    </button>\\r\\n</a>\\r\\n<br>\\r\\n\', escape=False)\nif len(event):\n    response.write(\'\\r\\n\', escape=False)\n    for event in event:\n        response.write("\\r\\n    <tr>\\r\\n        <a href>\\r\\n            <td id=\'ev\'> ", escape=False)\n        response.write(event.event_name)\n        response.write(\'</td>\\r\\n        </a>\\r\\n        <br>\\r\\n    </tr>\\r\\n\', escape=False)\n        pass\n    response.write(\'\\r\\n\', escape=False)\n    pass\nresponse.write(\'\\r\\n\\r\\n<head>\\r\\n    <meta charset="utf-8" />\\r\\n    <meta name="viewport" content="width=device-width, initial-scale=1.0">\\r\\n    <title>Wesly\\\'s Phat Calendar</title>\\r\\n    <link href="https://maxcdn.bootstrapcdn.com/bootstrap/3.3.6/css/bootstrap.min.css" type="text/css" rel="stylesheet" />\\r\\n    <link href="https://cdnjs.cloudflare.com/ajax/libs/fullcalendar/2.6.1/fullcalendar.min.css" type="text/css" rel="stylesheet" />\\r\\n</head>\\r\\n<body>\\r\\n    <div class="container">\\r\\n        <div class="row">\\r\\n            <div class="col-xs-12">\\r\\n                <br />\\r\\n                <div id="bootstrapModalFullCalendar"></div>\\r\\n            </div>\\r\\n        </div>\\r\\n    </div>\\r\\n\\r\\n    <div id="fullCalModal" class="modal fade">\\r\\n        <div class="modal-dialog">\\r\\n            <div class="modal-content">\\r\\n                <div class="modal-header">\\r\\n                    <button type="button" class="close" data-dismiss="modal"><span aria-hidden="true">\\xc3\\x97</span> <span class="sr-only">close</span></button>\\r\\n                    <h4 id="modalTitle" class="modal-title"></h4>\\r\\n                </div>\\r\\n                <div id="modalBody" class="modal-body"></div>\\r\\n                <div class="modal-footer">\\r\\n                    <a class="btn btn-primary" id="eventUrl" target="_blank">Attending</a>\\r\\n                    <button type="button" class="btn btn-default" data-dismiss="modal">Close</button>\\r\\n                    \\r\\n                </div>\\r\\n            </div>\\r\\n        </div>\\r\\n    </div>\\r\\n\\r\\n    <script src="https://code.jquery.com/jquery.js"></script>\\r\\n    <script src="https://cdnjs.cloudflare.com/ajax/libs/moment.js/2.8.2/moment.min.js"></script>\\r\\n    <script src="https://cdnjs.cloudflare.com/ajax/libs/fullcalendar/2.6.1/fullcalendar.min.js"></script>\\r\\n    <script src="https://maxcdn.bootstrapcdn.com/bootstrap/3.3.6/js/bootstrap.min.js"></script>\\r\\n\\r\\n    <script>\\r\\n        $(document).ready(function() {\\r\\n            $(\\\'#bootstrapModalFullCalendar\\\').fullCalendar({\\r\\n                header: {\\r\\n                    left: \\\'today\\\',\\r\\n                    center: \\\'prev title next\\\',\\r\\n                    right: \\\'month agendaWeek agendaDay\\\'\\r\\n                },\\r\\n                eventClick:  function(event, jsEvent, view) {\\r\\n                    $(\\\'#modalTitle\\\').html(event.title);\\r\\n                    $(\\\'#modalBody\\\').html(event.description);\\r\\n                    $(\\\'#eventUrl\\\').attr(\\\'href\\\',event.url);\\r\\n                    $(\\\'#fullCalModal\\\').modal();\\r\\n                    return false;\\r\\n                },\\r\\n                \\r\\n                events:\\r\\n                [\\r\\n                   {\\r\\n                      "title":$("#\', escape=False)\nresponse.write(event.event_name)\nresponse.write(\'"),\\r\\n                      "allday":"false",\\r\\n                      "description":"<p>This is just a fake description for the Free Pizza.</p><p>Nothing to see!</p>",\\r\\n                      "start":moment().subtract(\\\'days\\\',14),\\r\\n                      "end":moment().subtract(\\\'days\\\',14),\\r\\n                      "url":"http://www.youtube.com/",\\r\\n                       backgroundColor: \\\'#f44842\\\'    \\r\\n                   }\\r\\n                ]\\r\\n                \\r\\n            });\\r\\n        });\\r\\n    </script>\\r\\n</body>\\r\\n\\r\\n\', escape=False)'
p7
sS'snapshot'
p8
(dp9
S'exception'
p10
(dp11
S'__hash__'
p12
S"<method-wrapper '__hash__' of exceptions.AttributeError object>"
p13
sS'__setattr__'
p14
S"<method-wrapper '__setattr__' of exceptions.AttributeError object>"
p15
sS'__reduce_ex__'
p16
S'<built-in method __reduce_ex__ of exceptions.AttributeError object>'
p17
sS'__getslice__'
p18
S"<method-wrapper '__getslice__' of exceptions.AttributeError object>"
p19
sS'__getitem__'
p20
S"<method-wrapper '__getitem__' of exceptions.AttributeError object>"
p21
sS'__setstate__'
p22
S'<built-in method __setstate__ of exceptions.AttributeError object>'
p23
sS'__reduce__'
p24
S'<built-in method __reduce__ of exceptions.AttributeError object>'
p25
sS'__str__'
p26
S"<method-wrapper '__str__' of exceptions.AttributeError object>"
p27
sS'__format__'
p28
S'<built-in method __format__ of exceptions.AttributeError object>'
p29
sS'__getattribute__'
p30
S"<method-wrapper '__getattribute__' of exceptions.AttributeError object>"
p31
sS'__class__'
p32
S"<type 'exceptions.AttributeError'>"
p33
sS'__unicode__'
p34
S'<built-in method __unicode__ of exceptions.AttributeError object>'
p35
sS'__delattr__'
p36
S"<method-wrapper '__delattr__' of exceptions.AttributeError object>"
p37
sS'__subclasshook__'
p38
S'<built-in method __subclasshook__ of type object>'
p39
sS'__repr__'
p40
S"<method-wrapper '__repr__' of exceptions.AttributeError object>"
p41
sS'args'
p42
S'("\'Rows\' object has no attribute \'event_name\'",)'
p43
sS'__dict__'
p44
S'{}'
p45
sS'__sizeof__'
p46
S'<built-in method __sizeof__ of exceptions.AttributeError object>'
p47
sS'__doc__'
p48
S"'Attribute not found.'"
p49
sS'__init__'
p50
S"<method-wrapper '__init__' of exceptions.AttributeError object>"
p51
sS'__new__'
p52
S'<built-in method __new__ of type object>'
p53
ssS'evalue'
p54
S"'Rows' object has no attribute 'event_name'"
p55
sS'request'
p56
cgluon.html
XML_unpickle
p57
(S's\xb5\x90\x00\x00<div><table><tr><td style="font-weight:bold;vertical-align:top;">ajax</td><td style="vertical-align:top;">:</td><td><div>False</div></td></tr><tr><td style="font-weight:bold;vertical-align:top;">application</td><td style="vertical-align:top;">:</td><td><div>ourhours</div></td></tr><tr><td style="font-weight:bold;vertical-align:top;">args</td><td style="vertical-align:top;">:</td><td><div><table><tr><td><div>15</div></td></tr></table></div></td></tr><tr><td style="font-weight:bold;vertical-align:top;">cid</td><td style="vertical-align:top;">:</td><td><div>None</div></td></tr><tr><td style="font-weight:bold;vertical-align:top;">client</td><td style="vertical-align:top;">:</td><td><div>127.0.0.1</div></td></tr><tr><td style="font-weight:bold;vertical-align:top;">controller</td><td style="vertical-align:top;">:</td><td><div>default</div></td></tr><tr><td style="font-weight:bold;vertical-align:top;">cookies</td><td style="vertical-align:top;">:</td><td><div><table><tr><td style="font-weight:bold;vertical-align:top;">resolution</td><td style="vertical-align:top;">:</td><td><div>1349<table><tr><td style="font-weight:bold;vertical-align:top;">comment</td><td style="vertical-align:top;">:</td><td><div></div></td></tr><tr><td style="font-weight:bold;vertical-align:top;">domain</td><td style="vertical-align:top;">:</td><td><div></div></td></tr><tr><td style="font-weight:bold;vertical-align:top;">expires</td><td style="vertical-align:top;">:</td><td><div></div></td></tr><tr><td style="font-weight:bold;vertical-align:top;">httponly</td><td style="vertical-align:top;">:</td><td><div></div></td></tr><tr><td style="font-weight:bold;vertical-align:top;">max-age</td><td style="vertical-align:top;">:</td><td><div></div></td></tr><tr><td style="font-weight:bold;vertical-align:top;">path</td><td style="vertical-align:top;">:</td><td><div></div></td></tr><tr><td style="font-weight:bold;vertical-align:top;">secure</td><td style="vertical-align:top;">:</td><td><div></div></td></tr><tr><td style="font-weight:bold;vertical-align:top;">version</td><td style="vertical-align:top;">:</td><td><div></div></td></tr></table></div></td></tr><tr><td style="font-weight:bold;vertical-align:top;">session_data_ourhours</td><td style="vertical-align:top;">:</td><td><div>8236467e94dc0db139dfd40d87d3b788:8vAaRz5JdXWIwFkSFigWVGwVNVhSZnOzCWjF1VHBsc5jwOs71gECUS9IFBvJiv0LojViAFLFEDLtiujpjVUXogXp1rhtrIleAuT4jAuEyzXycZkL3HoNiJnWcgcUs6XAseodL-VeNhdcfF15dRA3uAD6ohnPuFs-WWyD3eFeuSfb4q7OSpXTXsJKliVQvIWzp5OaJjPg0VNCaGmshkVXHvd1VYuZhjHxLVpgZEgjy4irkS1S3vxrIx70iSmkx2Tjmc_LurFrNN4j7MaWWJ_2UkI6e0rgmsIMZtUeGTQBTeyQ2aLBpVfsMcHPoXqrZWzGQNbAKTmU7iGF-w_3y5CJay3l60gd9XkXMwjDwJ6HacyYidebmD2PJydfll0LxYGSnXSTN-Chng5Ct8dGTjHR4JLMLQ_va632cSK21Ewy0v3dUhdSFdjUsm6dNqysCqMP2JqvozqFKiVd4g7pme0sn2xQWX-OWPN6pwJ_TIRstwtGVIM-0oMPsTf7hEQcj2ZY9Cv9j52yzcfAy76RCWIfbH2nWHJJU4BzHUG2s9zxq8TvvuF571lKHMfJ1wpscmu24xEmCnZW4cPxx8GKswa9VQDQSYlv8EAnpg_Y8LhuJ4Wbh4FCkdJZHqk5YmJGka88OZxlntBNATS5dfyJKdGwOs78W8m8KxGmrO8kFtfb8t-JQgShB5IaBiP7X1V-bFpgLrNwgKzH_kSpSgY4seeXJqWvo8k6kgBXfXvN9R-MyZGP2T9j8MIIux7BC6SOzSfVltJHh_fd5XBSRrwcEMI4Qp9xtUwAQ90i5u_NPLp2XP_vijJNfcdZzxrBZ5XUdgA2ePgeaNsBKXFuGFAULU2olLpn2ONV2g14O7-dnJei3A_VvaKfEC7vja7wTELBiRmIqJKsl8bUMgu2mtDoNGjeAtS0ZcGmyNqUau5NXXkC8MJgcvKEsWgL4vGPAh7qdyomkNcP06x5eK3OdYKCr1t6RcpmTWuK2A-cqlEfUMNtmIlEq-RUojbZjemdhAdH3uPOYmFVzJUpQN4K7xT3CdO6Q-UfNLlf4fBrvX5Tag7r_k0INX-MdXvnjWy87bNN1TRucf5lRWjulUiTYaiW3yZEPq6J7YqesntvDXE7dxaq_S1kO25_H9lPnbQvfDXMIch_wKnBctiexH2HOHx5EA-ATL8hw_6aQkOwk4IAMhyxUj6BVH8dcY8a6_a-WcD2F-pwzS5QagdIfPg7sAmlVh29aDzOmWYV_vIXmmb45PdUG_Mz1yFn6aoQbfIy8_Bea0GquKl2idVtjSfIovrGcLeRSRcFQ1ZcEadbJxrCmrGeVOvmBX_rHceAxzSZEPHVVkIxIFjF_reVIRcnhaFa4GmovoVDbwUOsgi5xehyIHm8-gqIVUNZjCt6yc8sxAEnNQ1_FN8aDeSckBsTDu09St1IUW9evLtzfqDk5p0wCoVady-kssP8VsHUBw1SvCD9SDRDshqSDi8wkgpRjDWRDDP5hmA-3Mbsei17Ya7uNypn-wCTyxvFhIAgFD6yoHWFx59XmB17gEZQ8j4f0sfUjhPI9oEWZy66VfipmR81jK4nfjXtgDuZRYHPAyrmVWwsaZrNcp94KF3efabHoXsDUFRXBAYJHW2WGEks5MfddRMoQ0VQ9oK1h-eG_CWv9pm_E2JU12-YPUW8l49AtriflGZ0h2qq9jHnVPVWvh8cOZqQQoReMJhNDWZC2aFbFEsrtEbeVAj57cEaLtKlALDJFChmk-a5JgVjkaZLF2xjy1HY39FdHA_ldQ76zj42XTSqiATyD1FJLsBTudyrdXT4cqPS9dn9TI6q0Vct6W5tlQ60J5QxLLDgA5VmmHMr_prqll20ki9UOgzXIyREbANqIUM1eZNc2V0MEb06u8tYoO9yXGMdaHAAgnBsAGnAhPKGOBHT8yrS9MeLbPSdXib6CdjkKxjppsRc8xzs_Z1-8_67pRzkgCR0yxYbu3TkNx2kcAHQ<table><tr><td style="font-weight:bold;vertical-align:top;">comment</td><td style="vertical-align:top;">:</td><td><div></div></td></tr><tr><td style="font-weight:bold;vertical-align:top;">domain</td><td style="vertical-align:top;">:</td><td><div></div></td></tr><tr><td style="font-weight:bold;vertical-align:top;">expires</td><td style="vertical-align:top;">:</td><td><div></div></td></tr><tr><td style="font-weight:bold;vertical-align:top;">httponly</td><td style="vertical-align:top;">:</td><td><div></div></td></tr><tr><td style="font-weight:bold;vertical-align:top;">max-age</td><td style="vertical-align:top;">:</td><td><div></div></td></tr><tr><td style="font-weight:bold;vertical-align:top;">path</td><td style="vertical-align:top;">:</td><td><div></div></td></tr><tr><td style="font-weight:bold;vertical-align:top;">secure</td><td style="vertical-align:top;">:</td><td><div></div></td></tr><tr><td style="font-weight:bold;vertical-align:top;">version</td><td style="vertical-align:top;">:</td><td><div></div></td></tr></table></div></td></tr><tr><td style="font-weight:bold;vertical-align:top;">session_id_admin</td><td style="vertical-align:top;">:</td><td><div>127.0.0.1-5e4d5587-8e46-4ab9-bda4-cde90ee24cff<table><tr><td style="font-weight:bold;vertical-align:top;">comment</td><td style="vertical-align:top;">:</td><td><div></div></td></tr><tr><td style="font-weight:bold;vertical-align:top;">domain</td><td style="vertical-align:top;">:</td><td><div></div></td></tr><tr><td style="font-weight:bold;vertical-align:top;">expires</td><td style="vertical-align:top;">:</td><td><div></div></td></tr><tr><td style="font-weight:bold;vertical-align:top;">httponly</td><td style="vertical-align:top;">:</td><td><div></div></td></tr><tr><td style="font-weight:bold;vertical-align:top;">max-age</td><td style="vertical-align:top;">:</td><td><div></div></td></tr><tr><td style="font-weight:bold;vertical-align:top;">path</td><td style="vertical-align:top;">:</td><td><div></div></td></tr><tr><td style="font-weight:bold;vertical-align:top;">secure</td><td style="vertical-align:top;">:</td><td><div></div></td></tr><tr><td style="font-weight:bold;vertical-align:top;">version</td><td style="vertical-align:top;">:</td><td><div></div></td></tr></table></div></td></tr><tr><td style="font-weight:bold;vertical-align:top;">session_id_hackathon</td><td style="vertical-align:top;">:</td><td><div>127.0.0.1-e9d19e57-2c82-4246-95e2-3afb87897355<table><tr><td style="font-weight:bold;vertical-align:top;">comment</td><td style="vertical-align:top;">:</td><td><div></div></td></tr><tr><td style="font-weight:bold;vertical-align:top;">domain</td><td style="vertical-align:top;">:</td><td><div></div></td></tr><tr><td style="font-weight:bold;vertical-align:top;">expires</td><td style="vertical-align:top;">:</td><td><div></div></td></tr><tr><td style="font-weight:bold;vertical-align:top;">httponly</td><td style="vertical-align:top;">:</td><td><div></div></td></tr><tr><td style="font-weight:bold;vertical-align:top;">max-age</td><td style="vertical-align:top;">:</td><td><div></div></td></tr><tr><td style="font-weight:bold;vertical-align:top;">path</td><td style="vertical-align:top;">:</td><td><div></div></td></tr><tr><td style="font-weight:bold;vertical-align:top;">secure</td><td style="vertical-align:top;">:</td><td><div></div></td></tr><tr><td style="font-weight:bold;vertical-align:top;">version</td><td style="vertical-align:top;">:</td><td><div></div></td></tr></table></div></td></tr><tr><td style="font-weight:bold;vertical-align:top;">session_id_hw</td><td style="vertical-align:top;">:</td><td><div>127.0.0.1-23223d0c-fdad-4421-b0fa-bfb22452a98b<table><tr><td style="font-weight:bold;vertical-align:top;">comment</td><td style="vertical-align:top;">:</td><td><div></div></td></tr><tr><td style="font-weight:bold;vertical-align:top;">domain</td><td style="vertical-align:top;">:</td><td><div></div></td></tr><tr><td style="font-weight:bold;vertical-align:top;">expires</td><td style="vertical-align:top;">:</td><td><div></div></td></tr><tr><td style="font-weight:bold;vertical-align:top;">httponly</td><td style="vertical-align:top;">:</td><td><div></div></td></tr><tr><td style="font-weight:bold;vertical-align:top;">max-age</td><td style="vertical-align:top;">:</td><td><div></div></td></tr><tr><td style="font-weight:bold;vertical-align:top;">path</td><td style="vertical-align:top;">:</td><td><div></div></td></tr><tr><td style="font-weight:bold;vertical-align:top;">secure</td><td style="vertical-align:top;">:</td><td><div></div></td></tr><tr><td style="font-weight:bold;vertical-align:top;">version</td><td style="vertical-align:top;">:</td><td><div></div></td></tr></table></div></td></tr><tr><td style="font-weight:bold;vertical-align:top;">session_id_layouttest</td><td style="vertical-align:top;">:</td><td><div>127.0.0.1-9dd550cb-7d25-4599-add6-bbf406414416<table><tr><td style="font-weight:bold;vertical-align:top;">comment</td><td style="vertical-align:top;">:</td><td><div></div></td></tr><tr><td style="font-weight:bold;vertical-align:top;">domain</td><td style="vertical-align:top;">:</td><td><div></div></td></tr><tr><td style="font-weight:bold;vertical-align:top;">expires</td><td style="vertical-align:top;">:</td><td><div></div></td></tr><tr><td style="font-weight:bold;vertical-align:top;">httponly</td><td style="vertical-align:top;">:</td><td><div></div></td></tr><tr><td style="font-weight:bold;vertical-align:top;">max-age</td><td style="vertical-align:top;">:</td><td><div></div></td></tr><tr><td style="font-weight:bold;vertical-align:top;">path</td><td style="vertical-align:top;">:</td><td><div></div></td></tr><tr><td style="font-weight:bold;vertical-align:top;">secure</td><td style="vertical-align:top;">:</td><td><div></div></td></tr><tr><td style="font-weight:bold;vertical-align:top;">version</td><td style="vertical-align:top;">:</td><td><div></div></td></tr></table></div></td></tr><tr><td style="font-weight:bold;vertical-align:top;">session_id_ourhours</td><td style="vertical-align:top;">:</td><td><div>True<table><tr><td style="font-weight:bold;vertical-align:top;">comment</td><td style="vertical-align:top;">:</td><td><div></div></td></tr><tr><td style="font-weight:bold;vertical-align:top;">domain</td><td style="vertical-align:top;">:</td><td><div></div></td></tr><tr><td style="font-weight:bold;vertical-align:top;">expires</td><td style="vertical-align:top;">:</td><td><div></div></td></tr><tr><td style="font-weight:bold;vertical-align:top;">httponly</td><td style="vertical-align:top;">:</td><td><div></div></td></tr><tr><td style="font-weight:bold;vertical-align:top;">max-age</td><td style="vertical-align:top;">:</td><td><div></div></td></tr><tr><td style="font-weight:bold;vertical-align:top;">path</td><td style="vertical-align:top;">:</td><td><div></div></td></tr><tr><td style="font-weight:bold;vertical-align:top;">secure</td><td style="vertical-align:top;">:</td><td><div></div></td></tr><tr><td style="font-weight:bold;vertical-align:top;">version</td><td style="vertical-align:top;">:</td><td><div></div></td></tr></table></div></td></tr><tr><td style="font-weight:bold;vertical-align:top;">session_id_welcome</td><td style="vertical-align:top;">:</td><td><div>127.0.0.1-3404b542-72e6-426d-9bd7-f225ed0f1803<table><tr><td style="font-weight:bold;vertical-align:top;">comment</td><td style="vertical-align:top;">:</td><td><div></div></td></tr><tr><td style="font-weight:bold;vertical-align:top;">domain</td><td style="vertical-align:top;">:</td><td><div></div></td></tr><tr><td style="font-weight:bold;vertical-align:top;">expires</td><td style="vertical-align:top;">:</td><td><div></div></td></tr><tr><td style="font-weight:bold;vertical-align:top;">httponly</td><td style="vertical-align:top;">:</td><td><div></div></td></tr><tr><td style="font-weight:bold;vertical-align:top;">max-age</td><td style="vertical-align:top;">:</td><td><div></div></td></tr><tr><td style="font-weight:bold;vertical-align:top;">path</td><td style="vertical-align:top;">:</td><td><div></div></td></tr><tr><td style="font-weight:bold;vertical-align:top;">secure</td><td style="vertical-align:top;">:</td><td><div></div></td></tr><tr><td style="font-weight:bold;vertical-align:top;">version</td><td style="vertical-align:top;">:</td><td><div></div></td></tr></table></div></td></tr></table></div></td></tr><tr><td style="font-weight:bold;vertical-align:top;">env</td><td style="vertical-align:top;">:</td><td><div><table><tr><td style="font-weight:bold;vertical-align:top;">HTTP_ACCEPT</td><td style="vertical-align:top;">:</td><td><div>text/html,application/xhtml+xml,application/xml;q=0.9,image/webp,*/*;q=0.8</div></td></tr><tr><td style="font-weight:bold;vertical-align:top;">HTTP_ACCEPT_ENCODING</td><td style="vertical-align:top;">:</td><td><div>gzip, deflate, sdch, br</div></td></tr><tr><td style="font-weight:bold;vertical-align:top;">HTTP_ACCEPT_LANGUAGE</td><td style="vertical-align:top;">:</td><td><div>en-US,en;q=0.8</div></td></tr><tr><td style="font-weight:bold;vertical-align:top;">HTTP_CACHE_CONTROL</td><td style="vertical-align:top;">:</td><td><div>max-age=0</div></td></tr><tr><td style="font-weight:bold;vertical-align:top;">HTTP_CONNECTION</td><td style="vertical-align:top;">:</td><td><div>keep-alive</div></td></tr><tr><td style="font-weight:bold;vertical-align:top;">HTTP_COOKIE</td><td style="vertical-align:top;">:</td><td><div>session_id_layouttest=127.0.0.1-9dd550cb-7d25-4599-add6-bbf406414416; resolution=1349; session_id_hackathon=127.0.0.1-e9d19e57-2c82-4246-95e2-3afb87897355; session_id_hw=127.0.0.1-23223d0c-fdad-4421-b0fa-bfb22452a98b; session_id_welcome=127.0.0.1-3404b542-72e6-426d-9bd7-f225ed0f1803; session_id_admin=127.0.0.1-5e4d5587-8e46-4ab9-bda4-cde90ee24cff; session_data_ourhours=&quot;8236467e94dc0db139dfd40d87d3b788:8vAaRz5JdXWIwFkSFigWVGwVNVhSZnOzCWjF1VHBsc5jwOs71gECUS9IFBvJiv0LojViAFLFEDLtiujpjVUXogXp1rhtrIleAuT4jAuEyzXycZkL3HoNiJnWcgcUs6XAseodL-VeNhdcfF15dRA3uAD6ohnPuFs-WWyD3eFeuSfb4q7OSpXTXsJKliVQvIWzp5OaJjPg0VNCaGmshkVXHvd1VYuZhjHxLVpgZEgjy4irkS1S3vxrIx70iSmkx2Tjmc_LurFrNN4j7MaWWJ_2UkI6e0rgmsIMZtUeGTQBTeyQ2aLBpVfsMcHPoXqrZWzGQNbAKTmU7iGF-w_3y5CJay3l60gd9XkXMwjDwJ6HacyYidebmD2PJydfll0LxYGSnXSTN-Chng5Ct8dGTjHR4JLMLQ_va632cSK21Ewy0v3dUhdSFdjUsm6dNqysCqMP2JqvozqFKiVd4g7pme0sn2xQWX-OWPN6pwJ_TIRstwtGVIM-0oMPsTf7hEQcj2ZY9Cv9j52yzcfAy76RCWIfbH2nWHJJU4BzHUG2s9zxq8TvvuF571lKHMfJ1wpscmu24xEmCnZW4cPxx8GKswa9VQDQSYlv8EAnpg_Y8LhuJ4Wbh4FCkdJZHqk5YmJGka88OZxlntBNATS5dfyJKdGwOs78W8m8KxGmrO8kFtfb8t-JQgShB5IaBiP7X1V-bFpgLrNwgKzH_kSpSgY4seeXJqWvo8k6kgBXfXvN9R-MyZGP2T9j8MIIux7BC6SOzSfVltJHh_fd5XBSRrwcEMI4Qp9xtUwAQ90i5u_NPLp2XP_vijJNfcdZzxrBZ5XUdgA2ePgeaNsBKXFuGFAULU2olLpn2ONV2g14O7-dnJei3A_VvaKfEC7vja7wTELBiRmIqJKsl8bUMgu2mtDoNGjeAtS0ZcGmyNqUau5NXXkC8MJgcvKEsWgL4vGPAh7qdyomkNcP06x5eK3OdYKCr1t6RcpmTWuK2A-cqlEfUMNtmIlEq-RUojbZjemdhAdH3uPOYmFVzJUpQN4K7xT3CdO6Q-UfNLlf4fBrvX5Tag7r_k0INX-MdXvnjWy87bNN1TRucf5lRWjulUiTYaiW3yZEPq6J7YqesntvDXE7dxaq_S1kO25_H9lPnbQvfDXMIch_wKnBctiexH2HOHx5EA-ATL8hw_6aQkOwk4IAMhyxUj6BVH8dcY8a6_a-WcD2F-pwzS5QagdIfPg7sAmlVh29aDzOmWYV_vIXmmb45PdUG_Mz1yFn6aoQbfIy8_Bea0GquKl2idVtjSfIovrGcLeRSRcFQ1ZcEadbJxrCmrGeVOvmBX_rHceAxzSZEPHVVkIxIFjF_reVIRcnhaFa4GmovoVDbwUOsgi5xehyIHm8-gqIVUNZjCt6yc8sxAEnNQ1_FN8aDeSckBsTDu09St1IUW9evLtzfqDk5p0wCoVady-kssP8VsHUBw1SvCD9SDRDshqSDi8wkgpRjDWRDDP5hmA-3Mbsei17Ya7uNypn-wCTyxvFhIAgFD6yoHWFx59XmB17gEZQ8j4f0sfUjhPI9oEWZy66VfipmR81jK4nfjXtgDuZRYHPAyrmVWwsaZrNcp94KF3efabHoXsDUFRXBAYJHW2WGEks5MfddRMoQ0VQ9oK1h-eG_CWv9pm_E2JU12-YPUW8l49AtriflGZ0h2qq9jHnVPVWvh8cOZqQQoReMJhNDWZC2aFbFEsrtEbeVAj57cEaLtKlALDJFChmk-a5JgVjkaZLF2xjy1HY39FdHA_ldQ76zj42XTSqiATyD1FJLsBTudyrdXT4cqPS9dn9TI6q0Vct6W5tlQ60J5QxLLDgA5VmmHMr_prqll20ki9UOgzXIyREbANqIUM1eZNc2V0MEb06u8tYoO9yXGMdaHAAgnBsAGnAhPKGOBHT8yrS9MeLbPSdXib6CdjkKxjppsRc8xzs_Z1-8_67pRzkgCR0yxYbu3TkNx2kcAHQ&quot;; session_id_ourhours=True</div></td></tr><tr><td style="font-weight:bold;vertical-align:top;">HTTP_HOST</td><td style="vertical-align:top;">:</td><td><div>127.0.0.1:8000</div></td></tr><tr><td style="font-weight:bold;vertical-align:top;">HTTP_REFERER</td><td style="vertical-align:top;">:</td><td><div>http://127.0.0.1:8000/ourhours/default/event_page/15</div></td></tr><tr><td style="font-weight:bold;vertical-align:top;">HTTP_UPGRADE_INSECURE_REQUESTS</td><td style="vertical-align:top;">:</td><td><div>1</div></td></tr><tr><td style="font-weight:bold;vertical-align:top;">HTTP_USER_AGENT</td><td style="vertical-align:top;">:</td><td><div>Mozilla/5.0 (Windows NT 10.0; Win64; x64) AppleWebKit/537.36 (KHTML, like Gecko) Chrome/55.0.2883.87 Safari/537.36</div></td></tr><tr><td style="font-weight:bold;vertical-align:top;">PATH_INFO</td><td style="vertical-align:top;">:</td><td><div>/ourhours/default/event_page/15</div></td></tr><tr><td style="font-weight:bold;vertical-align:top;">QUERY_STRING</td><td style="vertical-align:top;">:</td><td><div></div></td></tr><tr><td style="font-weight:bold;vertical-align:top;">REMOTE_ADDR</td><td style="vertical-align:top;">:</td><td><div>127.0.0.1</div></td></tr><tr><td style="font-weight:bold;vertical-align:top;">REMOTE_PORT</td><td style="vertical-align:top;">:</td><td><div>58522</div></td></tr><tr><td style="font-weight:bold;vertical-align:top;">REQUEST_METHOD</td><td style="vertical-align:top;">:</td><td><div>GET</div></td></tr><tr><td style="font-weight:bold;vertical-align:top;">SCRIPT_NAME</td><td style="vertical-align:top;">:</td><td><div></div></td></tr><tr><td style="font-weight:bold;vertical-align:top;">SERVER_NAME</td><td style="vertical-align:top;">:</td><td><div>DESKTOP-GDD7DCK</div></td></tr><tr><td style="font-weight:bold;vertical-align:top;">SERVER_PORT</td><td style="vertical-align:top;">:</td><td><div>8000</div></td></tr><tr><td style="font-weight:bold;vertical-align:top;">SERVER_PROTOCOL</td><td style="vertical-align:top;">:</td><td><div>HTTP/1.1</div></td></tr><tr><td style="font-weight:bold;vertical-align:top;">SERVER_SOFTWARE</td><td style="vertical-align:top;">:</td><td><div>Rocket 1.2.6</div></td></tr><tr><td style="font-weight:bold;vertical-align:top;">app_folders</td><td style="vertical-align:top;">:</td><td><div>set([&#x27;C:\\\\Users\\\\Wesly\\\\Desktop\\\\UCSC-Hack-2017\\\\applications\\\\welcome\\\\&#x27;, &#x27;C:\\\\Users\\\\Wesly\\\\Desktop\\\\UCSC-Hack-2017\\\\applications\\\\examples\\\\&#x27;, &#x27;C:\\\\Users\\\\Wesly\\\\Desktop\\\\UCSC-Hack-2017\\\\applications\\\\ourhours\\\\&#x27;, &#x27;C:\\\\Users\\\\Wesly\\\\Desktop\\\\UCSC-Hack-2017\\\\applications\\\\admin\\\\&#x27;])</div></td></tr><tr><td style="font-weight:bold;vertical-align:top;">applications_parent</td><td style="vertical-align:top;">:</td><td><div>C:\\Users\\Wesly\\Desktop\\UCSC-Hack-2017</div></td></tr><tr><td style="font-weight:bold;vertical-align:top;">cmd_args</td><td style="vertical-align:top;">:</td><td><div><table></table></div></td></tr><tr><td style="font-weight:bold;vertical-align:top;">cmd_options</td><td style="vertical-align:top;">:</td><td><div>&lt;Values at 0x2ddaeb8: {&#x27;verbose&#x27;: False, &#x27;ip&#x27;: &#x27;127.0.0.1&#x27;, &#x27;debuglevel&#x27;: 30, &#x27;with_scheduler&#x27;: False, &#x27;shutdown_timeout&#x27;: 5, &#x27;taskbar&#x27;: False, &#x27;with_coverage&#x27;: False, &#x27;pid_filename&#x27;: &#x27;httpserver.pid&#x27;, &#x27;maxthreads&#x27;: None, &#x27;softcron&#x27;: False, &#x27;server_name&#x27;: &#x27;DESKTOP-GDD7DCK&#x27;, &#x27;bpython&#x27;: False, &#x27;nogui&#x27;: False, &#x27;port&#x27;: 8000, &#x27;print_errors&#x27;: False, &#x27;extcron&#x27;: False, &#x27;runcron&#x27;: False, &#x27;run_system_tests&#x27;: False, &#x27;test&#x27;: None, &#x27;folder&#x27;: &#x27;C:\\\\Users\\\\Wesly\\\\Desktop\\\\UCSC-Hack-2017&#x27;, &#x27;config&#x27;: &#x27;&#x27;, &#x27;minthreads&#x27;: None, &#x27;shell&#x27;: None, &#x27;run&#x27;: &#x27;&#x27;, &#x27;log_filename&#x27;: &#x27;httpserver.log&#x27;, &#x27;profiler_dir&#x27;: None, &#x27;args&#x27;: [&#x27;&#x27;], &#x27;socket_timeout&#x27;: 5, &#x27;ssl_ca_certificate&#x27;: None, &#x27;scheduler&#x27;: None, &#x27;interfaces&#x27;: None, &#x27;ssl_private_key&#x27;: &#x27;&#x27;, &#x27;gae&#x27;: None, &#x27;password&#x27;: &#x27;******&#x27;, &#x27;request_queue_size&#x27;: 5, &#x27;ssl_certificate&#x27;: &#x27;&#x27;, &#x27;cronjob&#x27;: False, &#x27;numthreads&#x27;: None, &#x27;quiet&#x27;: False, &#x27;import_models&#x27;: False, &#x27;timeout&#x27;: 10, &#x27;plain&#x27;: False, &#x27;nobanner&#x27;: False}&gt;</div></td></tr><tr><td style="font-weight:bold;vertical-align:top;">db_sessions</td><td style="vertical-align:top;">:</td><td><div>set([])</div></td></tr><tr><td style="font-weight:bold;vertical-align:top;">debugging</td><td style="vertical-align:top;">:</td><td><div>True</div></td></tr><tr><td style="font-weight:bold;vertical-align:top;">gluon_parent</td><td style="vertical-align:top;">:</td><td><div>C:\\Users\\Wesly\\Desktop\\UCSC-Hack-2017</div></td></tr><tr><td style="font-weight:bold;vertical-align:top;">http_accept</td><td style="vertical-align:top;">:</td><td><div>text/html,application/xhtml+xml,application/xml;q=0.9,image/webp,*/*;q=0.8</div></td></tr><tr><td style="font-weight:bold;vertical-align:top;">http_accept_encoding</td><td style="vertical-align:top;">:</td><td><div>gzip, deflate, sdch, br</div></td></tr><tr><td style="font-weight:bold;vertical-align:top;">http_accept_language</td><td style="vertical-align:top;">:</td><td><div>en-US,en;q=0.8</div></td></tr><tr><td style="font-weight:bold;vertical-align:top;">http_cache_control</td><td style="vertical-align:top;">:</td><td><div>max-age=0</div></td></tr><tr><td style="font-weight:bold;vertical-align:top;">http_connection</td><td style="vertical-align:top;">:</td><td><div>keep-alive</div></td></tr><tr><td style="font-weight:bold;vertical-align:top;">http_cookie</td><td style="vertical-align:top;">:</td><td><div>session_id_layouttest=127.0.0.1-9dd550cb-7d25-4599-add6-bbf406414416; resolution=1349; session_id_hackathon=127.0.0.1-e9d19e57-2c82-4246-95e2-3afb87897355; session_id_hw=127.0.0.1-23223d0c-fdad-4421-b0fa-bfb22452a98b; session_id_welcome=127.0.0.1-3404b542-72e6-426d-9bd7-f225ed0f1803; session_id_admin=127.0.0.1-5e4d5587-8e46-4ab9-bda4-cde90ee24cff; session_data_ourhours=&quot;8236467e94dc0db139dfd40d87d3b788:8vAaRz5JdXWIwFkSFigWVGwVNVhSZnOzCWjF1VHBsc5jwOs71gECUS9IFBvJiv0LojViAFLFEDLtiujpjVUXogXp1rhtrIleAuT4jAuEyzXycZkL3HoNiJnWcgcUs6XAseodL-VeNhdcfF15dRA3uAD6ohnPuFs-WWyD3eFeuSfb4q7OSpXTXsJKliVQvIWzp5OaJjPg0VNCaGmshkVXHvd1VYuZhjHxLVpgZEgjy4irkS1S3vxrIx70iSmkx2Tjmc_LurFrNN4j7MaWWJ_2UkI6e0rgmsIMZtUeGTQBTeyQ2aLBpVfsMcHPoXqrZWzGQNbAKTmU7iGF-w_3y5CJay3l60gd9XkXMwjDwJ6HacyYidebmD2PJydfll0LxYGSnXSTN-Chng5Ct8dGTjHR4JLMLQ_va632cSK21Ewy0v3dUhdSFdjUsm6dNqysCqMP2JqvozqFKiVd4g7pme0sn2xQWX-OWPN6pwJ_TIRstwtGVIM-0oMPsTf7hEQcj2ZY9Cv9j52yzcfAy76RCWIfbH2nWHJJU4BzHUG2s9zxq8TvvuF571lKHMfJ1wpscmu24xEmCnZW4cPxx8GKswa9VQDQSYlv8EAnpg_Y8LhuJ4Wbh4FCkdJZHqk5YmJGka88OZxlntBNATS5dfyJKdGwOs78W8m8KxGmrO8kFtfb8t-JQgShB5IaBiP7X1V-bFpgLrNwgKzH_kSpSgY4seeXJqWvo8k6kgBXfXvN9R-MyZGP2T9j8MIIux7BC6SOzSfVltJHh_fd5XBSRrwcEMI4Qp9xtUwAQ90i5u_NPLp2XP_vijJNfcdZzxrBZ5XUdgA2ePgeaNsBKXFuGFAULU2olLpn2ONV2g14O7-dnJei3A_VvaKfEC7vja7wTELBiRmIqJKsl8bUMgu2mtDoNGjeAtS0ZcGmyNqUau5NXXkC8MJgcvKEsWgL4vGPAh7qdyomkNcP06x5eK3OdYKCr1t6RcpmTWuK2A-cqlEfUMNtmIlEq-RUojbZjemdhAdH3uPOYmFVzJUpQN4K7xT3CdO6Q-UfNLlf4fBrvX5Tag7r_k0INX-MdXvnjWy87bNN1TRucf5lRWjulUiTYaiW3yZEPq6J7YqesntvDXE7dxaq_S1kO25_H9lPnbQvfDXMIch_wKnBctiexH2HOHx5EA-ATL8hw_6aQkOwk4IAMhyxUj6BVH8dcY8a6_a-WcD2F-pwzS5QagdIfPg7sAmlVh29aDzOmWYV_vIXmmb45PdUG_Mz1yFn6aoQbfIy8_Bea0GquKl2idVtjSfIovrGcLeRSRcFQ1ZcEadbJxrCmrGeVOvmBX_rHceAxzSZEPHVVkIxIFjF_reVIRcnhaFa4GmovoVDbwUOsgi5xehyIHm8-gqIVUNZjCt6yc8sxAEnNQ1_FN8aDeSckBsTDu09St1IUW9evLtzfqDk5p0wCoVady-kssP8VsHUBw1SvCD9SDRDshqSDi8wkgpRjDWRDDP5hmA-3Mbsei17Ya7uNypn-wCTyxvFhIAgFD6yoHWFx59XmB17gEZQ8j4f0sfUjhPI9oEWZy66VfipmR81jK4nfjXtgDuZRYHPAyrmVWwsaZrNcp94KF3efabHoXsDUFRXBAYJHW2WGEks5MfddRMoQ0VQ9oK1h-eG_CWv9pm_E2JU12-YPUW8l49AtriflGZ0h2qq9jHnVPVWvh8cOZqQQoReMJhNDWZC2aFbFEsrtEbeVAj57cEaLtKlALDJFChmk-a5JgVjkaZLF2xjy1HY39FdHA_ldQ76zj42XTSqiATyD1FJLsBTudyrdXT4cqPS9dn9TI6q0Vct6W5tlQ60J5QxLLDgA5VmmHMr_prqll20ki9UOgzXIyREbANqIUM1eZNc2V0MEb06u8tYoO9yXGMdaHAAgnBsAGnAhPKGOBHT8yrS9MeLbPSdXib6CdjkKxjppsRc8xzs_Z1-8_67pRzkgCR0yxYbu3TkNx2kcAHQ&quot;; session_id_ourhours=True</div></td></tr><tr><td style="font-weight:bold;vertical-align:top;">http_host</td><td style="vertical-align:top;">:</td><td><div>127.0.0.1:8000</div></td></tr><tr><td style="font-weight:bold;vertical-align:top;">http_referer</td><td style="vertical-align:top;">:</td><td><div>http://127.0.0.1:8000/ourhours/default/event_page/15</div></td></tr><tr><td style="font-weight:bold;vertical-align:top;">http_upgrade_insecure_requests</td><td style="vertical-align:top;">:</td><td><div>1</div></td></tr><tr><td style="font-weight:bold;vertical-align:top;">http_user_agent</td><td style="vertical-align:top;">:</td><td><div>Mozilla/5.0 (Windows NT 10.0; Win64; x64) AppleWebKit/537.36 (KHTML, like Gecko) Chrome/55.0.2883.87 Safari/537.36</div></td></tr><tr><td style="font-weight:bold;vertical-align:top;">is_jython</td><td style="vertical-align:top;">:</td><td><div>False</div></td></tr><tr><td style="font-weight:bold;vertical-align:top;">is_pypy</td><td style="vertical-align:top;">:</td><td><div>False</div></td></tr><tr><td style="font-weight:bold;vertical-align:top;">is_source</td><td style="vertical-align:top;">:</td><td><div>False</div></td></tr><tr><td style="font-weight:bold;vertical-align:top;">local_hosts</td><td style="vertical-align:top;">:</td><td><div><table><tr><td><div>fe80::81f2:e7ae:7efe:f1e7%23</div></td></tr><tr><td><div>DESKTOP-GDD7DCK</div></td></tr><tr><td><div>::ffff:127.0.0.1</div></td></tr><tr><td><div>::1</div></td></tr><tr><td><div>fe80::5efe:192.168.1.135%21</div></td></tr><tr><td><div>192.168.1.135</div></td></tr><tr><td><div>fe80::e941:c1cf:aca3:e27d%22</div></td></tr><tr><td><div>127.0.0.1</div></td></tr><tr><td><div>192.168.56.1</div></td></tr></table></div></td></tr><tr><td style="font-weight:bold;vertical-align:top;">path_info</td><td style="vertical-align:top;">:</td><td><div>/ourhours/default/event_page/15</div></td></tr><tr><td style="font-weight:bold;vertical-align:top;">query_string</td><td style="vertical-align:top;">:</td><td><div></div></td></tr><tr><td style="font-weight:bold;vertical-align:top;">remote_addr</td><td style="vertical-align:top;">:</td><td><div>127.0.0.1</div></td></tr><tr><td style="font-weight:bold;vertical-align:top;">remote_port</td><td style="vertical-align:top;">:</td><td><div>58522</div></td></tr><tr><td style="font-weight:bold;vertical-align:top;">request_method</td><td style="vertical-align:top;">:</td><td><div>GET</div></td></tr><tr><td style="font-weight:bold;vertical-align:top;">request_uri</td><td style="vertical-align:top;">:</td><td><div>/ourhours/default/event_page/15</div></td></tr><tr><td style="font-weight:bold;vertical-align:top;">script_name</td><td style="vertical-align:top;">:</td><td><div></div></td></tr><tr><td style="font-weight:bold;vertical-align:top;">server_name</td><td style="vertical-align:top;">:</td><td><div>DESKTOP-GDD7DCK</div></td></tr><tr><td style="font-weight:bold;vertical-align:top;">server_port</td><td style="vertical-align:top;">:</td><td><div>8000</div></td></tr><tr><td style="font-weight:bold;vertical-align:top;">server_protocol</td><td style="vertical-align:top;">:</td><td><div>HTTP/1.1</div></td></tr><tr><td style="font-weight:bold;vertical-align:top;">server_software</td><td style="vertical-align:top;">:</td><td><div>Rocket 1.2.6</div></td></tr><tr><td style="font-weight:bold;vertical-align:top;">web2py_path</td><td style="vertical-align:top;">:</td><td><div>C:\\Users\\Wesly\\Desktop\\UCSC-Hack-2017</div></td></tr><tr><td style="font-weight:bold;vertical-align:top;">web2py_version</td><td style="vertical-align:top;">:</td><td><div>2.14.6-stable+timestamp.2016.05.10.00.21.47</div></td></tr><tr><td style="font-weight:bold;vertical-align:top;">wsgi.errors</td><td style="vertical-align:top;">:</td><td><div>&lt;open file &#x27;&lt;stderr&gt;&#x27;, mode &#x27;w&#x27; at 0x0221D0D0&gt;</div></td></tr><tr><td style="font-weight:bold;vertical-align:top;">wsgi.file_wrapper</td><td style="vertical-align:top;">:</td><td><div>&lt;class wsgiref.util.FileWrapper at 0x0321F148&gt;</div></td></tr><tr><td style="font-weight:bold;vertical-align:top;">wsgi.input</td><td style="vertical-align:top;">:</td><td><div>&lt;socket._fileobject object at 0x084AE8F0&gt;</div></td></tr><tr><td style="font-weight:bold;vertical-align:top;">wsgi.multiprocess</td><td style="vertical-align:top;">:</td><td><div>False</div></td></tr><tr><td style="font-weight:bold;vertical-align:top;">wsgi.multithread</td><td style="vertical-align:top;">:</td><td><div>True</div></td></tr><tr><td style="font-weight:bold;vertical-align:top;">wsgi.run_once</td><td style="vertical-align:top;">:</td><td><div>False</div></td></tr><tr><td style="font-weight:bold;vertical-align:top;">wsgi.url_scheme</td><td style="vertical-align:top;">:</td><td><div>http</div></td></tr><tr><td style="font-weight:bold;vertical-align:top;">wsgi.version</td><td style="vertical-align:top;">:</td><td><div><table><tr><td><div>1</div></td></tr><tr><td><div>0</div></td></tr></table></div></td></tr><tr><td style="font-weight:bold;vertical-align:top;">wsgi_errors</td><td style="vertical-align:top;">:</td><td><div>&lt;open file &#x27;&lt;stderr&gt;&#x27;, mode &#x27;w&#x27; at 0x0221D0D0&gt;</div></td></tr><tr><td style="font-weight:bold;vertical-align:top;">wsgi_file_wrapper</td><td style="vertical-align:top;">:</td><td><div>&lt;class wsgiref.util.FileWrapper at 0x0321F148&gt;</div></td></tr><tr><td style="font-weight:bold;vertical-align:top;">wsgi_input</td><td style="vertical-align:top;">:</td><td><div>&lt;socket._fileobject object at 0x084AE8F0&gt;</div></td></tr><tr><td style="font-weight:bold;vertical-align:top;">wsgi_multiprocess</td><td style="vertical-align:top;">:</td><td><div>False</div></td></tr><tr><td style="font-weight:bold;vertical-align:top;">wsgi_multithread</td><td style="vertical-align:top;">:</td><td><div>True</div></td></tr><tr><td style="font-weight:bold;vertical-align:top;">wsgi_run_once</td><td style="vertical-align:top;">:</td><td><div>False</div></td></tr><tr><td style="font-weight:bold;vertical-align:top;">wsgi_url_scheme</td><td style="vertical-align:top;">:</td><td><div>http</div></td></tr><tr><td style="font-weight:bold;vertical-align:top;">wsgi_version</td><td style="vertical-align:top;">:</td><td><div><table><tr><td><div>1</div></td></tr><tr><td><div>0</div></td></tr></table></div></td></tr></table></div></td></tr><tr><td style="font-weight:bold;vertical-align:top;">extension</td><td style="vertical-align:top;">:</td><td><div>html</div></td></tr><tr><td style="font-weight:bold;vertical-align:top;">folder</td><td style="vertical-align:top;">:</td><td><div>C:\\Users\\Wesly\\Desktop\\UCSC-Hack-2017\\applications\\ourhours\\</div></td></tr><tr><td style="font-weight:bold;vertical-align:top;">function</td><td style="vertical-align:top;">:</td><td><div>event_page</div></td></tr><tr><td style="font-weight:bold;vertical-align:top;">global_settings</td><td style="vertical-align:top;">:</td><td><div><table><tr><td style="font-weight:bold;vertical-align:top;">app_folders</td><td style="vertical-align:top;">:</td><td><div>set([&#x27;C:\\\\Users\\\\Wesly\\\\Desktop\\\\UCSC-Hack-2017\\\\applications\\\\welcome\\\\&#x27;, &#x27;C:\\\\Users\\\\Wesly\\\\Desktop\\\\UCSC-Hack-2017\\\\applications\\\\examples\\\\&#x27;, &#x27;C:\\\\Users\\\\Wesly\\\\Desktop\\\\UCSC-Hack-2017\\\\applications\\\\ourhours\\\\&#x27;, &#x27;C:\\\\Users\\\\Wesly\\\\Desktop\\\\UCSC-Hack-2017\\\\applications\\\\admin\\\\&#x27;])</div></td></tr><tr><td style="font-weight:bold;vertical-align:top;">applications_parent</td><td style="vertical-align:top;">:</td><td><div>C:\\Users\\Wesly\\Desktop\\UCSC-Hack-2017</div></td></tr><tr><td style="font-weight:bold;vertical-align:top;">cmd_args</td><td style="vertical-align:top;">:</td><td><div><table></table></div></td></tr><tr><td style="font-weight:bold;vertical-align:top;">cmd_options</td><td style="vertical-align:top;">:</td><td><div>&lt;Values at 0x2ddaeb8: {&#x27;verbose&#x27;: False, &#x27;ip&#x27;: &#x27;127.0.0.1&#x27;, &#x27;debuglevel&#x27;: 30, &#x27;with_scheduler&#x27;: False, &#x27;shutdown_timeout&#x27;: 5, &#x27;taskbar&#x27;: False, &#x27;with_coverage&#x27;: False, &#x27;pid_filename&#x27;: &#x27;httpserver.pid&#x27;, &#x27;maxthreads&#x27;: None, &#x27;softcron&#x27;: False, &#x27;server_name&#x27;: &#x27;DESKTOP-GDD7DCK&#x27;, &#x27;bpython&#x27;: False, &#x27;nogui&#x27;: False, &#x27;port&#x27;: 8000, &#x27;print_errors&#x27;: False, &#x27;extcron&#x27;: False, &#x27;runcron&#x27;: False, &#x27;run_system_tests&#x27;: False, &#x27;test&#x27;: None, &#x27;folder&#x27;: &#x27;C:\\\\Users\\\\Wesly\\\\Desktop\\\\UCSC-Hack-2017&#x27;, &#x27;config&#x27;: &#x27;&#x27;, &#x27;minthreads&#x27;: None, &#x27;shell&#x27;: None, &#x27;run&#x27;: &#x27;&#x27;, &#x27;log_filename&#x27;: &#x27;httpserver.log&#x27;, &#x27;profiler_dir&#x27;: None, &#x27;args&#x27;: [&#x27;&#x27;], &#x27;socket_timeout&#x27;: 5, &#x27;ssl_ca_certificate&#x27;: None, &#x27;scheduler&#x27;: None, &#x27;interfaces&#x27;: None, &#x27;ssl_private_key&#x27;: &#x27;&#x27;, &#x27;gae&#x27;: None, &#x27;password&#x27;: &#x27;******&#x27;, &#x27;request_queue_size&#x27;: 5, &#x27;ssl_certificate&#x27;: &#x27;&#x27;, &#x27;cronjob&#x27;: False, &#x27;numthreads&#x27;: None, &#x27;quiet&#x27;: False, &#x27;import_models&#x27;: False, &#x27;timeout&#x27;: 10, &#x27;plain&#x27;: False, &#x27;nobanner&#x27;: False}&gt;</div></td></tr><tr><td style="font-weight:bold;vertical-align:top;">db_sessions</td><td style="vertical-align:top;">:</td><td><div>set([])</div></td></tr><tr><td style="font-weight:bold;vertical-align:top;">debugging</td><td style="vertical-align:top;">:</td><td><div>True</div></td></tr><tr><td style="font-weight:bold;vertical-align:top;">gluon_parent</td><td style="vertical-align:top;">:</td><td><div>C:\\Users\\Wesly\\Desktop\\UCSC-Hack-2017</div></td></tr><tr><td style="font-weight:bold;vertical-align:top;">is_jython</td><td style="vertical-align:top;">:</td><td><div>False</div></td></tr><tr><td style="font-weight:bold;vertical-align:top;">is_pypy</td><td style="vertical-align:top;">:</td><td><div>False</div></td></tr><tr><td style="font-weight:bold;vertical-align:top;">is_source</td><td style="vertical-align:top;">:</td><td><div>False</div></td></tr><tr><td style="font-weight:bold;vertical-align:top;">local_hosts</td><td style="vertical-align:top;">:</td><td><div><table><tr><td><div>fe80::81f2:e7ae:7efe:f1e7%23</div></td></tr><tr><td><div>DESKTOP-GDD7DCK</div></td></tr><tr><td><div>::ffff:127.0.0.1</div></td></tr><tr><td><div>::1</div></td></tr><tr><td><div>fe80::5efe:192.168.1.135%21</div></td></tr><tr><td><div>192.168.1.135</div></td></tr><tr><td><div>fe80::e941:c1cf:aca3:e27d%22</div></td></tr><tr><td><div>127.0.0.1</div></td></tr><tr><td><div>192.168.56.1</div></td></tr></table></div></td></tr><tr><td style="font-weight:bold;vertical-align:top;">web2py_version</td><td style="vertical-align:top;">:</td><td><div>2.14.6-stable+timestamp.2016.05.10.00.21.47</div></td></tr></table></div></td></tr><tr><td style="font-weight:bold;vertical-align:top;">is_https</td><td style="vertical-align:top;">:</td><td><div>False</div></td></tr><tr><td style="font-weight:bold;vertical-align:top;">is_local</td><td style="vertical-align:top;">:</td><td><div>True</div></td></tr><tr><td style="font-weight:bold;vertical-align:top;">is_restful</td><td style="vertical-align:top;">:</td><td><div>False</div></td></tr><tr><td style="font-weight:bold;vertical-align:top;">is_scheduler</td><td style="vertical-align:top;">:</td><td><div>False</div></td></tr><tr><td style="font-weight:bold;vertical-align:top;">is_shell</td><td style="vertical-align:top;">:</td><td><div>False</div></td></tr><tr><td style="font-weight:bold;vertical-align:top;">now</td><td style="vertical-align:top;">:</td><td><div>datetime.datetime(2017, 1, 21, 16, 13, 22, 219000)</div></td></tr><tr><td style="font-weight:bold;vertical-align:top;">raw_args</td><td style="vertical-align:top;">:</td><td><div>15</div></td></tr><tr><td style="font-weight:bold;vertical-align:top;">raw_extension</td><td style="vertical-align:top;">:</td><td><div>None</div></td></tr><tr><td style="font-weight:bold;vertical-align:top;">url</td><td style="vertical-align:top;">:</td><td><div>/ourhours/default/event_page/15</div></td></tr><tr><td style="font-weight:bold;vertical-align:top;">utcnow</td><td style="vertical-align:top;">:</td><td><div>datetime.datetime(2017, 1, 22, 0, 13, 22, 219000)</div></td></tr><tr><td style="font-weight:bold;vertical-align:top;">wsgi</td><td style="vertical-align:top;">:</td><td><div>&lt;gluon.main.LazyWSGI object at 0x07F36B90&gt;</div></td></tr></table></div>'
tRp58
sS'frames'
p59
(lp60
(dp61
S'file'
p62
S'C:\\Users\\Wesly\\Desktop\\UCSC-Hack-2017\\gluon\\restricted.py'
p63
sS'dump'
p64
(dp65
S'environment'
p66
S"{'A': <class 'gluon.html.A'>, 'ANY_OF': <class 'gluon.validators.ANY_OF'>, 'ASSIGNJS': <function ASSIGNJS>, 'Auth': <class 'gluon.tools.Auth'>, 'B': <class 'gluon.html.B'>, 'BEAUTIFY': <class 'gluon.html.BEAUTIFY'>, 'BODY': <class 'gluon.html.BODY'>, 'BR': <class 'gluon.html.BR'>, 'BUTTON': <class 'gluon.html.BUTTON'>, 'CAT': <class 'gluon.html.CAT'>, ...}"
p67
sS'ccode'
p68
S'<code object <module> at 086D4F50, file "C:\\User...\\ourhours\\views\\default/event_page.html", line 1>'
p69
ssS'lnum'
p70
I227
sS'lines'
p71
(dp72
I224
S'            ccode = code'
p73
sI225
S'        else:'
p74
sI226
S'            ccode = compile2(code, layer)'
p75
sI227
S'        exec ccode in environment'
p76
sI228
S'    except HTTP:'
p77
sI229
S'        raise'
p78
sI230
S'    except RestrictedError:'
p79
sI231
S'        # do not encapsulate (obfuscate) the original RestrictedError'
p80
sI222
S'    try:'
p81
sI223
S'        if isinstance(code, types.CodeType):'
p82
ssS'call'
p83
S'(code=\'response.write(\\\'\\\\r\\\\n<a href = "\\\', escape=False)\\n...n    </script>\\\\r\\\\n</body>\\\\r\\\\n\\\\r\\\\n\\\', escape=False)\', environment={\'A\': <class \'gluon.html.A\'>, \'ANY_OF\': <class \'gluon.validators.ANY_OF\'>, \'ASSIGNJS\': <function ASSIGNJS>, \'Auth\': <class \'gluon.tools.Auth\'>, \'B\': <class \'gluon.html.B\'>, \'BEAUTIFY\': <class \'gluon.html.BEAUTIFY\'>, \'BODY\': <class \'gluon.html.BODY\'>, \'BR\': <class \'gluon.html.BR\'>, \'BUTTON\': <class \'gluon.html.BUTTON\'>, \'CAT\': <class \'gluon.html.CAT\'>, ...}, layer=r\'C:\\Users\\Wesly\\Desktop\\UCSC-Hack-2017\\applications\\ourhours\\views\\default/event_page.html\')'
p84
sS'func'
p85
S'restricted'
p86
sa(dp87
g62
S'C:\\Users\\Wesly\\Desktop\\UCSC-Hack-2017\\applications\\ourhours\\views\\default\\event_page.html'
p88
sg64
(dp89
S'tr'
p90
S'undefined'
p91
ssg70
I14
sg71
(dp92
I5
S"    response.write('\\r\\n', escape=False)"
p93
sI6
S'    for event in event:'
p94
sI7
S'        response.write("\\r\\n    <tr>\\r\\n        <a href>\\r\\n            <td id=\'ev\'> ", escape=False)'
p95
sI8
S'        response.write(event.event_name)'
p96
sI9
S"        response.write('</td>\\r\\n        </a>\\r\\n        <br>\\r\\n    </tr>\\r\\n', escape=False)"
p97
sI10
S'        pass'
p98
sI11
S"    response.write('\\r\\n', escape=False)"
p99
sI12
S'    pass'
p100
sI13
S'response.write(\'\\r\\n\\r\\n<head>\\r\\n    <meta charset="utf-8" />\\r\\n    <meta name="viewport" content="width=device-width, initial-scale=1.0">\\r\\n    <title>Wesly\\\'s Phat Calendar</title>\\r\\n    <link href="https://maxcdn.bootstrapcdn.com/bootstrap/3.3.6/css/bootstrap.min.css" type="text/css" rel="stylesheet" />\\r\\n    <link href="https://cdnjs.cloudflare.com/ajax/libs/fullcalendar/2.6.1/fullcalendar.min.css" type="text/css" rel="stylesheet" />\\r\\n</head>\\r\\n<body>\\r\\n    <div class="container">\\r\\n        <div class="row">\\r\\n            <div class="col-xs-12">\\r\\n                <br />\\r\\n                <div id="bootstrapModalFullCalendar"></div>\\r\\n            </div>\\r\\n        </div>\\r\\n    </div>\\r\\n\\r\\n    <div id="fullCalModal" class="modal fade">\\r\\n        <div class="modal-dialog">\\r\\n            <div class="modal-content">\\r\\n                <div class="modal-header">\\r\\n                    <button type="button" class="close" data-dismiss="modal"><span aria-hidden="true">\\xc3\\x97</span> <span class="sr-only">close</span></button>\\r\\n                    <h4 id="modalTitle" class="modal-title"></h4>\\r\\n                </div>\\r\\n                <div id="modalBody" class="modal-body"></div>\\r\\n                <div class="modal-footer">\\r\\n                    <a class="btn btn-primary" id="eventUrl" target="_blank">Attending</a>\\r\\n                    <button type="button" class="btn btn-default" data-dismiss="modal">Close</button>\\r\\n                    \\r\\n                </div>\\r\\n            </div>\\r\\n        </div>\\r\\n    </div>\\r\\n\\r\\n    <script src="https://code.jquery.com/jquery.js"></script>\\r\\n    <script src="https://cdnjs.cloudflare.com/ajax/libs/moment.js/2.8.2/moment.min.js"></script>\\r\\n    <script src="https://cdnjs.cloudflare.com/ajax/libs/fullcalendar/2.6.1/fullcalendar.min.js"></script>\\r\\n    <script src="https://maxcdn.bootstrapcdn.com/bootstrap/3.3.6/js/bootstrap.min.js"></script>\\r\\n\\r\\n    <script>\\r\\n        $(document).ready(function() {\\r\\n            $(\\\'#bootstrapModalFullCalendar\\\').fullCalendar({\\r\\n                header: {\\r\\n                    left: \\\'today\\\',\\r\\n                    center: \\\'prev title next\\\',\\r\\n                    right: \\\'month agendaWeek agendaDay\\\'\\r\\n                },\\r\\n                eventClick:  function(event, jsEvent, view) {\\r\\n                    $(\\\'#modalTitle\\\').html(event.title);\\r\\n                    $(\\\'#modalBody\\\').html(event.description);\\r\\n                    $(\\\'#eventUrl\\\').attr(\\\'href\\\',event.url);\\r\\n                    $(\\\'#fullCalModal\\\').modal();\\r\\n                    return false;\\r\\n                },\\r\\n                \\r\\n                events:\\r\\n                [\\r\\n                   {\\r\\n                      "title":$("#\', escape=False)'
p101
sI14
S'response.write(event.event_name)'
p102
sI15
S'response.write(\'"),\\r\\n                      "allday":"false",\\r\\n                      "description":"<p>This is just a fake description for the Free Pizza.</p><p>Nothing to see!</p>",\\r\\n                      "start":moment().subtract(\\\'days\\\',14),\\r\\n                      "end":moment().subtract(\\\'days\\\',14),\\r\\n                      "url":"http://www.youtube.com/",\\r\\n                       backgroundColor: \\\'#f44842\\\'    \\r\\n                   }\\r\\n                ]\\r\\n                \\r\\n            });\\r\\n        });\\r\\n    </script>\\r\\n</body>\\r\\n\\r\\n\', escape=False)'
p103
ssg83
S'()'
p104
sg85
S'<module>'
p105
sasS'pyver'
p106
S'Python 2.7.9: C:\\Users\\Wesly\\Desktop\\UCSC-Hack-2017\\web2py.exe (prefix: )'
p107
sS'session'
p108
g57
(S's6\x01\x00\x00<div><table><tr><td style="font-weight:bold;vertical-align:top;">last_orderby</td><td style="vertical-align:top;">:</td><td><div>None</div></td></tr><tr><td style="font-weight:bold;vertical-align:top;">last_query</td><td style="vertical-align:top;">:</td><td><div>db.event.id&gt;0</div></td></tr></table></div>'
tRp109
sS'etype'
p110
S"<type 'exceptions.AttributeError'>"
p111
sS'date'
p112
S'Sat Jan 21 16:13:22 2017'
p113
sS'response'
p114
g57
(S's\xc1\x16\x00\x00<div><table><tr><td style="font-weight:bold;vertical-align:top;">body</td><td style="vertical-align:top;">:</td><td><div>&lt;cStringIO.StringO object at 0x08CF7480&gt;</div></td></tr><tr><td style="font-weight:bold;vertical-align:top;">cookies</td><td style="vertical-align:top;">:</td><td><div><table><tr><td style="font-weight:bold;vertical-align:top;">session_id_ourhours</td><td style="vertical-align:top;">:</td><td><div>127.0.0.1-d32f4d9c-b1e3-454d-b99e-d9a668cd9510<table><tr><td style="font-weight:bold;vertical-align:top;">comment</td><td style="vertical-align:top;">:</td><td><div></div></td></tr><tr><td style="font-weight:bold;vertical-align:top;">domain</td><td style="vertical-align:top;">:</td><td><div></div></td></tr><tr><td style="font-weight:bold;vertical-align:top;">expires</td><td style="vertical-align:top;">:</td><td><div></div></td></tr><tr><td style="font-weight:bold;vertical-align:top;">httponly</td><td style="vertical-align:top;">:</td><td><div></div></td></tr><tr><td style="font-weight:bold;vertical-align:top;">max-age</td><td style="vertical-align:top;">:</td><td><div></div></td></tr><tr><td style="font-weight:bold;vertical-align:top;">path</td><td style="vertical-align:top;">:</td><td><div>/</div></td></tr><tr><td style="font-weight:bold;vertical-align:top;">secure</td><td style="vertical-align:top;">:</td><td><div></div></td></tr><tr><td style="font-weight:bold;vertical-align:top;">version</td><td style="vertical-align:top;">:</td><td><div></div></td></tr></table></div></td></tr></table></div></td></tr><tr><td style="font-weight:bold;vertical-align:top;">delimiters</td><td style="vertical-align:top;">:</td><td><div><table><tr><td><div>{{</div></td></tr><tr><td><div>}}</div></td></tr></table></div></td></tr><tr><td style="font-weight:bold;vertical-align:top;">files</td><td style="vertical-align:top;">:</td><td><div><table></table></div></td></tr><tr><td style="font-weight:bold;vertical-align:top;">flash</td><td style="vertical-align:top;">:</td><td><div></div></td></tr><tr><td style="font-weight:bold;vertical-align:top;">form_label_separator</td><td style="vertical-align:top;">:</td><td><div>: </div></td></tr><tr><td style="font-weight:bold;vertical-align:top;">formstyle</td><td style="vertical-align:top;">:</td><td><div>table3cols</div></td></tr><tr><td style="font-weight:bold;vertical-align:top;">generic_patterns</td><td style="vertical-align:top;">:</td><td><div><table><tr><td><div>*</div></td></tr></table></div></td></tr><tr><td style="font-weight:bold;vertical-align:top;">headers</td><td style="vertical-align:top;">:</td><td><div><table><tr><td style="font-weight:bold;vertical-align:top;">X-Powered-By</td><td style="vertical-align:top;">:</td><td><div>web2py</div></td></tr></table></div></td></tr><tr><td style="font-weight:bold;vertical-align:top;">menu</td><td style="vertical-align:top;">:</td><td><div><table><tr><td><div><table><tr><td><div>Home</div></td></tr><tr><td><div>False</div></td></tr><tr><td><div>/ourhours/default/index</div></td></tr></table></div></td></tr></table></div></td></tr><tr><td style="font-weight:bold;vertical-align:top;">meta</td><td style="vertical-align:top;">:</td><td><div><table></table></div></td></tr><tr><td style="font-weight:bold;vertical-align:top;">models_to_run</td><td style="vertical-align:top;">:</td><td><div><table><tr><td><div>^\\w+\\.py$</div></td></tr><tr><td><div>^default/\\w+\\.py$</div></td></tr><tr><td><div>^default/event_page/\\w+\\.py$</div></td></tr></table></div></td></tr><tr><td style="font-weight:bold;vertical-align:top;">postprocessing</td><td style="vertical-align:top;">:</td><td><div><table></table></div></td></tr><tr><td style="font-weight:bold;vertical-align:top;">session_client</td><td style="vertical-align:top;">:</td><td><div>127.0.0.1</div></td></tr><tr><td style="font-weight:bold;vertical-align:top;">session_cookie_compression_level</td><td style="vertical-align:top;">:</td><td><div>None</div></td></tr><tr><td style="font-weight:bold;vertical-align:top;">session_cookie_expires</td><td style="vertical-align:top;">:</td><td><div>None</div></td></tr><tr><td style="font-weight:bold;vertical-align:top;">session_data_name</td><td style="vertical-align:top;">:</td><td><div>session_data_ourhours</div></td></tr><tr><td style="font-weight:bold;vertical-align:top;">session_file</td><td style="vertical-align:top;">:</td><td><div>None</div></td></tr><tr><td style="font-weight:bold;vertical-align:top;">session_filename</td><td style="vertical-align:top;">:</td><td><div>C:\\Users\\Wesly\\Desktop\\UCSC-Hack-2017\\applications\\ourhours\\sessions\\127.0.0.1-d32f4d9c-b1e3-454d-b99e-d9a668cd9510</div></td></tr><tr><td style="font-weight:bold;vertical-align:top;">session_hash</td><td style="vertical-align:top;">:</td><td><div>3f9e881ae8be0193e1e7cc68013c9fc0</div></td></tr><tr><td style="font-weight:bold;vertical-align:top;">session_id</td><td style="vertical-align:top;">:</td><td><div>True</div></td></tr><tr><td style="font-weight:bold;vertical-align:top;">session_id_name</td><td style="vertical-align:top;">:</td><td><div>session_id_ourhours</div></td></tr><tr><td style="font-weight:bold;vertical-align:top;">session_masterapp</td><td style="vertical-align:top;">:</td><td><div>ourhours</div></td></tr><tr><td style="font-weight:bold;vertical-align:top;">session_new</td><td style="vertical-align:top;">:</td><td><div>True</div></td></tr><tr><td style="font-weight:bold;vertical-align:top;">session_storage_type</td><td style="vertical-align:top;">:</td><td><div>cookie</div></td></tr><tr><td style="font-weight:bold;vertical-align:top;">status</td><td style="vertical-align:top;">:</td><td><div>200</div></td></tr><tr><td style="font-weight:bold;vertical-align:top;">view</td><td style="vertical-align:top;">:</td><td><div>default/event_page.html</div></td></tr></table></div>'
tRp115
sS'locals'
p116
(dp117
S'IFRAME'
p118
S"<class 'gluon.html.IFRAME'>"
p119
sS'toggle_menuclass'
p120
S'<function toggle_menuclass>'
p121
sS'OBJECT'
p122
S"<class 'gluon.html.OBJECT'>"
p123
sS'SQLDB'
p124
S"<class 'pydal.base.DAL'>"
p125
sg108
S"<Storage {'_formkey[event/create]': ['d04bc231-c...gin]': ['1df78436-637a-4b47-aeab-17964732be3a']}>"
p126
sS'LINK'
p127
S"<class 'gluon.html.LINK'>"
p128
sS'BR'
p129
S"<class 'gluon.html.BR'>"
p130
sS'local_import'
p131
S'<function <lambda>>'
p132
sS'OPTGROUP'
p133
S"<class 'gluon.html.OPTGROUP'>"
p134
sS'__package__'
p135
S'None'
p136
sS'PRE'
p137
S"<class 'gluon.html.PRE'>"
p138
sS'IS_INT_IN_RANGE'
p139
S"<class 'gluon.validators.IS_INT_IN_RANGE'>"
p140
sS'IS_LOWER'
p141
S"<class 'gluon.validators.IS_LOWER'>"
p142
sS'IS_STRONG'
p143
S"<class 'gluon.validators.IS_STRONG'>"
p144
sS'cache'
p145
S'<gluon.cache.Cache object>'
p146
sS'IS_IN_DB'
p147
S"<class 'gluon.validators.IS_IN_DB'>"
p148
sS'TAG'
p149
S'<gluon.html.__TAG__ object>'
p150
sS'SQLField'
p151
S"<class 'pydal.objects.Field'>"
p152
sS'BODY'
p153
S"<class 'gluon.html.BODY'>"
p154
sS'IS_DATE_IN_RANGE'
p155
S"<class 'gluon.validators.IS_DATE_IN_RANGE'>"
p156
sS'random'
p157
S"<module 'random' from 'C:\\Users\\Wesly\\Desktop\\UCSC-Hack-2017\\library.zip\\random.pyc'>"
p158
sS'string'
p159
S"<module 'string' from 'C:\\Users\\Wesly\\Desktop\\UCSC-Hack-2017\\library.zip\\string.pyc'>"
p160
sS'URL'
p161
S'<function URL>'
p162
sS'__file__'
p163
S"r'C:\\Users\\Wesly\\Desktop\\UCSC-Hack-2017\\applications\\ourhours\\views\\default/event_page.html'"
p164
sS'db'
p165
S'<DAL uri="sqlite://storage.sqlite">'
p166
sS'auth'
p167
S'<gluon.tools.Auth object>'
p168
sS'P'
S"<class 'gluon.html.P'>"
p169
sS'TFOOT'
p170
S"<class 'gluon.html.TFOOT'>"
p171
sS'XHTML'
p172
S"<class 'gluon.html.XHTML'>"
p173
sS'ON'
p174
S'True'
p175
sS'OL'
p176
S"<class 'gluon.html.OL'>"
p177
sS'TEXTAREA'
p178
S"<class 'gluon.html.TEXTAREA'>"
p179
sS'MENU'
p180
S"<class 'gluon.html.MENU'>"
p181
sS'IS_IMAGE'
p182
S"<class 'gluon.validators.IS_IMAGE'>"
p183
sS'code_feed_reader'
p184
S'<function code_feed_reader>'
p185
sS'EM'
p186
S"<class 'gluon.html.EM'>"
p187
sS'CODE'
p188
S"<class 'gluon.html.CODE'>"
p189
sS'HTTP'
p190
S"<class 'gluon.http.HTTP'>"
p191
sS'HR'
p192
S"<class 'gluon.html.HR'>"
p193
sS'IS_DATETIME'
p194
S"<class 'gluon.validators.IS_DATETIME'>"
p195
sS'cookie_key'
p196
S"'cb2b0a18-15f4-480e-992f-e6b456f44cec'"
p197
sS'STYLE'
p198
S"<class 'gluon.html.STYLE'>"
p199
sS'LABEL'
p200
S"<class 'gluon.html.LABEL'>"
p201
sS'CLEANUP'
p202
S"<class 'gluon.validators.CLEANUP'>"
p203
sS'event'
p204
S'<Rows (0)>'
p205
sS'SELECT'
p206
S"<class 'gluon.html.SELECT'>"
p207
sS'CENTER'
p208
S"<class 'gluon.html.CENTER'>"
p209
sS'Auth'
p210
S"<class 'gluon.tools.Auth'>"
p211
sS'__builtins__'
p212
S"{'ArithmeticError': <type 'exceptions.ArithmeticError'>, 'AssertionError': <type 'exceptions.AssertionError'>, 'AttributeError': <type 'exceptions.AttributeError'>, 'BaseException': <type 'exceptions.BaseException'>, 'BufferError': <type 'exceptions.BufferError'>, 'BytesWarning': <type 'exceptions.BytesWarning'>, 'DeprecationWarning': <type 'exceptions.DeprecationWarning'>, 'EOFError': <type 'exceptions.EOFError'>, 'Ellipsis': Ellipsis, 'EnvironmentError': <type 'exceptions.EnvironmentError'>, ...}"
p213
sS'HTML'
p214
S"<class 'gluon.html.HTML'>"
p215
sS'SQLFORM'
p216
S"<class 'gluon.sqlhtml.SQLFORM'>"
p217
sS'LOAD'
p218
S'<function LOAD>'
p219
sS'redirect'
p220
S'<function redirect>'
p221
sS'FIELDSET'
p222
S"<class 'gluon.html.FIELDSET'>"
p223
sS'IS_EQUAL_TO'
p224
S"<class 'gluon.validators.IS_EQUAL_TO'>"
p225
sS'embed64'
p226
S'<function embed64>'
p227
sS'IS_LIST_OF'
p228
S"<class 'gluon.validators.IS_LIST_OF'>"
p229
sS'INPUT'
p230
S"<class 'gluon.html.INPUT'>"
p231
sS'EMBED'
p232
S"<class 'gluon.html.EMBED'>"
p233
sS'g'
S"<Row {'group_code': 'P5cPR', 'optional_group_pho...p Description.No Group Description.', 'id': 15L}>"
p234
sS'H2'
p235
S"<class 'gluon.html.H2'>"
p236
sS'H3'
p237
S"<class 'gluon.html.H3'>"
p238
sS'BUTTON'
p239
S"<class 'gluon.html.BUTTON'>"
p240
sS'H1'
p241
S"<class 'gluon.html.H1'>"
p242
sS'H6'
p243
S"<class 'gluon.html.H6'>"
p244
sS'H4'
p245
S"<class 'gluon.html.H4'>"
p246
sS'H5'
p247
S"<class 'gluon.html.H5'>"
p248
sS'UL'
p249
S"<class 'gluon.html.UL'>"
p250
sS'IS_UPPER'
p251
S"<class 'gluon.validators.IS_UPPER'>"
p252
sS'xmlescape'
p253
S'<function xmlescape>'
p254
sS'IS_TIME'
p255
S"<class 'gluon.validators.IS_TIME'>"
p256
sS'OPTION'
p257
S"<class 'gluon.html.OPTION'>"
p258
sS'TITLE'
p259
S"<class 'gluon.html.TITLE'>"
p260
sS'CRYPT'
p261
S"<class 'gluon.validators.CRYPT'>"
p262
sS'IS_EMPTY_OR'
p263
S"<class 'gluon.validators.IS_EMPTY_OR'>"
p264
sS'MARKMIN'
p265
S"<class 'gluon.html.MARKMIN'>"
p266
sS'web2py_uuid'
p267
S'<function web2py_uuid>'
p268
sS'__name__'
p269
S"'__restricted__'"
p270
sS'STRONG'
p271
S"<class 'gluon.html.STRONG'>"
p272
sS'COL'
p273
S"<class 'gluon.html.COL'>"
p274
sS'SCRIPT'
p275
S"<class 'gluon.html.SCRIPT'>"
p276
sS'group_feed_reader'
p277
S'<function group_feed_reader>'
p278
sS'TABLE'
p279
S"<class 'gluon.html.TABLE'>"
p280
sS'IS_IPV4'
p281
S"<class 'gluon.validators.IS_IPV4'>"
p282
sS'IS_LENGTH'
p283
S"<class 'gluon.validators.IS_LENGTH'>"
p284
sS'IS_IPV6'
p285
S"<class 'gluon.validators.IS_IPV6'>"
p286
sS'XML'
p287
S"<class 'gluon.html.XML'>"
p288
sS'B'
S"<class 'gluon.html.B'>"
p289
sS'IMG'
p290
S"<class 'gluon.html.IMG'>"
p291
sS'SQLTABLE'
p292
S"<class 'gluon.sqlhtml.SQLTABLE'>"
p293
sS'IS_MATCH'
p294
S"<class 'gluon.validators.IS_MATCH'>"
p295
sS'IS_ALPHANUMERIC'
p296
S"<class 'gluon.validators.IS_ALPHANUMERIC'>"
p297
sS'SPAN'
p298
S"<class 'gluon.html.SPAN'>"
p299
sS'IS_JSON'
p300
S"<class 'gluon.validators.IS_JSON'>"
p301
sS'IS_IPADDRESS'
p302
S"<class 'gluon.validators.IS_IPADDRESS'>"
p303
sS'IS_SLUG'
p304
S"<class 'gluon.validators.IS_SLUG'>"
p305
sS'n'
S'4'
sS'BEAUTIFY'
p306
S"<class 'gluon.html.BEAUTIFY'>"
p307
sS'META'
p308
S"<class 'gluon.html.META'>"
p309
sS'IS_DATE'
p310
S"<class 'gluon.validators.IS_DATE'>"
p311
sS'IS_EMAIL'
p312
S"<class 'gluon.validators.IS_EMAIL'>"
p313
sS'IS_NOT_EMPTY'
p314
S"<class 'gluon.validators.IS_NOT_EMPTY'>"
p315
sS'IS_FLOAT_IN_RANGE'
p316
S"<class 'gluon.validators.IS_FLOAT_IN_RANGE'>"
p317
sS'TBODY'
p318
S"<class 'gluon.html.TBODY'>"
p319
sS'CAT'
p320
S"<class 'gluon.html.CAT'>"
p321
sS'Field'
p322
S"<class 'pydal.objects.Field'>"
p323
sS'IS_LIST_OF_EMAILS'
p324
S"<class 'gluon.validators.IS_LIST_OF_EMAILS'>"
p325
sS'DIV'
p326
S"<class 'gluon.html.DIV'>"
p327
sS'LEGEND'
p328
S"<class 'gluon.html.LEGEND'>"
p329
sS'COLGROUP'
p330
S"<class 'gluon.html.COLGROUP'>"
p331
sS'DAL'
p332
S"<class 'pydal.base.DAL'>"
p333
sS'ASSIGNJS'
p334
S'<function ASSIGNJS>'
p335
sS'TR'
p336
S"<class 'gluon.html.TR'>"
p337
sS'LI'
p338
S"<class 'gluon.html.LI'>"
p339
sS'TH'
p340
S"<class 'gluon.html.TH'>"
p341
sS'TD'
p342
S"<class 'gluon.html.TD'>"
p343
sS'IS_URL'
p344
S"<class 'gluon.validators.IS_URL'>"
p345
sS'A'
S"<class 'gluon.html.A'>"
p346
sS'HEAD'
p347
S"<class 'gluon.html.HEAD'>"
p348
sS'IS_DATETIME_IN_RANGE'
p349
S"<class 'gluon.validators.IS_DATETIME_IN_RANGE'>"
p350
sS'FORM'
p351
S"<class 'gluon.html.FORM'>"
p352
sS'I'
S"<class 'gluon.html.I'>"
p353
sS'IS_NOT_IN_DB'
p354
S"<class 'gluon.validators.IS_NOT_IN_DB'>"
p355
sg114
S"<Storage {'body': <cStringIO.StringO object at 0... 0x08AE4C30>, 'view': 'default/event_page.html'}>"
p356
sS'THEAD'
p357
S"<class 'gluon.html.THEAD'>"
p358
sS'ANY_OF'
p359
S"<class 'gluon.validators.ANY_OF'>"
p360
sS'IS_NULL_OR'
p361
S"<class 'gluon.validators.IS_EMPTY_OR'>"
p362
sg56
S"<Storage {'_vars': None, 'function': 'event_page...ktop\\\\UCSC-Hack-2017\\\\applications\\\\ourhours\\\\'}>"
p363
sS'IS_EXPR'
p364
S"<class 'gluon.validators.IS_EXPR'>"
p365
sS'T'
S'<gluon.languages.translator object>'
p366
sS'IS_IN_SET'
p367
S"<class 'gluon.validators.IS_IN_SET'>"
p368
sS'IS_UPLOAD_FILENAME'
p369
S"<class 'gluon.validators.IS_UPLOAD_FILENAME'>"
p370
sS'TT'
p371
S"<class 'gluon.html.TT'>"
p372
sS'IS_DECIMAL_IN_RANGE'
p373
S"<class 'gluon.validators.IS_DECIMAL_IN_RANGE'>"
p374
sssS'traceback'
p375
S'Traceback (most recent call last):\n  File "C:\\Users\\Wesly\\Desktop\\UCSC-Hack-2017\\gluon\\restricted.py", line 227, in restricted\n    exec ccode in environment\n  File "C:\\Users\\Wesly\\Desktop\\UCSC-Hack-2017\\applications\\ourhours\\views\\default/event_page.html", line 14, in <module>\n    </tr>\nAttributeError: \'Rows\' object has no attribute \'event_name\'\n'
p376
s.