(dp1
S'output'
p2
S"<type 'exceptions.NameError'> global name 'ALL' is not defined"
p3
sS'layer'
p4
S'C:\\Users\\Wesly\\Desktop\\UCSC-Hack-2017\\applications\\ourhours\\controllers/default.py'
p5
sS'code'
p6
S'from gluon.tools import Mail\nimport imaplib\nimport email\nfrom email.header import decode_header\n\nimport random\nimport string\n\n\ndef index():\n    groups = db(db.groups).select(db.groups.ALL)\n    return locals()\n\n\ndef create():\n    form = SQLFORM(db.groups, deletable=True).process()\n    if form.accepted:\n        \n        redirect(URL(\'index\'))\n    return locals()\n\ndef join():\n    groups = db(db.groups).select(ALL)\n    form = SQLFORM(db.join_group, deletable=True).process()\n    if form.accepted:\n        for groups in groups:\n            if request.vars.join_code in groups.group_code:\n                response.flash = groups.id\n                # redirect(URL(\'event_page\', args=groups.id))\n    return locals()\n\ndef ecreate():\n    form = SQLFORM(db.event, deletable=True).process()\n    if form.accepted:\n        redirect(URL(\'index\'))\n    return locals()\n\nimport json\nfrom datetime import datetime\nfrom json import dumps\n\ndef event_page():\n    #currently faulty, returns all events\n    g = db.groups(request.args(0,cast=int)) or redirect(URL(\'index\'))\n    db.event.event_id.default = g.id\n    db.event.event_code.default = g.group_code\n    event = db(db.event).select(db.event.ALL)\n    json_data = json.dumps([[e.event_allDay, e.event_name, e.event_id, e.start.strftime("%B %d, %Y"), e.end.strftime("%B %d, %Y"), e.event_description] for e in event])\n    response.flash = json_data\n\n    return locals()\n\ndef user():\n    return dict(form=auth())\n\ndef download():\n    return response.download(request, db)\n\ndef picture():\n    return response.view(request, db)\nresponse._vars=response._caller(join)\n'
p7
sS'snapshot'
p8
(dp9
S'exception'
p10
(dp11
S'__hash__'
p12
S"<method-wrapper '__hash__' of exceptions.NameError object>"
p13
sS'__setattr__'
p14
S"<method-wrapper '__setattr__' of exceptions.NameError object>"
p15
sS'__reduce_ex__'
p16
S'<built-in method __reduce_ex__ of exceptions.NameError object>'
p17
sS'__getslice__'
p18
S"<method-wrapper '__getslice__' of exceptions.NameError object>"
p19
sS'__getitem__'
p20
S"<method-wrapper '__getitem__' of exceptions.NameError object>"
p21
sS'__setstate__'
p22
S'<built-in method __setstate__ of exceptions.NameError object>'
p23
sS'__reduce__'
p24
S'<built-in method __reduce__ of exceptions.NameError object>'
p25
sS'__str__'
p26
S"<method-wrapper '__str__' of exceptions.NameError object>"
p27
sS'__format__'
p28
S'<built-in method __format__ of exceptions.NameError object>'
p29
sS'__getattribute__'
p30
S"<method-wrapper '__getattribute__' of exceptions.NameError object>"
p31
sS'__class__'
p32
S"<type 'exceptions.NameError'>"
p33
sS'__unicode__'
p34
S'<built-in method __unicode__ of exceptions.NameError object>'
p35
sS'__delattr__'
p36
S"<method-wrapper '__delattr__' of exceptions.NameError object>"
p37
sS'__subclasshook__'
p38
S'<built-in method __subclasshook__ of type object>'
p39
sS'__repr__'
p40
S"<method-wrapper '__repr__' of exceptions.NameError object>"
p41
sS'args'
p42
S'("global name \'ALL\' is not defined",)'
p43
sS'__dict__'
p44
S'{}'
p45
sS'__sizeof__'
p46
S'<built-in method __sizeof__ of exceptions.NameError object>'
p47
sS'__doc__'
p48
S"'Name not found globally.'"
p49
sS'__init__'
p50
S"<method-wrapper '__init__' of exceptions.NameError object>"
p51
sS'__new__'
p52
S'<built-in method __new__ of type object>'
p53
ssS'evalue'
p54
S"global name 'ALL' is not defined"
p55
sS'request'
p56
cgluon.html
XML_unpickle
p57
(S's\xe2\xaa\x00\x00<div><table><tr><td style="font-weight:bold;vertical-align:top;">ajax</td><td style="vertical-align:top;">:</td><td><div>False</div></td></tr><tr><td style="font-weight:bold;vertical-align:top;">application</td><td style="vertical-align:top;">:</td><td><div>ourhours</div></td></tr><tr><td style="font-weight:bold;vertical-align:top;">args</td><td style="vertical-align:top;">:</td><td><div><table></table></div></td></tr><tr><td style="font-weight:bold;vertical-align:top;">cid</td><td style="vertical-align:top;">:</td><td><div>None</div></td></tr><tr><td style="font-weight:bold;vertical-align:top;">client</td><td style="vertical-align:top;">:</td><td><div>127.0.0.1</div></td></tr><tr><td style="font-weight:bold;vertical-align:top;">controller</td><td style="vertical-align:top;">:</td><td><div>default</div></td></tr><tr><td style="font-weight:bold;vertical-align:top;">cookies</td><td style="vertical-align:top;">:</td><td><div><table><tr><td style="font-weight:bold;vertical-align:top;">resolution</td><td style="vertical-align:top;">:</td><td><div>1349<table><tr><td style="font-weight:bold;vertical-align:top;">comment</td><td style="vertical-align:top;">:</td><td><div></div></td></tr><tr><td style="font-weight:bold;vertical-align:top;">domain</td><td style="vertical-align:top;">:</td><td><div></div></td></tr><tr><td style="font-weight:bold;vertical-align:top;">expires</td><td style="vertical-align:top;">:</td><td><div></div></td></tr><tr><td style="font-weight:bold;vertical-align:top;">httponly</td><td style="vertical-align:top;">:</td><td><div></div></td></tr><tr><td style="font-weight:bold;vertical-align:top;">max-age</td><td style="vertical-align:top;">:</td><td><div></div></td></tr><tr><td style="font-weight:bold;vertical-align:top;">path</td><td style="vertical-align:top;">:</td><td><div></div></td></tr><tr><td style="font-weight:bold;vertical-align:top;">secure</td><td style="vertical-align:top;">:</td><td><div></div></td></tr><tr><td style="font-weight:bold;vertical-align:top;">version</td><td style="vertical-align:top;">:</td><td><div></div></td></tr></table></div></td></tr><tr><td style="font-weight:bold;vertical-align:top;">session_data_ourhours</td><td style="vertical-align:top;">:</td><td><div>1942d488a96062d9b91efb18af65bebf:6FiKyTnmgZrtAZ0tBiQcf4cKCG8uLXmIdNsQXpvB6Z98IYp9SoXjJkbzfOR5BVAVGUwWqUN0BPNYVZ7qR_doN_nN2LzuXbbKHEXUqX0px7HVIg-RkWUi-MexQgHVbEG6kC4vU_mintt8RSyi9sYw5COvPnGf1PkFMBddmhEv7SWI8VHfDkcl0ik4x8svLla0IK7PKz8IdJBwzqa_oNvLFQ5qs-CCcJZIf6F5GdQD1p_g4QESpNeygmfQvKqevduvKfbQ0A1TrrBPVMfI4ciHBTHwOgMmizzM5B5SRj4pgXtbDqN-cKDyuS1PCG-ueVfMfezE7sfS6agT4_kPElv8_hNsPBErlLdnih95y-V7kQpdh8pszwXVKaT6AHMTCygmoTQmDpVWbQOCWVakgym47kyctlEKUacYr6L9v-N6r70LuDKMLWYv9PMrm7S9CV7SthNIgqjGKBFwPtHoWE6AwmZstn40ybQhUhEb9RJ9bLgYBNnVgPLwkNQrEyi2JBHjCDckzFsasuuAC1LnkA5gwaVHrDVI263zybx1Ed_zETg-NjxcUIvQh3e-qnbsUA3WNffbxlDQw7ZwO6Flp63P8boFzR9Lmd5Ri_ftaGyUjb2hgIyy6eb-iCG3h_C1UoZuMKQVU7oOnSX4IrJpTBpKBhdRDlgAlGMEQ_HW94ZtMNilGbRmlKnA66zM7phJwmVOUMy5f6VB_T-Kdb3CFFvUlzFAPgZmsvCZy4Dpy1iP-Xklylad6QMHLbFTw_Ygtttc5-NbqozAmQY2_is8k7Afnx1QV5RgxVgsBz5QN2PC6TDLQTRvwR_7tSH5fLSUKpTJWK8a0XaZgnFkQRk_Updzcnbr_nVHwq7ElvxzHPUWSjIMKqwQTEmtfY5WLA-XhuklLxulom3XIG9rtyCn8M65tEQjWZZuyT14Lf5GZuGCJDQ5DIpB69jz6E-Zs5VVFJupPy7L4afnTzOTyef9KuudnWvLBHV3Or_Gd2HFjea6LiUxrlUc_RVZnHfNZxM57oB-2miYmHpszvU86BlFWxD2xU-bYxEsCS2oTs4o3eGVz2U03ZwtHj0B47PGGZHpYKAPYvETUO1aIVX63V5k_MNWG_oaTj9PJV0ui_GR8-3aNsAGVZqFO5Y9icIlmH5FBc9RVQBkA9gNOLeormXck6FQiA9-gJWM9Cf--wpzqZv595SIq2bBdOT-TyA6kw5mQJaVhg_afZzsocFTMM_LnOivjQB7JoWV0wmMAtAToUyq5v5RhuE7h2IJdbrXJPWEXnGBAgPzRDyCG_c8uZEHMpluiCb9dE-ags9m2WUGoWJHFybNWUJ46NGNcgLC6jOTJhIO-yrJb3aHpYu76EfFBncCwjpdndlAltR1r5RT91lEQXOc7C6zQv5lnVdZfWtOsBI7sZm0rxUJCbDq_5tqQxeaFC7ekNSJxl4LwFkwEf8lcV4LzqGmiwZw-HDZXtJ046SIuNghjdBT7UYCiHK8iS0KN-Sae_TtcNJcSotIO3fbj1w8Gl1FMtAX90WstUBoHdJF4qaDPTn97QmkWc19tEQ3pW1rpKZ3losLXZ_4ttSHBW7udHJvQWvnxH_P7yZxSfooxL-GUyiyR3o9orhoOF2xzqPwGEuBuKRuAPvoRIl3KCxPyFi4uYDiUEQQNZ_n0Q16ZvQ1bCCsTC2NsErgqC3m3mclQporRehX_7BkTrdEZcuPSLOLEmt4MGb-dpJ4BywkJktXERJyIVLtmIohJMG3KW-M6j6hyg5A-cKJJLz9Lxx_evZE3TPZ-_ktzwPKEfp_XoB1Y6LApZgL46ipEWkg0JBlnxJH5TtjGldKKKVO6qVOLCs-yq3aWiT91kzILTumAdwlOHEPDWzAot5pZ7BNVHLxOHsXvy1Y0dHeg1p1br92F6wI8tNmR0GIwvivhq3qDRQ-JJzcl8RHhwcqXCgS7fR7Yw1xzJDHIYqpjIgi8XLTxFBtA3cqEfFbLJqvbfUGv5ryUgFW3gMYW7btFnoZb3hyPg4KcFgBaYQGoEcou2mh_qlkBRPMYyFVsRO0Zyi9EnoZjIt5LvSMh-oeTTMTPNTyWV6USjjiHTIBZ12fwO6bzqJbJ5zKfI16A2CBsro05UVLWpoe313uhlQh0BbDcTKtE-OO3ojbpaaQ95TRHGXN1GZf1O2P4x7TseGTSz-_6W1S_FmVa99KdrDA3MaS4JRt-B7VcmwEMZTRZZY_zDhDb4rlKCBGsm8Mm5hZ0RcfsjwNa8CmvF2ZEKJddDBn2jW733nnMNBUEb7NWdPl2IHm6d9jG55e3XmI5O-8kxtIkoeR6ecbctIgY9Iw5KWnXJRyZ5976KmZVp8A0IH2fDaz8gDwbGweIWoAZRGGJwAan7zmUShMeto-harskz8l2M67kzIXVzkqOnDFik_3JnpERFtlCpsUDnHPpKPNGFGz1dbnfL5hJbT0_frKQNxYdnKcY7uLReD3sYBXPrGj4XWRg5HltnKLxwyXV34cLINhAkNHyRM1_STdG8lUslvJHRAZZ4NG2_duHLkR6hI3pB2-1pHi8shPobKQHgRR-WZ0zT-BxQI8dNrnXheKKlfX_EBAToy1IAUB_y4Lr8c-jT5o0257-cJVUWlSlZipTHs-mYzu0yFI52ZAF9FB2HYf2VI5q9D6ifIH3ZWiu0r8V_Ivuo_qzj_uS5MJ9Hcjf2mP1NjOc1Q9tQoNvZ_xe8Lu9BQgbuGoajSfKZXDFNRpZ7kPLRGNHGPq0bESmBLfJ8BIbQ8fzWlzev6K3cUR3lE2wl2aaHE-SkBIdozmXj77nER9prRM6WFe9fQTT2oau_83kJPbvrePjaXvjFGSrjekMD6KwtZBUb4_oKtbDKqkdj7L429pDfsW_XSL3lbyftGY55zuTh8BKz51iX3emzSRD5PWVlI8vpT_GV7Ozz7yKSyqN2hhwBXCjvYPECuZAeMkicOqToJ1pbLAJEZWG3YBD15-xS9DUNQIPmKeqfQ7Dywex7U_VESc1IuL6kiFSIom8P7_LxBgZBP4sByt9MOChPV2pgtoNJlRuZqCp2XXve9H5YGQd9Rc2IWHXQ0xlCwN8bj0tnLttn4z7yPum1MGZKjLuqhOpSkq7S4UAMkeDTbB9eY4JJfnS-yAkSy5y_Bzl9JDMmR7EnxcRCVyHAXABFL1gix6IGbkO38mt1XDXA-es3DJ36in_9a1ssbkbWtcbr5V3AIGIZg3W8-ua7BIs-Vl-gETo3WCpbv5G4eVEr2LzEWCAvO_5ktGNivhhY1_2B9M-F02eG4EzxpsiUnrJPVCmGHIlI4sdhrEaZjGz_edbIIljURhLQTk0JpsVpBYlJTiRjzaFSAWBeOkFb3SSBOA32baXMSouw3dhG2fWyEt90WKmSEHIXSI3p9mRMkFekM1-TpnTWPoA6oZqJWDW4ervFsyDRkhGR-VRg6MgTlhRrHNzZMq6Yt0jXCqbrkFMoP8FkPhaDYgyvm7o-YYNG3de_Jt57yCc1TEtR2hiA90mgbM3hWgIY9bR5aUZaJAklKApmKPSN9lj6ZU0NoiMLItcLRiAsmePZfrT1ilIYvMOHYuke7t6xhZB6CpaBU2_9gG4MBgNSNe6z2qzB4wL9wUmSH1zpfTZm6YtuLX2kWgpMC6J7CE4aR8v1KsOrX5o-TmYosnXddllpzMtK5ygGYIApa4KqoYvHJRw8495eI=<table><tr><td style="font-weight:bold;vertical-align:top;">comment</td><td style="vertical-align:top;">:</td><td><div></div></td></tr><tr><td style="font-weight:bold;vertical-align:top;">domain</td><td style="vertical-align:top;">:</td><td><div></div></td></tr><tr><td style="font-weight:bold;vertical-align:top;">expires</td><td style="vertical-align:top;">:</td><td><div></div></td></tr><tr><td style="font-weight:bold;vertical-align:top;">httponly</td><td style="vertical-align:top;">:</td><td><div></div></td></tr><tr><td style="font-weight:bold;vertical-align:top;">max-age</td><td style="vertical-align:top;">:</td><td><div></div></td></tr><tr><td style="font-weight:bold;vertical-align:top;">path</td><td style="vertical-align:top;">:</td><td><div></div></td></tr><tr><td style="font-weight:bold;vertical-align:top;">secure</td><td style="vertical-align:top;">:</td><td><div></div></td></tr><tr><td style="font-weight:bold;vertical-align:top;">version</td><td style="vertical-align:top;">:</td><td><div></div></td></tr></table></div></td></tr><tr><td style="font-weight:bold;vertical-align:top;">session_id_admin</td><td style="vertical-align:top;">:</td><td><div>127.0.0.1-5e4d5587-8e46-4ab9-bda4-cde90ee24cff<table><tr><td style="font-weight:bold;vertical-align:top;">comment</td><td style="vertical-align:top;">:</td><td><div></div></td></tr><tr><td style="font-weight:bold;vertical-align:top;">domain</td><td style="vertical-align:top;">:</td><td><div></div></td></tr><tr><td style="font-weight:bold;vertical-align:top;">expires</td><td style="vertical-align:top;">:</td><td><div></div></td></tr><tr><td style="font-weight:bold;vertical-align:top;">httponly</td><td style="vertical-align:top;">:</td><td><div></div></td></tr><tr><td style="font-weight:bold;vertical-align:top;">max-age</td><td style="vertical-align:top;">:</td><td><div></div></td></tr><tr><td style="font-weight:bold;vertical-align:top;">path</td><td style="vertical-align:top;">:</td><td><div></div></td></tr><tr><td style="font-weight:bold;vertical-align:top;">secure</td><td style="vertical-align:top;">:</td><td><div></div></td></tr><tr><td style="font-weight:bold;vertical-align:top;">version</td><td style="vertical-align:top;">:</td><td><div></div></td></tr></table></div></td></tr><tr><td style="font-weight:bold;vertical-align:top;">session_id_hackathon</td><td style="vertical-align:top;">:</td><td><div>127.0.0.1-e9d19e57-2c82-4246-95e2-3afb87897355<table><tr><td style="font-weight:bold;vertical-align:top;">comment</td><td style="vertical-align:top;">:</td><td><div></div></td></tr><tr><td style="font-weight:bold;vertical-align:top;">domain</td><td style="vertical-align:top;">:</td><td><div></div></td></tr><tr><td style="font-weight:bold;vertical-align:top;">expires</td><td style="vertical-align:top;">:</td><td><div></div></td></tr><tr><td style="font-weight:bold;vertical-align:top;">httponly</td><td style="vertical-align:top;">:</td><td><div></div></td></tr><tr><td style="font-weight:bold;vertical-align:top;">max-age</td><td style="vertical-align:top;">:</td><td><div></div></td></tr><tr><td style="font-weight:bold;vertical-align:top;">path</td><td style="vertical-align:top;">:</td><td><div></div></td></tr><tr><td style="font-weight:bold;vertical-align:top;">secure</td><td style="vertical-align:top;">:</td><td><div></div></td></tr><tr><td style="font-weight:bold;vertical-align:top;">version</td><td style="vertical-align:top;">:</td><td><div></div></td></tr></table></div></td></tr><tr><td style="font-weight:bold;vertical-align:top;">session_id_hw</td><td style="vertical-align:top;">:</td><td><div>127.0.0.1-23223d0c-fdad-4421-b0fa-bfb22452a98b<table><tr><td style="font-weight:bold;vertical-align:top;">comment</td><td style="vertical-align:top;">:</td><td><div></div></td></tr><tr><td style="font-weight:bold;vertical-align:top;">domain</td><td style="vertical-align:top;">:</td><td><div></div></td></tr><tr><td style="font-weight:bold;vertical-align:top;">expires</td><td style="vertical-align:top;">:</td><td><div></div></td></tr><tr><td style="font-weight:bold;vertical-align:top;">httponly</td><td style="vertical-align:top;">:</td><td><div></div></td></tr><tr><td style="font-weight:bold;vertical-align:top;">max-age</td><td style="vertical-align:top;">:</td><td><div></div></td></tr><tr><td style="font-weight:bold;vertical-align:top;">path</td><td style="vertical-align:top;">:</td><td><div></div></td></tr><tr><td style="font-weight:bold;vertical-align:top;">secure</td><td style="vertical-align:top;">:</td><td><div></div></td></tr><tr><td style="font-weight:bold;vertical-align:top;">version</td><td style="vertical-align:top;">:</td><td><div></div></td></tr></table></div></td></tr><tr><td style="font-weight:bold;vertical-align:top;">session_id_layouttest</td><td style="vertical-align:top;">:</td><td><div>127.0.0.1-9dd550cb-7d25-4599-add6-bbf406414416<table><tr><td style="font-weight:bold;vertical-align:top;">comment</td><td style="vertical-align:top;">:</td><td><div></div></td></tr><tr><td style="font-weight:bold;vertical-align:top;">domain</td><td style="vertical-align:top;">:</td><td><div></div></td></tr><tr><td style="font-weight:bold;vertical-align:top;">expires</td><td style="vertical-align:top;">:</td><td><div></div></td></tr><tr><td style="font-weight:bold;vertical-align:top;">httponly</td><td style="vertical-align:top;">:</td><td><div></div></td></tr><tr><td style="font-weight:bold;vertical-align:top;">max-age</td><td style="vertical-align:top;">:</td><td><div></div></td></tr><tr><td style="font-weight:bold;vertical-align:top;">path</td><td style="vertical-align:top;">:</td><td><div></div></td></tr><tr><td style="font-weight:bold;vertical-align:top;">secure</td><td style="vertical-align:top;">:</td><td><div></div></td></tr><tr><td style="font-weight:bold;vertical-align:top;">version</td><td style="vertical-align:top;">:</td><td><div></div></td></tr></table></div></td></tr><tr><td style="font-weight:bold;vertical-align:top;">session_id_ourhours</td><td style="vertical-align:top;">:</td><td><div>True<table><tr><td style="font-weight:bold;vertical-align:top;">comment</td><td style="vertical-align:top;">:</td><td><div></div></td></tr><tr><td style="font-weight:bold;vertical-align:top;">domain</td><td style="vertical-align:top;">:</td><td><div></div></td></tr><tr><td style="font-weight:bold;vertical-align:top;">expires</td><td style="vertical-align:top;">:</td><td><div></div></td></tr><tr><td style="font-weight:bold;vertical-align:top;">httponly</td><td style="vertical-align:top;">:</td><td><div></div></td></tr><tr><td style="font-weight:bold;vertical-align:top;">max-age</td><td style="vertical-align:top;">:</td><td><div></div></td></tr><tr><td style="font-weight:bold;vertical-align:top;">path</td><td style="vertical-align:top;">:</td><td><div></div></td></tr><tr><td style="font-weight:bold;vertical-align:top;">secure</td><td style="vertical-align:top;">:</td><td><div></div></td></tr><tr><td style="font-weight:bold;vertical-align:top;">version</td><td style="vertical-align:top;">:</td><td><div></div></td></tr></table></div></td></tr><tr><td style="font-weight:bold;vertical-align:top;">session_id_welcome</td><td style="vertical-align:top;">:</td><td><div>127.0.0.1-3404b542-72e6-426d-9bd7-f225ed0f1803<table><tr><td style="font-weight:bold;vertical-align:top;">comment</td><td style="vertical-align:top;">:</td><td><div></div></td></tr><tr><td style="font-weight:bold;vertical-align:top;">domain</td><td style="vertical-align:top;">:</td><td><div></div></td></tr><tr><td style="font-weight:bold;vertical-align:top;">expires</td><td style="vertical-align:top;">:</td><td><div></div></td></tr><tr><td style="font-weight:bold;vertical-align:top;">httponly</td><td style="vertical-align:top;">:</td><td><div></div></td></tr><tr><td style="font-weight:bold;vertical-align:top;">max-age</td><td style="vertical-align:top;">:</td><td><div></div></td></tr><tr><td style="font-weight:bold;vertical-align:top;">path</td><td style="vertical-align:top;">:</td><td><div></div></td></tr><tr><td style="font-weight:bold;vertical-align:top;">secure</td><td style="vertical-align:top;">:</td><td><div></div></td></tr><tr><td style="font-weight:bold;vertical-align:top;">version</td><td style="vertical-align:top;">:</td><td><div></div></td></tr></table></div></td></tr></table></div></td></tr><tr><td style="font-weight:bold;vertical-align:top;">env</td><td style="vertical-align:top;">:</td><td><div><table><tr><td style="font-weight:bold;vertical-align:top;">CONTENT_LENGTH</td><td style="vertical-align:top;">:</td><td><div>389</div></td></tr><tr><td style="font-weight:bold;vertical-align:top;">CONTENT_TYPE</td><td style="vertical-align:top;">:</td><td><div>multipart/form-data; boundary=----WebKitFormBoundaryZcwnw2N60ZJFKfuP</div></td></tr><tr><td style="font-weight:bold;vertical-align:top;">HTTP_ACCEPT</td><td style="vertical-align:top;">:</td><td><div>text/html,application/xhtml+xml,application/xml;q=0.9,image/webp,*/*;q=0.8</div></td></tr><tr><td style="font-weight:bold;vertical-align:top;">HTTP_ACCEPT_ENCODING</td><td style="vertical-align:top;">:</td><td><div>gzip, deflate, br</div></td></tr><tr><td style="font-weight:bold;vertical-align:top;">HTTP_ACCEPT_LANGUAGE</td><td style="vertical-align:top;">:</td><td><div>en-US,en;q=0.8</div></td></tr><tr><td style="font-weight:bold;vertical-align:top;">HTTP_CACHE_CONTROL</td><td style="vertical-align:top;">:</td><td><div>max-age=0</div></td></tr><tr><td style="font-weight:bold;vertical-align:top;">HTTP_CONNECTION</td><td style="vertical-align:top;">:</td><td><div>keep-alive</div></td></tr><tr><td style="font-weight:bold;vertical-align:top;">HTTP_CONTENT_LENGTH</td><td style="vertical-align:top;">:</td><td><div>389</div></td></tr><tr><td style="font-weight:bold;vertical-align:top;">HTTP_CONTENT_TYPE</td><td style="vertical-align:top;">:</td><td><div>multipart/form-data; boundary=----WebKitFormBoundaryZcwnw2N60ZJFKfuP</div></td></tr><tr><td style="font-weight:bold;vertical-align:top;">HTTP_COOKIE</td><td style="vertical-align:top;">:</td><td><div>session_id_layouttest=127.0.0.1-9dd550cb-7d25-4599-add6-bbf406414416; resolution=1349; session_id_hackathon=127.0.0.1-e9d19e57-2c82-4246-95e2-3afb87897355; session_id_hw=127.0.0.1-23223d0c-fdad-4421-b0fa-bfb22452a98b; session_id_welcome=127.0.0.1-3404b542-72e6-426d-9bd7-f225ed0f1803; session_data_ourhours=&quot;1942d488a96062d9b91efb18af65bebf:6FiKyTnmgZrtAZ0tBiQcf4cKCG8uLXmIdNsQXpvB6Z98IYp9SoXjJkbzfOR5BVAVGUwWqUN0BPNYVZ7qR_doN_nN2LzuXbbKHEXUqX0px7HVIg-RkWUi-MexQgHVbEG6kC4vU_mintt8RSyi9sYw5COvPnGf1PkFMBddmhEv7SWI8VHfDkcl0ik4x8svLla0IK7PKz8IdJBwzqa_oNvLFQ5qs-CCcJZIf6F5GdQD1p_g4QESpNeygmfQvKqevduvKfbQ0A1TrrBPVMfI4ciHBTHwOgMmizzM5B5SRj4pgXtbDqN-cKDyuS1PCG-ueVfMfezE7sfS6agT4_kPElv8_hNsPBErlLdnih95y-V7kQpdh8pszwXVKaT6AHMTCygmoTQmDpVWbQOCWVakgym47kyctlEKUacYr6L9v-N6r70LuDKMLWYv9PMrm7S9CV7SthNIgqjGKBFwPtHoWE6AwmZstn40ybQhUhEb9RJ9bLgYBNnVgPLwkNQrEyi2JBHjCDckzFsasuuAC1LnkA5gwaVHrDVI263zybx1Ed_zETg-NjxcUIvQh3e-qnbsUA3WNffbxlDQw7ZwO6Flp63P8boFzR9Lmd5Ri_ftaGyUjb2hgIyy6eb-iCG3h_C1UoZuMKQVU7oOnSX4IrJpTBpKBhdRDlgAlGMEQ_HW94ZtMNilGbRmlKnA66zM7phJwmVOUMy5f6VB_T-Kdb3CFFvUlzFAPgZmsvCZy4Dpy1iP-Xklylad6QMHLbFTw_Ygtttc5-NbqozAmQY2_is8k7Afnx1QV5RgxVgsBz5QN2PC6TDLQTRvwR_7tSH5fLSUKpTJWK8a0XaZgnFkQRk_Updzcnbr_nVHwq7ElvxzHPUWSjIMKqwQTEmtfY5WLA-XhuklLxulom3XIG9rtyCn8M65tEQjWZZuyT14Lf5GZuGCJDQ5DIpB69jz6E-Zs5VVFJupPy7L4afnTzOTyef9KuudnWvLBHV3Or_Gd2HFjea6LiUxrlUc_RVZnHfNZxM57oB-2miYmHpszvU86BlFWxD2xU-bYxEsCS2oTs4o3eGVz2U03ZwtHj0B47PGGZHpYKAPYvETUO1aIVX63V5k_MNWG_oaTj9PJV0ui_GR8-3aNsAGVZqFO5Y9icIlmH5FBc9RVQBkA9gNOLeormXck6FQiA9-gJWM9Cf--wpzqZv595SIq2bBdOT-TyA6kw5mQJaVhg_afZzsocFTMM_LnOivjQB7JoWV0wmMAtAToUyq5v5RhuE7h2IJdbrXJPWEXnGBAgPzRDyCG_c8uZEHMpluiCb9dE-ags9m2WUGoWJHFybNWUJ46NGNcgLC6jOTJhIO-yrJb3aHpYu76EfFBncCwjpdndlAltR1r5RT91lEQXOc7C6zQv5lnVdZfWtOsBI7sZm0rxUJCbDq_5tqQxeaFC7ekNSJxl4LwFkwEf8lcV4LzqGmiwZw-HDZXtJ046SIuNghjdBT7UYCiHK8iS0KN-Sae_TtcNJcSotIO3fbj1w8Gl1FMtAX90WstUBoHdJF4qaDPTn97QmkWc19tEQ3pW1rpKZ3losLXZ_4ttSHBW7udHJvQWvnxH_P7yZxSfooxL-GUyiyR3o9orhoOF2xzqPwGEuBuKRuAPvoRIl3KCxPyFi4uYDiUEQQNZ_n0Q16ZvQ1bCCsTC2NsErgqC3m3mclQporRehX_7BkTrdEZcuPSLOLEmt4MGb-dpJ4BywkJktXERJyIVLtmIohJMG3KW-M6j6hyg5A-cKJJLz9Lxx_evZE3TPZ-_ktzwPKEfp_XoB1Y6LApZgL46ipEWkg0JBlnxJH5TtjGldKKKVO6qVOLCs-yq3aWiT91kzILTumAdwlOHEPDWzAot5pZ7BNVHLxOHsXvy1Y0dHeg1p1br92F6wI8tNmR0GIwvivhq3qDRQ-JJzcl8RHhwcqXCgS7fR7Yw1xzJDHIYqpjIgi8XLTxFBtA3cqEfFbLJqvbfUGv5ryUgFW3gMYW7btFnoZb3hyPg4KcFgBaYQGoEcou2mh_qlkBRPMYyFVsRO0Zyi9EnoZjIt5LvSMh-oeTTMTPNTyWV6USjjiHTIBZ12fwO6bzqJbJ5zKfI16A2CBsro05UVLWpoe313uhlQh0BbDcTKtE-OO3ojbpaaQ95TRHGXN1GZf1O2P4x7TseGTSz-_6W1S_FmVa99KdrDA3MaS4JRt-B7VcmwEMZTRZZY_zDhDb4rlKCBGsm8Mm5hZ0RcfsjwNa8CmvF2ZEKJddDBn2jW733nnMNBUEb7NWdPl2IHm6d9jG55e3XmI5O-8kxtIkoeR6ecbctIgY9Iw5KWnXJRyZ5976KmZVp8A0IH2fDaz8gDwbGweIWoAZRGGJwAan7zmUShMeto-harskz8l2M67kzIXVzkqOnDFik_3JnpERFtlCpsUDnHPpKPNGFGz1dbnfL5hJbT0_frKQNxYdnKcY7uLReD3sYBXPrGj4XWRg5HltnKLxwyXV34cLINhAkNHyRM1_STdG8lUslvJHRAZZ4NG2_duHLkR6hI3pB2-1pHi8shPobKQHgRR-WZ0zT-BxQI8dNrnXheKKlfX_EBAToy1IAUB_y4Lr8c-jT5o0257-cJVUWlSlZipTHs-mYzu0yFI52ZAF9FB2HYf2VI5q9D6ifIH3ZWiu0r8V_Ivuo_qzj_uS5MJ9Hcjf2mP1NjOc1Q9tQoNvZ_xe8Lu9BQgbuGoajSfKZXDFNRpZ7kPLRGNHGPq0bESmBLfJ8BIbQ8fzWlzev6K3cUR3lE2wl2aaHE-SkBIdozmXj77nER9prRM6WFe9fQTT2oau_83kJPbvrePjaXvjFGSrjekMD6KwtZBUb4_oKtbDKqkdj7L429pDfsW_XSL3lbyftGY55zuTh8BKz51iX3emzSRD5PWVlI8vpT_GV7Ozz7yKSyqN2hhwBXCjvYPECuZAeMkicOqToJ1pbLAJEZWG3YBD15-xS9DUNQIPmKeqfQ7Dywex7U_VESc1IuL6kiFSIom8P7_LxBgZBP4sByt9MOChPV2pgtoNJlRuZqCp2XXve9H5YGQd9Rc2IWHXQ0xlCwN8bj0tnLttn4z7yPum1MGZKjLuqhOpSkq7S4UAMkeDTbB9eY4JJfnS-yAkSy5y_Bzl9JDMmR7EnxcRCVyHAXABFL1gix6IGbkO38mt1XDXA-es3DJ36in_9a1ssbkbWtcbr5V3AIGIZg3W8-ua7BIs-Vl-gETo3WCpbv5G4eVEr2LzEWCAvO_5ktGNivhhY1_2B9M-F02eG4EzxpsiUnrJPVCmGHIlI4sdhrEaZjGz_edbIIljURhLQTk0JpsVpBYlJTiRjzaFSAWBeOkFb3SSBOA32baXMSouw3dhG2fWyEt90WKmSEHIXSI3p9mRMkFekM1-TpnTWPoA6oZqJWDW4ervFsyDRkhGR-VRg6MgTlhRrHNzZMq6Yt0jXCqbrkFMoP8FkPhaDYgyvm7o-YYNG3de_Jt57yCc1TEtR2hiA90mgbM3hWgIY9bR5aUZaJAklKApmKPSN9lj6ZU0NoiMLItcLRiAsmePZfrT1ilIYvMOHYuke7t6xhZB6CpaBU2_9gG4MBgNSNe6z2qzB4wL9wUmSH1zpfTZm6YtuLX2kWgpMC6J7CE4aR8v1KsOrX5o-TmYosnXddllpzMtK5ygGYIApa4KqoYvHJRw8495eI=&quot;; session_id_ourhours=True; session_id_admin=127.0.0.1-5e4d5587-8e46-4ab9-bda4-cde90ee24cff</div></td></tr><tr><td style="font-weight:bold;vertical-align:top;">HTTP_HOST</td><td style="vertical-align:top;">:</td><td><div>127.0.0.1:8000</div></td></tr><tr><td style="font-weight:bold;vertical-align:top;">HTTP_ORIGIN</td><td style="vertical-align:top;">:</td><td><div>http://127.0.0.1:8000</div></td></tr><tr><td style="font-weight:bold;vertical-align:top;">HTTP_REFERER</td><td style="vertical-align:top;">:</td><td><div>http://127.0.0.1:8000/ourhours/default/join</div></td></tr><tr><td style="font-weight:bold;vertical-align:top;">HTTP_UPGRADE_INSECURE_REQUESTS</td><td style="vertical-align:top;">:</td><td><div>1</div></td></tr><tr><td style="font-weight:bold;vertical-align:top;">HTTP_USER_AGENT</td><td style="vertical-align:top;">:</td><td><div>Mozilla/5.0 (Windows NT 10.0; Win64; x64) AppleWebKit/537.36 (KHTML, like Gecko) Chrome/55.0.2883.87 Safari/537.36</div></td></tr><tr><td style="font-weight:bold;vertical-align:top;">PATH_INFO</td><td style="vertical-align:top;">:</td><td><div>/ourhours/default/join</div></td></tr><tr><td style="font-weight:bold;vertical-align:top;">QUERY_STRING</td><td style="vertical-align:top;">:</td><td><div></div></td></tr><tr><td style="font-weight:bold;vertical-align:top;">REMOTE_ADDR</td><td style="vertical-align:top;">:</td><td><div>127.0.0.1</div></td></tr><tr><td style="font-weight:bold;vertical-align:top;">REMOTE_PORT</td><td style="vertical-align:top;">:</td><td><div>55409</div></td></tr><tr><td style="font-weight:bold;vertical-align:top;">REQUEST_METHOD</td><td style="vertical-align:top;">:</td><td><div>POST</div></td></tr><tr><td style="font-weight:bold;vertical-align:top;">SCRIPT_NAME</td><td style="vertical-align:top;">:</td><td><div></div></td></tr><tr><td style="font-weight:bold;vertical-align:top;">SERVER_NAME</td><td style="vertical-align:top;">:</td><td><div>DESKTOP-GDD7DCK</div></td></tr><tr><td style="font-weight:bold;vertical-align:top;">SERVER_PORT</td><td style="vertical-align:top;">:</td><td><div>8000</div></td></tr><tr><td style="font-weight:bold;vertical-align:top;">SERVER_PROTOCOL</td><td style="vertical-align:top;">:</td><td><div>HTTP/1.1</div></td></tr><tr><td style="font-weight:bold;vertical-align:top;">SERVER_SOFTWARE</td><td style="vertical-align:top;">:</td><td><div>Rocket 1.2.6</div></td></tr><tr><td style="font-weight:bold;vertical-align:top;">app_folders</td><td style="vertical-align:top;">:</td><td><div>set([&#x27;C:\\\\Users\\\\Wesly\\\\Desktop\\\\UCSC-Hack-2017\\\\applications\\\\welcome\\\\&#x27;, &#x27;C:\\\\Users\\\\Wesly\\\\Desktop\\\\UCSC-Hack-2017\\\\applications\\\\examples\\\\&#x27;, &#x27;C:\\\\Users\\\\Wesly\\\\Desktop\\\\UCSC-Hack-2017\\\\applications\\\\ourhours\\\\&#x27;, &#x27;C:\\\\Users\\\\Wesly\\\\Desktop\\\\UCSC-Hack-2017\\\\applications\\\\admin\\\\&#x27;])</div></td></tr><tr><td style="font-weight:bold;vertical-align:top;">applications_parent</td><td style="vertical-align:top;">:</td><td><div>C:\\Users\\Wesly\\Desktop\\UCSC-Hack-2017</div></td></tr><tr><td style="font-weight:bold;vertical-align:top;">cmd_args</td><td style="vertical-align:top;">:</td><td><div><table></table></div></td></tr><tr><td style="font-weight:bold;vertical-align:top;">cmd_options</td><td style="vertical-align:top;">:</td><td><div>&lt;Values at 0x2ddaeb8: {&#x27;verbose&#x27;: False, &#x27;ip&#x27;: &#x27;127.0.0.1&#x27;, &#x27;debuglevel&#x27;: 30, &#x27;with_scheduler&#x27;: False, &#x27;shutdown_timeout&#x27;: 5, &#x27;taskbar&#x27;: False, &#x27;with_coverage&#x27;: False, &#x27;pid_filename&#x27;: &#x27;httpserver.pid&#x27;, &#x27;maxthreads&#x27;: None, &#x27;softcron&#x27;: False, &#x27;server_name&#x27;: &#x27;DESKTOP-GDD7DCK&#x27;, &#x27;bpython&#x27;: False, &#x27;nogui&#x27;: False, &#x27;port&#x27;: 8000, &#x27;print_errors&#x27;: False, &#x27;extcron&#x27;: False, &#x27;runcron&#x27;: False, &#x27;run_system_tests&#x27;: False, &#x27;test&#x27;: None, &#x27;folder&#x27;: &#x27;C:\\\\Users\\\\Wesly\\\\Desktop\\\\UCSC-Hack-2017&#x27;, &#x27;config&#x27;: &#x27;&#x27;, &#x27;minthreads&#x27;: None, &#x27;shell&#x27;: None, &#x27;run&#x27;: &#x27;&#x27;, &#x27;log_filename&#x27;: &#x27;httpserver.log&#x27;, &#x27;profiler_dir&#x27;: None, &#x27;args&#x27;: [&#x27;&#x27;], &#x27;socket_timeout&#x27;: 5, &#x27;ssl_ca_certificate&#x27;: None, &#x27;scheduler&#x27;: None, &#x27;interfaces&#x27;: None, &#x27;ssl_private_key&#x27;: &#x27;&#x27;, &#x27;gae&#x27;: None, &#x27;password&#x27;: &#x27;******&#x27;, &#x27;request_queue_size&#x27;: 5, &#x27;ssl_certificate&#x27;: &#x27;&#x27;, &#x27;cronjob&#x27;: False, &#x27;numthreads&#x27;: None, &#x27;quiet&#x27;: False, &#x27;import_models&#x27;: False, &#x27;timeout&#x27;: 10, &#x27;plain&#x27;: False, &#x27;nobanner&#x27;: False}&gt;</div></td></tr><tr><td style="font-weight:bold;vertical-align:top;">content_length</td><td style="vertical-align:top;">:</td><td><div>389</div></td></tr><tr><td style="font-weight:bold;vertical-align:top;">content_type</td><td style="vertical-align:top;">:</td><td><div>multipart/form-data; boundary=----WebKitFormBoundaryZcwnw2N60ZJFKfuP</div></td></tr><tr><td style="font-weight:bold;vertical-align:top;">db_sessions</td><td style="vertical-align:top;">:</td><td><div>set([])</div></td></tr><tr><td style="font-weight:bold;vertical-align:top;">debugging</td><td style="vertical-align:top;">:</td><td><div>True</div></td></tr><tr><td style="font-weight:bold;vertical-align:top;">gluon_parent</td><td style="vertical-align:top;">:</td><td><div>C:\\Users\\Wesly\\Desktop\\UCSC-Hack-2017</div></td></tr><tr><td style="font-weight:bold;vertical-align:top;">http_accept</td><td style="vertical-align:top;">:</td><td><div>text/html,application/xhtml+xml,application/xml;q=0.9,image/webp,*/*;q=0.8</div></td></tr><tr><td style="font-weight:bold;vertical-align:top;">http_accept_encoding</td><td style="vertical-align:top;">:</td><td><div>gzip, deflate, br</div></td></tr><tr><td style="font-weight:bold;vertical-align:top;">http_accept_language</td><td style="vertical-align:top;">:</td><td><div>en-US,en;q=0.8</div></td></tr><tr><td style="font-weight:bold;vertical-align:top;">http_cache_control</td><td style="vertical-align:top;">:</td><td><div>max-age=0</div></td></tr><tr><td style="font-weight:bold;vertical-align:top;">http_connection</td><td style="vertical-align:top;">:</td><td><div>keep-alive</div></td></tr><tr><td style="font-weight:bold;vertical-align:top;">http_content_length</td><td style="vertical-align:top;">:</td><td><div>389</div></td></tr><tr><td style="font-weight:bold;vertical-align:top;">http_content_type</td><td style="vertical-align:top;">:</td><td><div>multipart/form-data; boundary=----WebKitFormBoundaryZcwnw2N60ZJFKfuP</div></td></tr><tr><td style="font-weight:bold;vertical-align:top;">http_cookie</td><td style="vertical-align:top;">:</td><td><div>session_id_layouttest=127.0.0.1-9dd550cb-7d25-4599-add6-bbf406414416; resolution=1349; session_id_hackathon=127.0.0.1-e9d19e57-2c82-4246-95e2-3afb87897355; session_id_hw=127.0.0.1-23223d0c-fdad-4421-b0fa-bfb22452a98b; session_id_welcome=127.0.0.1-3404b542-72e6-426d-9bd7-f225ed0f1803; session_data_ourhours=&quot;1942d488a96062d9b91efb18af65bebf:6FiKyTnmgZrtAZ0tBiQcf4cKCG8uLXmIdNsQXpvB6Z98IYp9SoXjJkbzfOR5BVAVGUwWqUN0BPNYVZ7qR_doN_nN2LzuXbbKHEXUqX0px7HVIg-RkWUi-MexQgHVbEG6kC4vU_mintt8RSyi9sYw5COvPnGf1PkFMBddmhEv7SWI8VHfDkcl0ik4x8svLla0IK7PKz8IdJBwzqa_oNvLFQ5qs-CCcJZIf6F5GdQD1p_g4QESpNeygmfQvKqevduvKfbQ0A1TrrBPVMfI4ciHBTHwOgMmizzM5B5SRj4pgXtbDqN-cKDyuS1PCG-ueVfMfezE7sfS6agT4_kPElv8_hNsPBErlLdnih95y-V7kQpdh8pszwXVKaT6AHMTCygmoTQmDpVWbQOCWVakgym47kyctlEKUacYr6L9v-N6r70LuDKMLWYv9PMrm7S9CV7SthNIgqjGKBFwPtHoWE6AwmZstn40ybQhUhEb9RJ9bLgYBNnVgPLwkNQrEyi2JBHjCDckzFsasuuAC1LnkA5gwaVHrDVI263zybx1Ed_zETg-NjxcUIvQh3e-qnbsUA3WNffbxlDQw7ZwO6Flp63P8boFzR9Lmd5Ri_ftaGyUjb2hgIyy6eb-iCG3h_C1UoZuMKQVU7oOnSX4IrJpTBpKBhdRDlgAlGMEQ_HW94ZtMNilGbRmlKnA66zM7phJwmVOUMy5f6VB_T-Kdb3CFFvUlzFAPgZmsvCZy4Dpy1iP-Xklylad6QMHLbFTw_Ygtttc5-NbqozAmQY2_is8k7Afnx1QV5RgxVgsBz5QN2PC6TDLQTRvwR_7tSH5fLSUKpTJWK8a0XaZgnFkQRk_Updzcnbr_nVHwq7ElvxzHPUWSjIMKqwQTEmtfY5WLA-XhuklLxulom3XIG9rtyCn8M65tEQjWZZuyT14Lf5GZuGCJDQ5DIpB69jz6E-Zs5VVFJupPy7L4afnTzOTyef9KuudnWvLBHV3Or_Gd2HFjea6LiUxrlUc_RVZnHfNZxM57oB-2miYmHpszvU86BlFWxD2xU-bYxEsCS2oTs4o3eGVz2U03ZwtHj0B47PGGZHpYKAPYvETUO1aIVX63V5k_MNWG_oaTj9PJV0ui_GR8-3aNsAGVZqFO5Y9icIlmH5FBc9RVQBkA9gNOLeormXck6FQiA9-gJWM9Cf--wpzqZv595SIq2bBdOT-TyA6kw5mQJaVhg_afZzsocFTMM_LnOivjQB7JoWV0wmMAtAToUyq5v5RhuE7h2IJdbrXJPWEXnGBAgPzRDyCG_c8uZEHMpluiCb9dE-ags9m2WUGoWJHFybNWUJ46NGNcgLC6jOTJhIO-yrJb3aHpYu76EfFBncCwjpdndlAltR1r5RT91lEQXOc7C6zQv5lnVdZfWtOsBI7sZm0rxUJCbDq_5tqQxeaFC7ekNSJxl4LwFkwEf8lcV4LzqGmiwZw-HDZXtJ046SIuNghjdBT7UYCiHK8iS0KN-Sae_TtcNJcSotIO3fbj1w8Gl1FMtAX90WstUBoHdJF4qaDPTn97QmkWc19tEQ3pW1rpKZ3losLXZ_4ttSHBW7udHJvQWvnxH_P7yZxSfooxL-GUyiyR3o9orhoOF2xzqPwGEuBuKRuAPvoRIl3KCxPyFi4uYDiUEQQNZ_n0Q16ZvQ1bCCsTC2NsErgqC3m3mclQporRehX_7BkTrdEZcuPSLOLEmt4MGb-dpJ4BywkJktXERJyIVLtmIohJMG3KW-M6j6hyg5A-cKJJLz9Lxx_evZE3TPZ-_ktzwPKEfp_XoB1Y6LApZgL46ipEWkg0JBlnxJH5TtjGldKKKVO6qVOLCs-yq3aWiT91kzILTumAdwlOHEPDWzAot5pZ7BNVHLxOHsXvy1Y0dHeg1p1br92F6wI8tNmR0GIwvivhq3qDRQ-JJzcl8RHhwcqXCgS7fR7Yw1xzJDHIYqpjIgi8XLTxFBtA3cqEfFbLJqvbfUGv5ryUgFW3gMYW7btFnoZb3hyPg4KcFgBaYQGoEcou2mh_qlkBRPMYyFVsRO0Zyi9EnoZjIt5LvSMh-oeTTMTPNTyWV6USjjiHTIBZ12fwO6bzqJbJ5zKfI16A2CBsro05UVLWpoe313uhlQh0BbDcTKtE-OO3ojbpaaQ95TRHGXN1GZf1O2P4x7TseGTSz-_6W1S_FmVa99KdrDA3MaS4JRt-B7VcmwEMZTRZZY_zDhDb4rlKCBGsm8Mm5hZ0RcfsjwNa8CmvF2ZEKJddDBn2jW733nnMNBUEb7NWdPl2IHm6d9jG55e3XmI5O-8kxtIkoeR6ecbctIgY9Iw5KWnXJRyZ5976KmZVp8A0IH2fDaz8gDwbGweIWoAZRGGJwAan7zmUShMeto-harskz8l2M67kzIXVzkqOnDFik_3JnpERFtlCpsUDnHPpKPNGFGz1dbnfL5hJbT0_frKQNxYdnKcY7uLReD3sYBXPrGj4XWRg5HltnKLxwyXV34cLINhAkNHyRM1_STdG8lUslvJHRAZZ4NG2_duHLkR6hI3pB2-1pHi8shPobKQHgRR-WZ0zT-BxQI8dNrnXheKKlfX_EBAToy1IAUB_y4Lr8c-jT5o0257-cJVUWlSlZipTHs-mYzu0yFI52ZAF9FB2HYf2VI5q9D6ifIH3ZWiu0r8V_Ivuo_qzj_uS5MJ9Hcjf2mP1NjOc1Q9tQoNvZ_xe8Lu9BQgbuGoajSfKZXDFNRpZ7kPLRGNHGPq0bESmBLfJ8BIbQ8fzWlzev6K3cUR3lE2wl2aaHE-SkBIdozmXj77nER9prRM6WFe9fQTT2oau_83kJPbvrePjaXvjFGSrjekMD6KwtZBUb4_oKtbDKqkdj7L429pDfsW_XSL3lbyftGY55zuTh8BKz51iX3emzSRD5PWVlI8vpT_GV7Ozz7yKSyqN2hhwBXCjvYPECuZAeMkicOqToJ1pbLAJEZWG3YBD15-xS9DUNQIPmKeqfQ7Dywex7U_VESc1IuL6kiFSIom8P7_LxBgZBP4sByt9MOChPV2pgtoNJlRuZqCp2XXve9H5YGQd9Rc2IWHXQ0xlCwN8bj0tnLttn4z7yPum1MGZKjLuqhOpSkq7S4UAMkeDTbB9eY4JJfnS-yAkSy5y_Bzl9JDMmR7EnxcRCVyHAXABFL1gix6IGbkO38mt1XDXA-es3DJ36in_9a1ssbkbWtcbr5V3AIGIZg3W8-ua7BIs-Vl-gETo3WCpbv5G4eVEr2LzEWCAvO_5ktGNivhhY1_2B9M-F02eG4EzxpsiUnrJPVCmGHIlI4sdhrEaZjGz_edbIIljURhLQTk0JpsVpBYlJTiRjzaFSAWBeOkFb3SSBOA32baXMSouw3dhG2fWyEt90WKmSEHIXSI3p9mRMkFekM1-TpnTWPoA6oZqJWDW4ervFsyDRkhGR-VRg6MgTlhRrHNzZMq6Yt0jXCqbrkFMoP8FkPhaDYgyvm7o-YYNG3de_Jt57yCc1TEtR2hiA90mgbM3hWgIY9bR5aUZaJAklKApmKPSN9lj6ZU0NoiMLItcLRiAsmePZfrT1ilIYvMOHYuke7t6xhZB6CpaBU2_9gG4MBgNSNe6z2qzB4wL9wUmSH1zpfTZm6YtuLX2kWgpMC6J7CE4aR8v1KsOrX5o-TmYosnXddllpzMtK5ygGYIApa4KqoYvHJRw8495eI=&quot;; session_id_ourhours=True; session_id_admin=127.0.0.1-5e4d5587-8e46-4ab9-bda4-cde90ee24cff</div></td></tr><tr><td style="font-weight:bold;vertical-align:top;">http_host</td><td style="vertical-align:top;">:</td><td><div>127.0.0.1:8000</div></td></tr><tr><td style="font-weight:bold;vertical-align:top;">http_origin</td><td style="vertical-align:top;">:</td><td><div>http://127.0.0.1:8000</div></td></tr><tr><td style="font-weight:bold;vertical-align:top;">http_referer</td><td style="vertical-align:top;">:</td><td><div>http://127.0.0.1:8000/ourhours/default/join</div></td></tr><tr><td style="font-weight:bold;vertical-align:top;">http_upgrade_insecure_requests</td><td style="vertical-align:top;">:</td><td><div>1</div></td></tr><tr><td style="font-weight:bold;vertical-align:top;">http_user_agent</td><td style="vertical-align:top;">:</td><td><div>Mozilla/5.0 (Windows NT 10.0; Win64; x64) AppleWebKit/537.36 (KHTML, like Gecko) Chrome/55.0.2883.87 Safari/537.36</div></td></tr><tr><td style="font-weight:bold;vertical-align:top;">is_jython</td><td style="vertical-align:top;">:</td><td><div>False</div></td></tr><tr><td style="font-weight:bold;vertical-align:top;">is_pypy</td><td style="vertical-align:top;">:</td><td><div>False</div></td></tr><tr><td style="font-weight:bold;vertical-align:top;">is_source</td><td style="vertical-align:top;">:</td><td><div>False</div></td></tr><tr><td style="font-weight:bold;vertical-align:top;">local_hosts</td><td style="vertical-align:top;">:</td><td><div><table><tr><td><div>fe80::81f2:e7ae:7efe:f1e7%23</div></td></tr><tr><td><div>DESKTOP-GDD7DCK</div></td></tr><tr><td><div>::ffff:127.0.0.1</div></td></tr><tr><td><div>::1</div></td></tr><tr><td><div>fe80::5efe:192.168.1.135%21</div></td></tr><tr><td><div>192.168.1.135</div></td></tr><tr><td><div>fe80::e941:c1cf:aca3:e27d%22</div></td></tr><tr><td><div>127.0.0.1</div></td></tr><tr><td><div>192.168.56.1</div></td></tr></table></div></td></tr><tr><td style="font-weight:bold;vertical-align:top;">path_info</td><td style="vertical-align:top;">:</td><td><div>/ourhours/default/join</div></td></tr><tr><td style="font-weight:bold;vertical-align:top;">query_string</td><td style="vertical-align:top;">:</td><td><div></div></td></tr><tr><td style="font-weight:bold;vertical-align:top;">remote_addr</td><td style="vertical-align:top;">:</td><td><div>127.0.0.1</div></td></tr><tr><td style="font-weight:bold;vertical-align:top;">remote_port</td><td style="vertical-align:top;">:</td><td><div>55409</div></td></tr><tr><td style="font-weight:bold;vertical-align:top;">request_method</td><td style="vertical-align:top;">:</td><td><div>POST</div></td></tr><tr><td style="font-weight:bold;vertical-align:top;">request_uri</td><td style="vertical-align:top;">:</td><td><div>/ourhours/default/join</div></td></tr><tr><td style="font-weight:bold;vertical-align:top;">script_name</td><td style="vertical-align:top;">:</td><td><div></div></td></tr><tr><td style="font-weight:bold;vertical-align:top;">server_name</td><td style="vertical-align:top;">:</td><td><div>DESKTOP-GDD7DCK</div></td></tr><tr><td style="font-weight:bold;vertical-align:top;">server_port</td><td style="vertical-align:top;">:</td><td><div>8000</div></td></tr><tr><td style="font-weight:bold;vertical-align:top;">server_protocol</td><td style="vertical-align:top;">:</td><td><div>HTTP/1.1</div></td></tr><tr><td style="font-weight:bold;vertical-align:top;">server_software</td><td style="vertical-align:top;">:</td><td><div>Rocket 1.2.6</div></td></tr><tr><td style="font-weight:bold;vertical-align:top;">web2py_path</td><td style="vertical-align:top;">:</td><td><div>C:\\Users\\Wesly\\Desktop\\UCSC-Hack-2017</div></td></tr><tr><td style="font-weight:bold;vertical-align:top;">web2py_version</td><td style="vertical-align:top;">:</td><td><div>2.14.6-stable+timestamp.2016.05.10.00.21.47</div></td></tr><tr><td style="font-weight:bold;vertical-align:top;">wsgi.errors</td><td style="vertical-align:top;">:</td><td><div>&lt;open file &#x27;&lt;stderr&gt;&#x27;, mode &#x27;w&#x27; at 0x0221D0D0&gt;</div></td></tr><tr><td style="font-weight:bold;vertical-align:top;">wsgi.file_wrapper</td><td style="vertical-align:top;">:</td><td><div>&lt;class wsgiref.util.FileWrapper at 0x0321F148&gt;</div></td></tr><tr><td style="font-weight:bold;vertical-align:top;">wsgi.input</td><td style="vertical-align:top;">:</td><td><div>&lt;socket._fileobject object at 0x087DE9B0&gt;</div></td></tr><tr><td style="font-weight:bold;vertical-align:top;">wsgi.multiprocess</td><td style="vertical-align:top;">:</td><td><div>False</div></td></tr><tr><td style="font-weight:bold;vertical-align:top;">wsgi.multithread</td><td style="vertical-align:top;">:</td><td><div>True</div></td></tr><tr><td style="font-weight:bold;vertical-align:top;">wsgi.run_once</td><td style="vertical-align:top;">:</td><td><div>False</div></td></tr><tr><td style="font-weight:bold;vertical-align:top;">wsgi.url_scheme</td><td style="vertical-align:top;">:</td><td><div>http</div></td></tr><tr><td style="font-weight:bold;vertical-align:top;">wsgi.version</td><td style="vertical-align:top;">:</td><td><div><table><tr><td><div>1</div></td></tr><tr><td><div>0</div></td></tr></table></div></td></tr><tr><td style="font-weight:bold;vertical-align:top;">wsgi_errors</td><td style="vertical-align:top;">:</td><td><div>&lt;open file &#x27;&lt;stderr&gt;&#x27;, mode &#x27;w&#x27; at 0x0221D0D0&gt;</div></td></tr><tr><td style="font-weight:bold;vertical-align:top;">wsgi_file_wrapper</td><td style="vertical-align:top;">:</td><td><div>&lt;class wsgiref.util.FileWrapper at 0x0321F148&gt;</div></td></tr><tr><td style="font-weight:bold;vertical-align:top;">wsgi_input</td><td style="vertical-align:top;">:</td><td><div>&lt;socket._fileobject object at 0x087DE9B0&gt;</div></td></tr><tr><td style="font-weight:bold;vertical-align:top;">wsgi_multiprocess</td><td style="vertical-align:top;">:</td><td><div>False</div></td></tr><tr><td style="font-weight:bold;vertical-align:top;">wsgi_multithread</td><td style="vertical-align:top;">:</td><td><div>True</div></td></tr><tr><td style="font-weight:bold;vertical-align:top;">wsgi_run_once</td><td style="vertical-align:top;">:</td><td><div>False</div></td></tr><tr><td style="font-weight:bold;vertical-align:top;">wsgi_url_scheme</td><td style="vertical-align:top;">:</td><td><div>http</div></td></tr><tr><td style="font-weight:bold;vertical-align:top;">wsgi_version</td><td style="vertical-align:top;">:</td><td><div><table><tr><td><div>1</div></td></tr><tr><td><div>0</div></td></tr></table></div></td></tr></table></div></td></tr><tr><td style="font-weight:bold;vertical-align:top;">extension</td><td style="vertical-align:top;">:</td><td><div>html</div></td></tr><tr><td style="font-weight:bold;vertical-align:top;">folder</td><td style="vertical-align:top;">:</td><td><div>C:\\Users\\Wesly\\Desktop\\UCSC-Hack-2017\\applications\\ourhours\\</div></td></tr><tr><td style="font-weight:bold;vertical-align:top;">function</td><td style="vertical-align:top;">:</td><td><div>join</div></td></tr><tr><td style="font-weight:bold;vertical-align:top;">global_settings</td><td style="vertical-align:top;">:</td><td><div><table><tr><td style="font-weight:bold;vertical-align:top;">app_folders</td><td style="vertical-align:top;">:</td><td><div>set([&#x27;C:\\\\Users\\\\Wesly\\\\Desktop\\\\UCSC-Hack-2017\\\\applications\\\\welcome\\\\&#x27;, &#x27;C:\\\\Users\\\\Wesly\\\\Desktop\\\\UCSC-Hack-2017\\\\applications\\\\examples\\\\&#x27;, &#x27;C:\\\\Users\\\\Wesly\\\\Desktop\\\\UCSC-Hack-2017\\\\applications\\\\ourhours\\\\&#x27;, &#x27;C:\\\\Users\\\\Wesly\\\\Desktop\\\\UCSC-Hack-2017\\\\applications\\\\admin\\\\&#x27;])</div></td></tr><tr><td style="font-weight:bold;vertical-align:top;">applications_parent</td><td style="vertical-align:top;">:</td><td><div>C:\\Users\\Wesly\\Desktop\\UCSC-Hack-2017</div></td></tr><tr><td style="font-weight:bold;vertical-align:top;">cmd_args</td><td style="vertical-align:top;">:</td><td><div><table></table></div></td></tr><tr><td style="font-weight:bold;vertical-align:top;">cmd_options</td><td style="vertical-align:top;">:</td><td><div>&lt;Values at 0x2ddaeb8: {&#x27;verbose&#x27;: False, &#x27;ip&#x27;: &#x27;127.0.0.1&#x27;, &#x27;debuglevel&#x27;: 30, &#x27;with_scheduler&#x27;: False, &#x27;shutdown_timeout&#x27;: 5, &#x27;taskbar&#x27;: False, &#x27;with_coverage&#x27;: False, &#x27;pid_filename&#x27;: &#x27;httpserver.pid&#x27;, &#x27;maxthreads&#x27;: None, &#x27;softcron&#x27;: False, &#x27;server_name&#x27;: &#x27;DESKTOP-GDD7DCK&#x27;, &#x27;bpython&#x27;: False, &#x27;nogui&#x27;: False, &#x27;port&#x27;: 8000, &#x27;print_errors&#x27;: False, &#x27;extcron&#x27;: False, &#x27;runcron&#x27;: False, &#x27;run_system_tests&#x27;: False, &#x27;test&#x27;: None, &#x27;folder&#x27;: &#x27;C:\\\\Users\\\\Wesly\\\\Desktop\\\\UCSC-Hack-2017&#x27;, &#x27;config&#x27;: &#x27;&#x27;, &#x27;minthreads&#x27;: None, &#x27;shell&#x27;: None, &#x27;run&#x27;: &#x27;&#x27;, &#x27;log_filename&#x27;: &#x27;httpserver.log&#x27;, &#x27;profiler_dir&#x27;: None, &#x27;args&#x27;: [&#x27;&#x27;], &#x27;socket_timeout&#x27;: 5, &#x27;ssl_ca_certificate&#x27;: None, &#x27;scheduler&#x27;: None, &#x27;interfaces&#x27;: None, &#x27;ssl_private_key&#x27;: &#x27;&#x27;, &#x27;gae&#x27;: None, &#x27;password&#x27;: &#x27;******&#x27;, &#x27;request_queue_size&#x27;: 5, &#x27;ssl_certificate&#x27;: &#x27;&#x27;, &#x27;cronjob&#x27;: False, &#x27;numthreads&#x27;: None, &#x27;quiet&#x27;: False, &#x27;import_models&#x27;: False, &#x27;timeout&#x27;: 10, &#x27;plain&#x27;: False, &#x27;nobanner&#x27;: False}&gt;</div></td></tr><tr><td style="font-weight:bold;vertical-align:top;">db_sessions</td><td style="vertical-align:top;">:</td><td><div>set([])</div></td></tr><tr><td style="font-weight:bold;vertical-align:top;">debugging</td><td style="vertical-align:top;">:</td><td><div>True</div></td></tr><tr><td style="font-weight:bold;vertical-align:top;">gluon_parent</td><td style="vertical-align:top;">:</td><td><div>C:\\Users\\Wesly\\Desktop\\UCSC-Hack-2017</div></td></tr><tr><td style="font-weight:bold;vertical-align:top;">is_jython</td><td style="vertical-align:top;">:</td><td><div>False</div></td></tr><tr><td style="font-weight:bold;vertical-align:top;">is_pypy</td><td style="vertical-align:top;">:</td><td><div>False</div></td></tr><tr><td style="font-weight:bold;vertical-align:top;">is_source</td><td style="vertical-align:top;">:</td><td><div>False</div></td></tr><tr><td style="font-weight:bold;vertical-align:top;">local_hosts</td><td style="vertical-align:top;">:</td><td><div><table><tr><td><div>fe80::81f2:e7ae:7efe:f1e7%23</div></td></tr><tr><td><div>DESKTOP-GDD7DCK</div></td></tr><tr><td><div>::ffff:127.0.0.1</div></td></tr><tr><td><div>::1</div></td></tr><tr><td><div>fe80::5efe:192.168.1.135%21</div></td></tr><tr><td><div>192.168.1.135</div></td></tr><tr><td><div>fe80::e941:c1cf:aca3:e27d%22</div></td></tr><tr><td><div>127.0.0.1</div></td></tr><tr><td><div>192.168.56.1</div></td></tr></table></div></td></tr><tr><td style="font-weight:bold;vertical-align:top;">web2py_version</td><td style="vertical-align:top;">:</td><td><div>2.14.6-stable+timestamp.2016.05.10.00.21.47</div></td></tr></table></div></td></tr><tr><td style="font-weight:bold;vertical-align:top;">is_https</td><td style="vertical-align:top;">:</td><td><div>False</div></td></tr><tr><td style="font-weight:bold;vertical-align:top;">is_local</td><td style="vertical-align:top;">:</td><td><div>True</div></td></tr><tr><td style="font-weight:bold;vertical-align:top;">is_restful</td><td style="vertical-align:top;">:</td><td><div>False</div></td></tr><tr><td style="font-weight:bold;vertical-align:top;">is_scheduler</td><td style="vertical-align:top;">:</td><td><div>False</div></td></tr><tr><td style="font-weight:bold;vertical-align:top;">is_shell</td><td style="vertical-align:top;">:</td><td><div>False</div></td></tr><tr><td style="font-weight:bold;vertical-align:top;">now</td><td style="vertical-align:top;">:</td><td><div>datetime.datetime(2017, 1, 21, 23, 8, 46, 322000)</div></td></tr><tr><td style="font-weight:bold;vertical-align:top;">raw_args</td><td style="vertical-align:top;">:</td><td><div></div></td></tr><tr><td style="font-weight:bold;vertical-align:top;">raw_extension</td><td style="vertical-align:top;">:</td><td><div>None</div></td></tr><tr><td style="font-weight:bold;vertical-align:top;">url</td><td style="vertical-align:top;">:</td><td><div>/ourhours/default/join</div></td></tr><tr><td style="font-weight:bold;vertical-align:top;">utcnow</td><td style="vertical-align:top;">:</td><td><div>datetime.datetime(2017, 1, 22, 7, 8, 46, 322000)</div></td></tr><tr><td style="font-weight:bold;vertical-align:top;">wsgi</td><td style="vertical-align:top;">:</td><td><div>&lt;gluon.main.LazyWSGI object at 0x07DEB890&gt;</div></td></tr></table></div>'
tRp58
sS'frames'
p59
(lp60
(dp61
S'file'
p62
S'C:\\Users\\Wesly\\Desktop\\UCSC-Hack-2017\\gluon\\restricted.py'
p63
sS'dump'
p64
(dp65
S'environment'
p66
S"{'A': <class 'gluon.html.A'>, 'ANY_OF': <class 'gluon.validators.ANY_OF'>, 'ASSIGNJS': <function ASSIGNJS>, 'Auth': <class 'gluon.tools.Auth'>, 'B': <class 'gluon.html.B'>, 'BEAUTIFY': <class 'gluon.html.BEAUTIFY'>, 'BODY': <class 'gluon.html.BODY'>, 'BR': <class 'gluon.html.BR'>, 'BUTTON': <class 'gluon.html.BUTTON'>, 'CAT': <class 'gluon.html.CAT'>, ...}"
p67
sS'ccode'
p68
S'<code object <module> at 07CBBB18, file "C:\\User...cations\\ourhours\\controllers/default.py", line 1>'
p69
ssS'lnum'
p70
I227
sS'lines'
p71
(dp72
I224
S'            ccode = code'
p73
sI225
S'        else:'
p74
sI226
S'            ccode = compile2(code, layer)'
p75
sI227
S'        exec ccode in environment'
p76
sI228
S'    except HTTP:'
p77
sI229
S'        raise'
p78
sI230
S'    except RestrictedError:'
p79
sI231
S'        # do not encapsulate (obfuscate) the original RestrictedError'
p80
sI222
S'    try:'
p81
sI223
S'        if isinstance(code, types.CodeType):'
p82
ssS'call'
p83
S"(code='from gluon.tools import Mail\\nimport imaplib\\nimpo...quest, db)\\nresponse._vars=response._caller(join)\\n', environment={'A': <class 'gluon.html.A'>, 'ANY_OF': <class 'gluon.validators.ANY_OF'>, 'ASSIGNJS': <function ASSIGNJS>, 'Auth': <class 'gluon.tools.Auth'>, 'B': <class 'gluon.html.B'>, 'BEAUTIFY': <class 'gluon.html.BEAUTIFY'>, 'BODY': <class 'gluon.html.BODY'>, 'BR': <class 'gluon.html.BR'>, 'BUTTON': <class 'gluon.html.BUTTON'>, 'CAT': <class 'gluon.html.CAT'>, ...}, layer=r'C:\\Users\\Wesly\\Desktop\\UCSC-Hack-2017\\applications\\ourhours\\controllers/default.py')"
p84
sS'func'
p85
S'restricted'
p86
sa(dp87
g62
S'C:\\Users\\Wesly\\Desktop\\UCSC-Hack-2017\\applications\\ourhours\\controllers\\default.py'
p88
sg64
(dp89
sg70
I61
sg71
(dp90
I51
S'    return locals()'
p91
sI52
S''
sI53
S'def user():'
p92
sI54
S'    return dict(form=auth())'
p93
sI55
S''
sI56
S'def download():'
p94
sI57
S'    return response.download(request, db)'
p95
sI58
S''
sI59
S'def picture():'
p96
sI60
S'    return response.view(request, db)'
p97
ssg83
S'()'
p98
sg85
S'<module>'
p99
sa(dp100
g62
S'C:\\Users\\Wesly\\Desktop\\UCSC-Hack-2017\\gluon\\globals.py'
p101
sg64
(dp102
S'self'
p103
S'undefined'
p104
sS'f'
S'<function join>'
p105
ssg70
I417
sg71
(dp106
I416
S'        self._vars = None'
p107
sI417
S'        self._caller = lambda f: f()'
p108
sI418
S'        self._view_environment = None'
p109
sI419
S'        self._custom_commit = None'
p110
sI420
S'        self._custom_rollback = None'
p111
sI421
S"        self.generic_patterns = ['*']"
p112
sI412
S"        self.flash = ''            # used by the default view layout"
p113
sI413
S'        self.meta = Storage()      # used by web2py_ajax.html'
p114
sI414
S'        self.menu = []             # used by the default view layout'
p115
sI415
S'        self.files = []            # used by web2py_ajax.html'
p116
ssg83
S'(f=<function join>)'
p117
sg85
S'<lambda>'
p118
sa(dp119
g62
S'C:\\Users\\Wesly\\Desktop\\UCSC-Hack-2017\\applications\\ourhours\\controllers\\default.py'
p120
sg64
(dp121
S'global db'
p122
S'<DAL uri="sqlite://storage.sqlite">'
p123
sS'ALL'
p124
g104
sS'db.groups'
p125
S'<Table groups (id, group_name, optional_group_photo, group_code, group_description)>'
p126
sS'groups'
p127
g104
sS').select'
p128
g104
ssg70
I23
sg71
(dp129
I18
S''
sI19
S"        redirect(URL('index'))"
p130
sI20
S'    return locals()'
p131
sI21
S''
sI22
S'def join():'
p132
sI23
S'    groups = db(db.groups).select(ALL)'
p133
sI24
S'    form = SQLFORM(db.join_group, deletable=True).process()'
p134
sI25
S'    if form.accepted:'
p135
sI26
S'        for groups in groups:'
p136
sI27
S'            if request.vars.join_code in groups.group_code:'
p137
ssg83
S'()'
p138
sg85
S'join'
p139
sasS'pyver'
p140
S'Python 2.7.9: C:\\Users\\Wesly\\Desktop\\UCSC-Hack-2017\\web2py.exe (prefix: )'
p141
sS'session'
p142
g57
(S's\x80\n\x00\x00<div><table><tr><td style="font-weight:bold;vertical-align:top;">auth</td><td style="vertical-align:top;">:</td><td><div><table><tr><td style="font-weight:bold;vertical-align:top;">expiration</td><td style="vertical-align:top;">:</td><td><div>3600</div></td></tr><tr><td style="font-weight:bold;vertical-align:top;">hmac_key</td><td style="vertical-align:top;">:</td><td><div>c7047707-286e-408d-8699-5271756390e2</div></td></tr><tr><td style="font-weight:bold;vertical-align:top;">last_visit</td><td style="vertical-align:top;">:</td><td><div>datetime.datetime(2017, 1, 21, 22, 52, 59, 99000)</div></td></tr><tr><td style="font-weight:bold;vertical-align:top;">remember_me</td><td style="vertical-align:top;">:</td><td><div>False</div></td></tr><tr><td style="font-weight:bold;vertical-align:top;">user</td><td style="vertical-align:top;">:</td><td><div><table><tr><td style="font-weight:bold;vertical-align:top;">email</td><td style="vertical-align:top;">:</td><td><div>welim@ucsc.edu</div></td></tr><tr><td style="font-weight:bold;vertical-align:top;">first_name</td><td style="vertical-align:top;">:</td><td><div>Wesly</div></td></tr><tr><td style="font-weight:bold;vertical-align:top;">id</td><td style="vertical-align:top;">:</td><td><div>1L</div></td></tr><tr><td style="font-weight:bold;vertical-align:top;">last_name</td><td style="vertical-align:top;">:</td><td><div>Lim</div></td></tr><tr><td style="font-weight:bold;vertical-align:top;">registration_id</td><td style="vertical-align:top;">:</td><td><div></div></td></tr><tr><td style="font-weight:bold;vertical-align:top;">registration_key</td><td style="vertical-align:top;">:</td><td><div></div></td></tr><tr><td style="font-weight:bold;vertical-align:top;">reset_password_key</td><td style="vertical-align:top;">:</td><td><div></div></td></tr><tr><td style="font-weight:bold;vertical-align:top;">username</td><td style="vertical-align:top;">:</td><td><div>welim</div></td></tr></table></div></td></tr><tr><td style="font-weight:bold;vertical-align:top;">user_groups</td><td style="vertical-align:top;">:</td><td><div><table><tr><td style="font-weight:bold;vertical-align:top;">1</td><td style="vertical-align:top;">:</td><td><div>user_1</div></td></tr></table></div></td></tr></table></div></td></tr><tr><td style="font-weight:bold;vertical-align:top;">flash</td><td style="vertical-align:top;">:</td><td><div></div></td></tr><tr><td style="font-weight:bold;vertical-align:top;">last_orderby</td><td style="vertical-align:top;">:</td><td><div>None</div></td></tr><tr><td style="font-weight:bold;vertical-align:top;">last_query</td><td style="vertical-align:top;">:</td><td><div>db.event.id&gt;0</div></td></tr></table></div>'
tRp143
sS'etype'
p144
S"<type 'exceptions.NameError'>"
p145
sS'date'
p146
S'Sat Jan 21 23:08:46 2017'
p147
sS'response'
p148
g57
(S's\xb5\x16\x00\x00<div><table><tr><td style="font-weight:bold;vertical-align:top;">body</td><td style="vertical-align:top;">:</td><td><div>&lt;cStringIO.StringO object at 0x075664C0&gt;</div></td></tr><tr><td style="font-weight:bold;vertical-align:top;">cookies</td><td style="vertical-align:top;">:</td><td><div><table><tr><td style="font-weight:bold;vertical-align:top;">session_id_ourhours</td><td style="vertical-align:top;">:</td><td><div>127.0.0.1-156423a8-d3f7-469b-81ba-1fc53396a48c<table><tr><td style="font-weight:bold;vertical-align:top;">comment</td><td style="vertical-align:top;">:</td><td><div></div></td></tr><tr><td style="font-weight:bold;vertical-align:top;">domain</td><td style="vertical-align:top;">:</td><td><div></div></td></tr><tr><td style="font-weight:bold;vertical-align:top;">expires</td><td style="vertical-align:top;">:</td><td><div></div></td></tr><tr><td style="font-weight:bold;vertical-align:top;">httponly</td><td style="vertical-align:top;">:</td><td><div></div></td></tr><tr><td style="font-weight:bold;vertical-align:top;">max-age</td><td style="vertical-align:top;">:</td><td><div></div></td></tr><tr><td style="font-weight:bold;vertical-align:top;">path</td><td style="vertical-align:top;">:</td><td><div>/</div></td></tr><tr><td style="font-weight:bold;vertical-align:top;">secure</td><td style="vertical-align:top;">:</td><td><div></div></td></tr><tr><td style="font-weight:bold;vertical-align:top;">version</td><td style="vertical-align:top;">:</td><td><div></div></td></tr></table></div></td></tr></table></div></td></tr><tr><td style="font-weight:bold;vertical-align:top;">delimiters</td><td style="vertical-align:top;">:</td><td><div><table><tr><td><div>{{</div></td></tr><tr><td><div>}}</div></td></tr></table></div></td></tr><tr><td style="font-weight:bold;vertical-align:top;">files</td><td style="vertical-align:top;">:</td><td><div><table></table></div></td></tr><tr><td style="font-weight:bold;vertical-align:top;">flash</td><td style="vertical-align:top;">:</td><td><div></div></td></tr><tr><td style="font-weight:bold;vertical-align:top;">form_label_separator</td><td style="vertical-align:top;">:</td><td><div>: </div></td></tr><tr><td style="font-weight:bold;vertical-align:top;">formstyle</td><td style="vertical-align:top;">:</td><td><div>table3cols</div></td></tr><tr><td style="font-weight:bold;vertical-align:top;">generic_patterns</td><td style="vertical-align:top;">:</td><td><div><table><tr><td><div>*</div></td></tr></table></div></td></tr><tr><td style="font-weight:bold;vertical-align:top;">headers</td><td style="vertical-align:top;">:</td><td><div><table><tr><td style="font-weight:bold;vertical-align:top;">X-Powered-By</td><td style="vertical-align:top;">:</td><td><div>web2py</div></td></tr></table></div></td></tr><tr><td style="font-weight:bold;vertical-align:top;">menu</td><td style="vertical-align:top;">:</td><td><div><table><tr><td><div><table><tr><td><div>Home</div></td></tr><tr><td><div>False</div></td></tr><tr><td><div>/ourhours/default/index</div></td></tr></table></div></td></tr></table></div></td></tr><tr><td style="font-weight:bold;vertical-align:top;">meta</td><td style="vertical-align:top;">:</td><td><div><table></table></div></td></tr><tr><td style="font-weight:bold;vertical-align:top;">models_to_run</td><td style="vertical-align:top;">:</td><td><div><table><tr><td><div>^\\w+\\.py$</div></td></tr><tr><td><div>^default/\\w+\\.py$</div></td></tr><tr><td><div>^default/join/\\w+\\.py$</div></td></tr></table></div></td></tr><tr><td style="font-weight:bold;vertical-align:top;">postprocessing</td><td style="vertical-align:top;">:</td><td><div><table></table></div></td></tr><tr><td style="font-weight:bold;vertical-align:top;">session_client</td><td style="vertical-align:top;">:</td><td><div>127.0.0.1</div></td></tr><tr><td style="font-weight:bold;vertical-align:top;">session_cookie_compression_level</td><td style="vertical-align:top;">:</td><td><div>None</div></td></tr><tr><td style="font-weight:bold;vertical-align:top;">session_cookie_expires</td><td style="vertical-align:top;">:</td><td><div>None</div></td></tr><tr><td style="font-weight:bold;vertical-align:top;">session_data_name</td><td style="vertical-align:top;">:</td><td><div>session_data_ourhours</div></td></tr><tr><td style="font-weight:bold;vertical-align:top;">session_file</td><td style="vertical-align:top;">:</td><td><div>None</div></td></tr><tr><td style="font-weight:bold;vertical-align:top;">session_filename</td><td style="vertical-align:top;">:</td><td><div>C:\\Users\\Wesly\\Desktop\\UCSC-Hack-2017\\applications\\ourhours\\sessions\\127.0.0.1-156423a8-d3f7-469b-81ba-1fc53396a48c</div></td></tr><tr><td style="font-weight:bold;vertical-align:top;">session_hash</td><td style="vertical-align:top;">:</td><td><div>ffce525f4da8087536af37503c96b0a1</div></td></tr><tr><td style="font-weight:bold;vertical-align:top;">session_id</td><td style="vertical-align:top;">:</td><td><div>True</div></td></tr><tr><td style="font-weight:bold;vertical-align:top;">session_id_name</td><td style="vertical-align:top;">:</td><td><div>session_id_ourhours</div></td></tr><tr><td style="font-weight:bold;vertical-align:top;">session_masterapp</td><td style="vertical-align:top;">:</td><td><div>ourhours</div></td></tr><tr><td style="font-weight:bold;vertical-align:top;">session_new</td><td style="vertical-align:top;">:</td><td><div>True</div></td></tr><tr><td style="font-weight:bold;vertical-align:top;">session_storage_type</td><td style="vertical-align:top;">:</td><td><div>cookie</div></td></tr><tr><td style="font-weight:bold;vertical-align:top;">status</td><td style="vertical-align:top;">:</td><td><div>200</div></td></tr><tr><td style="font-weight:bold;vertical-align:top;">view</td><td style="vertical-align:top;">:</td><td><div>default/join.html</div></td></tr></table></div>'
tRp149
sS'locals'
p150
(dp151
ssS'traceback'
p152
S'Traceback (most recent call last):\n  File "C:\\Users\\Wesly\\Desktop\\UCSC-Hack-2017\\gluon\\restricted.py", line 227, in restricted\n    exec ccode in environment\n  File "C:\\Users\\Wesly\\Desktop\\UCSC-Hack-2017\\applications\\ourhours\\controllers/default.py", line 61, in <module>\n  File "C:\\Users\\Wesly\\Desktop\\UCSC-Hack-2017\\gluon\\globals.py", line 417, in <lambda>\n    self._caller = lambda f: f()\n  File "C:\\Users\\Wesly\\Desktop\\UCSC-Hack-2017\\applications\\ourhours\\controllers/default.py", line 23, in join\n    groups = db(db.groups).select(ALL)\nNameError: global name \'ALL\' is not defined\n'
p153
s.