(dp1
S'output'
p2
S''
sS'layer'
p3
S'Framework'
p4
sS'code'
p5
S''
sS'snapshot'
p6
(dp7
S'exception'
p8
(dp9
S'__hash__'
p10
S"<method-wrapper '__hash__' of exceptions.NameError object>"
p11
sS'__setattr__'
p12
S"<method-wrapper '__setattr__' of exceptions.NameError object>"
p13
sS'__reduce_ex__'
p14
S'<built-in method __reduce_ex__ of exceptions.NameError object>'
p15
sS'__getslice__'
p16
S"<method-wrapper '__getslice__' of exceptions.NameError object>"
p17
sS'__getitem__'
p18
S"<method-wrapper '__getitem__' of exceptions.NameError object>"
p19
sS'__setstate__'
p20
S'<built-in method __setstate__ of exceptions.NameError object>'
p21
sS'__reduce__'
p22
S'<built-in method __reduce__ of exceptions.NameError object>'
p23
sS'__str__'
p24
S"<method-wrapper '__str__' of exceptions.NameError object>"
p25
sS'__format__'
p26
S'<built-in method __format__ of exceptions.NameError object>'
p27
sS'__getattribute__'
p28
S"<method-wrapper '__getattribute__' of exceptions.NameError object>"
p29
sS'__class__'
p30
S"<type 'exceptions.NameError'>"
p31
sS'__unicode__'
p32
S'<built-in method __unicode__ of exceptions.NameError object>'
p33
sS'__delattr__'
p34
S"<method-wrapper '__delattr__' of exceptions.NameError object>"
p35
sS'__subclasshook__'
p36
S'<built-in method __subclasshook__ of type object>'
p37
sS'__repr__'
p38
S"<method-wrapper '__repr__' of exceptions.NameError object>"
p39
sS'args'
p40
S'("name \'layout\' is not defined",)'
p41
sS'__dict__'
p42
S'{}'
p43
sS'__sizeof__'
p44
S'<built-in method __sizeof__ of exceptions.NameError object>'
p45
sS'__doc__'
p46
S"'Name not found globally.'"
p47
sS'__init__'
p48
S"<method-wrapper '__init__' of exceptions.NameError object>"
p49
sS'__new__'
p50
S'<built-in method __new__ of type object>'
p51
ssS'evalue'
p52
S"name 'layout' is not defined"
p53
sS'request'
p54
cgluon.html
XML_unpickle
p55
(S's\x14\x7f\x00\x00<div><table><tr><td style="font-weight:bold;vertical-align:top;">ajax</td><td style="vertical-align:top;">:</td><td><div>False</div></td></tr><tr><td style="font-weight:bold;vertical-align:top;">application</td><td style="vertical-align:top;">:</td><td><div>ourhours</div></td></tr><tr><td style="font-weight:bold;vertical-align:top;">args</td><td style="vertical-align:top;">:</td><td><div><table><tr><td><div>27</div></td></tr></table></div></td></tr><tr><td style="font-weight:bold;vertical-align:top;">cid</td><td style="vertical-align:top;">:</td><td><div>None</div></td></tr><tr><td style="font-weight:bold;vertical-align:top;">client</td><td style="vertical-align:top;">:</td><td><div>127.0.0.1</div></td></tr><tr><td style="font-weight:bold;vertical-align:top;">controller</td><td style="vertical-align:top;">:</td><td><div>default</div></td></tr><tr><td style="font-weight:bold;vertical-align:top;">cookies</td><td style="vertical-align:top;">:</td><td><div><table><tr><td style="font-weight:bold;vertical-align:top;">resolution</td><td style="vertical-align:top;">:</td><td><div>1366<table><tr><td style="font-weight:bold;vertical-align:top;">comment</td><td style="vertical-align:top;">:</td><td><div></div></td></tr><tr><td style="font-weight:bold;vertical-align:top;">domain</td><td style="vertical-align:top;">:</td><td><div></div></td></tr><tr><td style="font-weight:bold;vertical-align:top;">expires</td><td style="vertical-align:top;">:</td><td><div></div></td></tr><tr><td style="font-weight:bold;vertical-align:top;">httponly</td><td style="vertical-align:top;">:</td><td><div></div></td></tr><tr><td style="font-weight:bold;vertical-align:top;">max-age</td><td style="vertical-align:top;">:</td><td><div></div></td></tr><tr><td style="font-weight:bold;vertical-align:top;">path</td><td style="vertical-align:top;">:</td><td><div></div></td></tr><tr><td style="font-weight:bold;vertical-align:top;">secure</td><td style="vertical-align:top;">:</td><td><div></div></td></tr><tr><td style="font-weight:bold;vertical-align:top;">version</td><td style="vertical-align:top;">:</td><td><div></div></td></tr></table></div></td></tr><tr><td style="font-weight:bold;vertical-align:top;">session_data_ourhours</td><td style="vertical-align:top;">:</td><td><div>b81ee8646ccf4708402cfb358a219f20:-kgrLPEd1ij8Go_c327CJoTbgISAfFmmtMHtGf9d2j1YI8PzUu6XpbEJUVwSXR_A8iY0VLc_ZuPlsgMxoNyahVMCj-ZoxNhytDk4I0hTug-mSirrrwEv4AggAZXEHqxz4PqOI2GZ2CPz1edWgojgS3Ml-3nN3sYtfODhBIlpdeJ1s5IqCN1Gr6j3ekHUfu6gOtZ2pPy-giHO6yUf9LRdkEPNNRQFWl6l4DDURyBCJC2kV0w4tWOiaXkB4TnnXCitu3zVIbL2EVH2W47V7WifAlFUwqtSCvcRT9Xt6_gVarCBXhp326tOqQciqmIvVt46wjcaKfXkrRK8zfc8eDSu5SBD9cvc2xMy27llEY_ZbzEMw1THlsFxPOCFVAH0YxxFr_Jm5hSuUjxkv8bY-eoq9tpG1h0xTjjcqKfCnOcEvSXIdDK_J2SiVa1KjMo7-4b9fwd2-Zi59k7LvcsDLV-F5LNwtLgN6eectT-DKA5Uv_9Wbg1enugd3-Eb09H2CuvS_C2D2CI99yBJWlCgsaWvjA==<table><tr><td style="font-weight:bold;vertical-align:top;">comment</td><td style="vertical-align:top;">:</td><td><div></div></td></tr><tr><td style="font-weight:bold;vertical-align:top;">domain</td><td style="vertical-align:top;">:</td><td><div></div></td></tr><tr><td style="font-weight:bold;vertical-align:top;">expires</td><td style="vertical-align:top;">:</td><td><div></div></td></tr><tr><td style="font-weight:bold;vertical-align:top;">httponly</td><td style="vertical-align:top;">:</td><td><div></div></td></tr><tr><td style="font-weight:bold;vertical-align:top;">max-age</td><td style="vertical-align:top;">:</td><td><div></div></td></tr><tr><td style="font-weight:bold;vertical-align:top;">path</td><td style="vertical-align:top;">:</td><td><div></div></td></tr><tr><td style="font-weight:bold;vertical-align:top;">secure</td><td style="vertical-align:top;">:</td><td><div></div></td></tr><tr><td style="font-weight:bold;vertical-align:top;">version</td><td style="vertical-align:top;">:</td><td><div></div></td></tr></table></div></td></tr><tr><td style="font-weight:bold;vertical-align:top;">session_id_admin</td><td style="vertical-align:top;">:</td><td><div>127.0.0.1-5e4d5587-8e46-4ab9-bda4-cde90ee24cff<table><tr><td style="font-weight:bold;vertical-align:top;">comment</td><td style="vertical-align:top;">:</td><td><div></div></td></tr><tr><td style="font-weight:bold;vertical-align:top;">domain</td><td style="vertical-align:top;">:</td><td><div></div></td></tr><tr><td style="font-weight:bold;vertical-align:top;">expires</td><td style="vertical-align:top;">:</td><td><div></div></td></tr><tr><td style="font-weight:bold;vertical-align:top;">httponly</td><td style="vertical-align:top;">:</td><td><div></div></td></tr><tr><td style="font-weight:bold;vertical-align:top;">max-age</td><td style="vertical-align:top;">:</td><td><div></div></td></tr><tr><td style="font-weight:bold;vertical-align:top;">path</td><td style="vertical-align:top;">:</td><td><div></div></td></tr><tr><td style="font-weight:bold;vertical-align:top;">secure</td><td style="vertical-align:top;">:</td><td><div></div></td></tr><tr><td style="font-weight:bold;vertical-align:top;">version</td><td style="vertical-align:top;">:</td><td><div></div></td></tr></table></div></td></tr><tr><td style="font-weight:bold;vertical-align:top;">session_id_hackathon</td><td style="vertical-align:top;">:</td><td><div>127.0.0.1-e9d19e57-2c82-4246-95e2-3afb87897355<table><tr><td style="font-weight:bold;vertical-align:top;">comment</td><td style="vertical-align:top;">:</td><td><div></div></td></tr><tr><td style="font-weight:bold;vertical-align:top;">domain</td><td style="vertical-align:top;">:</td><td><div></div></td></tr><tr><td style="font-weight:bold;vertical-align:top;">expires</td><td style="vertical-align:top;">:</td><td><div></div></td></tr><tr><td style="font-weight:bold;vertical-align:top;">httponly</td><td style="vertical-align:top;">:</td><td><div></div></td></tr><tr><td style="font-weight:bold;vertical-align:top;">max-age</td><td style="vertical-align:top;">:</td><td><div></div></td></tr><tr><td style="font-weight:bold;vertical-align:top;">path</td><td style="vertical-align:top;">:</td><td><div></div></td></tr><tr><td style="font-weight:bold;vertical-align:top;">secure</td><td style="vertical-align:top;">:</td><td><div></div></td></tr><tr><td style="font-weight:bold;vertical-align:top;">version</td><td style="vertical-align:top;">:</td><td><div></div></td></tr></table></div></td></tr><tr><td style="font-weight:bold;vertical-align:top;">session_id_hw</td><td style="vertical-align:top;">:</td><td><div>127.0.0.1-23223d0c-fdad-4421-b0fa-bfb22452a98b<table><tr><td style="font-weight:bold;vertical-align:top;">comment</td><td style="vertical-align:top;">:</td><td><div></div></td></tr><tr><td style="font-weight:bold;vertical-align:top;">domain</td><td style="vertical-align:top;">:</td><td><div></div></td></tr><tr><td style="font-weight:bold;vertical-align:top;">expires</td><td style="vertical-align:top;">:</td><td><div></div></td></tr><tr><td style="font-weight:bold;vertical-align:top;">httponly</td><td style="vertical-align:top;">:</td><td><div></div></td></tr><tr><td style="font-weight:bold;vertical-align:top;">max-age</td><td style="vertical-align:top;">:</td><td><div></div></td></tr><tr><td style="font-weight:bold;vertical-align:top;">path</td><td style="vertical-align:top;">:</td><td><div></div></td></tr><tr><td style="font-weight:bold;vertical-align:top;">secure</td><td style="vertical-align:top;">:</td><td><div></div></td></tr><tr><td style="font-weight:bold;vertical-align:top;">version</td><td style="vertical-align:top;">:</td><td><div></div></td></tr></table></div></td></tr><tr><td style="font-weight:bold;vertical-align:top;">session_id_layouttest</td><td style="vertical-align:top;">:</td><td><div>127.0.0.1-9dd550cb-7d25-4599-add6-bbf406414416<table><tr><td style="font-weight:bold;vertical-align:top;">comment</td><td style="vertical-align:top;">:</td><td><div></div></td></tr><tr><td style="font-weight:bold;vertical-align:top;">domain</td><td style="vertical-align:top;">:</td><td><div></div></td></tr><tr><td style="font-weight:bold;vertical-align:top;">expires</td><td style="vertical-align:top;">:</td><td><div></div></td></tr><tr><td style="font-weight:bold;vertical-align:top;">httponly</td><td style="vertical-align:top;">:</td><td><div></div></td></tr><tr><td style="font-weight:bold;vertical-align:top;">max-age</td><td style="vertical-align:top;">:</td><td><div></div></td></tr><tr><td style="font-weight:bold;vertical-align:top;">path</td><td style="vertical-align:top;">:</td><td><div></div></td></tr><tr><td style="font-weight:bold;vertical-align:top;">secure</td><td style="vertical-align:top;">:</td><td><div></div></td></tr><tr><td style="font-weight:bold;vertical-align:top;">version</td><td style="vertical-align:top;">:</td><td><div></div></td></tr></table></div></td></tr><tr><td style="font-weight:bold;vertical-align:top;">session_id_ourhours</td><td style="vertical-align:top;">:</td><td><div>True<table><tr><td style="font-weight:bold;vertical-align:top;">comment</td><td style="vertical-align:top;">:</td><td><div></div></td></tr><tr><td style="font-weight:bold;vertical-align:top;">domain</td><td style="vertical-align:top;">:</td><td><div></div></td></tr><tr><td style="font-weight:bold;vertical-align:top;">expires</td><td style="vertical-align:top;">:</td><td><div></div></td></tr><tr><td style="font-weight:bold;vertical-align:top;">httponly</td><td style="vertical-align:top;">:</td><td><div></div></td></tr><tr><td style="font-weight:bold;vertical-align:top;">max-age</td><td style="vertical-align:top;">:</td><td><div></div></td></tr><tr><td style="font-weight:bold;vertical-align:top;">path</td><td style="vertical-align:top;">:</td><td><div></div></td></tr><tr><td style="font-weight:bold;vertical-align:top;">secure</td><td style="vertical-align:top;">:</td><td><div></div></td></tr><tr><td style="font-weight:bold;vertical-align:top;">version</td><td style="vertical-align:top;">:</td><td><div></div></td></tr></table></div></td></tr><tr><td style="font-weight:bold;vertical-align:top;">session_id_welcome</td><td style="vertical-align:top;">:</td><td><div>127.0.0.1-914e3598-8565-46fb-a16b-70518fcddd82<table><tr><td style="font-weight:bold;vertical-align:top;">comment</td><td style="vertical-align:top;">:</td><td><div></div></td></tr><tr><td style="font-weight:bold;vertical-align:top;">domain</td><td style="vertical-align:top;">:</td><td><div></div></td></tr><tr><td style="font-weight:bold;vertical-align:top;">expires</td><td style="vertical-align:top;">:</td><td><div></div></td></tr><tr><td style="font-weight:bold;vertical-align:top;">httponly</td><td style="vertical-align:top;">:</td><td><div></div></td></tr><tr><td style="font-weight:bold;vertical-align:top;">max-age</td><td style="vertical-align:top;">:</td><td><div></div></td></tr><tr><td style="font-weight:bold;vertical-align:top;">path</td><td style="vertical-align:top;">:</td><td><div></div></td></tr><tr><td style="font-weight:bold;vertical-align:top;">secure</td><td style="vertical-align:top;">:</td><td><div></div></td></tr><tr><td style="font-weight:bold;vertical-align:top;">version</td><td style="vertical-align:top;">:</td><td><div></div></td></tr></table></div></td></tr></table></div></td></tr><tr><td style="font-weight:bold;vertical-align:top;">env</td><td style="vertical-align:top;">:</td><td><div><table><tr><td style="font-weight:bold;vertical-align:top;">HTTP_ACCEPT</td><td style="vertical-align:top;">:</td><td><div>text/html,application/xhtml+xml,application/xml;q=0.9,image/webp,*/*;q=0.8</div></td></tr><tr><td style="font-weight:bold;vertical-align:top;">HTTP_ACCEPT_ENCODING</td><td style="vertical-align:top;">:</td><td><div>gzip, deflate, sdch, br</div></td></tr><tr><td style="font-weight:bold;vertical-align:top;">HTTP_ACCEPT_LANGUAGE</td><td style="vertical-align:top;">:</td><td><div>en-US,en;q=0.8</div></td></tr><tr><td style="font-weight:bold;vertical-align:top;">HTTP_CACHE_CONTROL</td><td style="vertical-align:top;">:</td><td><div>max-age=0</div></td></tr><tr><td style="font-weight:bold;vertical-align:top;">HTTP_CONNECTION</td><td style="vertical-align:top;">:</td><td><div>keep-alive</div></td></tr><tr><td style="font-weight:bold;vertical-align:top;">HTTP_COOKIE</td><td style="vertical-align:top;">:</td><td><div>session_id_layouttest=127.0.0.1-9dd550cb-7d25-4599-add6-bbf406414416; session_id_hackathon=127.0.0.1-e9d19e57-2c82-4246-95e2-3afb87897355; session_id_hw=127.0.0.1-23223d0c-fdad-4421-b0fa-bfb22452a98b; session_id_welcome=127.0.0.1-914e3598-8565-46fb-a16b-70518fcddd82; session_id_admin=127.0.0.1-5e4d5587-8e46-4ab9-bda4-cde90ee24cff; session_data_ourhours=&quot;b81ee8646ccf4708402cfb358a219f20:-kgrLPEd1ij8Go_c327CJoTbgISAfFmmtMHtGf9d2j1YI8PzUu6XpbEJUVwSXR_A8iY0VLc_ZuPlsgMxoNyahVMCj-ZoxNhytDk4I0hTug-mSirrrwEv4AggAZXEHqxz4PqOI2GZ2CPz1edWgojgS3Ml-3nN3sYtfODhBIlpdeJ1s5IqCN1Gr6j3ekHUfu6gOtZ2pPy-giHO6yUf9LRdkEPNNRQFWl6l4DDURyBCJC2kV0w4tWOiaXkB4TnnXCitu3zVIbL2EVH2W47V7WifAlFUwqtSCvcRT9Xt6_gVarCBXhp326tOqQciqmIvVt46wjcaKfXkrRK8zfc8eDSu5SBD9cvc2xMy27llEY_ZbzEMw1THlsFxPOCFVAH0YxxFr_Jm5hSuUjxkv8bY-eoq9tpG1h0xTjjcqKfCnOcEvSXIdDK_J2SiVa1KjMo7-4b9fwd2-Zi59k7LvcsDLV-F5LNwtLgN6eectT-DKA5Uv_9Wbg1enugd3-Eb09H2CuvS_C2D2CI99yBJWlCgsaWvjA==&quot;; session_id_ourhours=True; resolution=1366</div></td></tr><tr><td style="font-weight:bold;vertical-align:top;">HTTP_HOST</td><td style="vertical-align:top;">:</td><td><div>127.0.0.1:8000</div></td></tr><tr><td style="font-weight:bold;vertical-align:top;">HTTP_REFERER</td><td style="vertical-align:top;">:</td><td><div>http://127.0.0.1:8000/ourhours/default/join</div></td></tr><tr><td style="font-weight:bold;vertical-align:top;">HTTP_UPGRADE_INSECURE_REQUESTS</td><td style="vertical-align:top;">:</td><td><div>1</div></td></tr><tr><td style="font-weight:bold;vertical-align:top;">HTTP_USER_AGENT</td><td style="vertical-align:top;">:</td><td><div>Mozilla/5.0 (Windows NT 10.0; Win64; x64) AppleWebKit/537.36 (KHTML, like Gecko) Chrome/55.0.2883.87 Safari/537.36</div></td></tr><tr><td style="font-weight:bold;vertical-align:top;">PATH_INFO</td><td style="vertical-align:top;">:</td><td><div>/ourhours/default/event_page/27</div></td></tr><tr><td style="font-weight:bold;vertical-align:top;">QUERY_STRING</td><td style="vertical-align:top;">:</td><td><div></div></td></tr><tr><td style="font-weight:bold;vertical-align:top;">REMOTE_ADDR</td><td style="vertical-align:top;">:</td><td><div>127.0.0.1</div></td></tr><tr><td style="font-weight:bold;vertical-align:top;">REMOTE_PORT</td><td style="vertical-align:top;">:</td><td><div>49908</div></td></tr><tr><td style="font-weight:bold;vertical-align:top;">REQUEST_METHOD</td><td style="vertical-align:top;">:</td><td><div>GET</div></td></tr><tr><td style="font-weight:bold;vertical-align:top;">SCRIPT_NAME</td><td style="vertical-align:top;">:</td><td><div></div></td></tr><tr><td style="font-weight:bold;vertical-align:top;">SERVER_NAME</td><td style="vertical-align:top;">:</td><td><div>DESKTOP-GDD7DCK</div></td></tr><tr><td style="font-weight:bold;vertical-align:top;">SERVER_PORT</td><td style="vertical-align:top;">:</td><td><div>8000</div></td></tr><tr><td style="font-weight:bold;vertical-align:top;">SERVER_PROTOCOL</td><td style="vertical-align:top;">:</td><td><div>HTTP/1.1</div></td></tr><tr><td style="font-weight:bold;vertical-align:top;">SERVER_SOFTWARE</td><td style="vertical-align:top;">:</td><td><div>Rocket 1.2.6</div></td></tr><tr><td style="font-weight:bold;vertical-align:top;">app_folders</td><td style="vertical-align:top;">:</td><td><div>set([&#x27;C:\\\\Users\\\\Wesly\\\\Desktop\\\\UCSC-Hack-2017\\\\applications\\\\welcome\\\\&#x27;, &#x27;C:\\\\Users\\\\Wesly\\\\Desktop\\\\UCSC-Hack-2017\\\\applications\\\\ourhours\\\\&#x27;, &#x27;C:\\\\Users\\\\Wesly\\\\Desktop\\\\UCSC-Hack-2017\\\\applications\\\\admin\\\\&#x27;])</div></td></tr><tr><td style="font-weight:bold;vertical-align:top;">applications_parent</td><td style="vertical-align:top;">:</td><td><div>C:\\Users\\Wesly\\Desktop\\UCSC-Hack-2017</div></td></tr><tr><td style="font-weight:bold;vertical-align:top;">cmd_args</td><td style="vertical-align:top;">:</td><td><div><table></table></div></td></tr><tr><td style="font-weight:bold;vertical-align:top;">cmd_options</td><td style="vertical-align:top;">:</td><td><div>&lt;Values at 0x2daaeb8: {&#x27;verbose&#x27;: False, &#x27;ip&#x27;: &#x27;127.0.0.1&#x27;, &#x27;debuglevel&#x27;: 30, &#x27;with_scheduler&#x27;: False, &#x27;shutdown_timeout&#x27;: 5, &#x27;taskbar&#x27;: False, &#x27;with_coverage&#x27;: False, &#x27;pid_filename&#x27;: &#x27;httpserver.pid&#x27;, &#x27;maxthreads&#x27;: None, &#x27;softcron&#x27;: False, &#x27;server_name&#x27;: &#x27;DESKTOP-GDD7DCK&#x27;, &#x27;bpython&#x27;: False, &#x27;nogui&#x27;: False, &#x27;port&#x27;: 8000, &#x27;print_errors&#x27;: False, &#x27;extcron&#x27;: False, &#x27;runcron&#x27;: False, &#x27;run_system_tests&#x27;: False, &#x27;test&#x27;: None, &#x27;folder&#x27;: &#x27;C:\\\\Users\\\\Wesly\\\\Desktop\\\\UCSC-Hack-2017&#x27;, &#x27;config&#x27;: &#x27;&#x27;, &#x27;minthreads&#x27;: None, &#x27;shell&#x27;: None, &#x27;run&#x27;: &#x27;&#x27;, &#x27;log_filename&#x27;: &#x27;httpserver.log&#x27;, &#x27;profiler_dir&#x27;: None, &#x27;args&#x27;: [&#x27;&#x27;], &#x27;socket_timeout&#x27;: 5, &#x27;ssl_ca_certificate&#x27;: None, &#x27;scheduler&#x27;: None, &#x27;interfaces&#x27;: None, &#x27;ssl_private_key&#x27;: &#x27;&#x27;, &#x27;gae&#x27;: None, &#x27;password&#x27;: &#x27;******&#x27;, &#x27;request_queue_size&#x27;: 5, &#x27;ssl_certificate&#x27;: &#x27;&#x27;, &#x27;cronjob&#x27;: False, &#x27;numthreads&#x27;: None, &#x27;quiet&#x27;: False, &#x27;import_models&#x27;: False, &#x27;timeout&#x27;: 10, &#x27;plain&#x27;: False, &#x27;nobanner&#x27;: False}&gt;</div></td></tr><tr><td style="font-weight:bold;vertical-align:top;">db_sessions</td><td style="vertical-align:top;">:</td><td><div>set([])</div></td></tr><tr><td style="font-weight:bold;vertical-align:top;">debugging</td><td style="vertical-align:top;">:</td><td><div>False</div></td></tr><tr><td style="font-weight:bold;vertical-align:top;">gluon_parent</td><td style="vertical-align:top;">:</td><td><div>C:\\Users\\Wesly\\Desktop\\UCSC-Hack-2017</div></td></tr><tr><td style="font-weight:bold;vertical-align:top;">http_accept</td><td style="vertical-align:top;">:</td><td><div>text/html,application/xhtml+xml,application/xml;q=0.9,image/webp,*/*;q=0.8</div></td></tr><tr><td style="font-weight:bold;vertical-align:top;">http_accept_encoding</td><td style="vertical-align:top;">:</td><td><div>gzip, deflate, sdch, br</div></td></tr><tr><td style="font-weight:bold;vertical-align:top;">http_accept_language</td><td style="vertical-align:top;">:</td><td><div>en-US,en;q=0.8</div></td></tr><tr><td style="font-weight:bold;vertical-align:top;">http_cache_control</td><td style="vertical-align:top;">:</td><td><div>max-age=0</div></td></tr><tr><td style="font-weight:bold;vertical-align:top;">http_connection</td><td style="vertical-align:top;">:</td><td><div>keep-alive</div></td></tr><tr><td style="font-weight:bold;vertical-align:top;">http_cookie</td><td style="vertical-align:top;">:</td><td><div>session_id_layouttest=127.0.0.1-9dd550cb-7d25-4599-add6-bbf406414416; session_id_hackathon=127.0.0.1-e9d19e57-2c82-4246-95e2-3afb87897355; session_id_hw=127.0.0.1-23223d0c-fdad-4421-b0fa-bfb22452a98b; session_id_welcome=127.0.0.1-914e3598-8565-46fb-a16b-70518fcddd82; session_id_admin=127.0.0.1-5e4d5587-8e46-4ab9-bda4-cde90ee24cff; session_data_ourhours=&quot;b81ee8646ccf4708402cfb358a219f20:-kgrLPEd1ij8Go_c327CJoTbgISAfFmmtMHtGf9d2j1YI8PzUu6XpbEJUVwSXR_A8iY0VLc_ZuPlsgMxoNyahVMCj-ZoxNhytDk4I0hTug-mSirrrwEv4AggAZXEHqxz4PqOI2GZ2CPz1edWgojgS3Ml-3nN3sYtfODhBIlpdeJ1s5IqCN1Gr6j3ekHUfu6gOtZ2pPy-giHO6yUf9LRdkEPNNRQFWl6l4DDURyBCJC2kV0w4tWOiaXkB4TnnXCitu3zVIbL2EVH2W47V7WifAlFUwqtSCvcRT9Xt6_gVarCBXhp326tOqQciqmIvVt46wjcaKfXkrRK8zfc8eDSu5SBD9cvc2xMy27llEY_ZbzEMw1THlsFxPOCFVAH0YxxFr_Jm5hSuUjxkv8bY-eoq9tpG1h0xTjjcqKfCnOcEvSXIdDK_J2SiVa1KjMo7-4b9fwd2-Zi59k7LvcsDLV-F5LNwtLgN6eectT-DKA5Uv_9Wbg1enugd3-Eb09H2CuvS_C2D2CI99yBJWlCgsaWvjA==&quot;; session_id_ourhours=True; resolution=1366</div></td></tr><tr><td style="font-weight:bold;vertical-align:top;">http_host</td><td style="vertical-align:top;">:</td><td><div>127.0.0.1:8000</div></td></tr><tr><td style="font-weight:bold;vertical-align:top;">http_referer</td><td style="vertical-align:top;">:</td><td><div>http://127.0.0.1:8000/ourhours/default/join</div></td></tr><tr><td style="font-weight:bold;vertical-align:top;">http_upgrade_insecure_requests</td><td style="vertical-align:top;">:</td><td><div>1</div></td></tr><tr><td style="font-weight:bold;vertical-align:top;">http_user_agent</td><td style="vertical-align:top;">:</td><td><div>Mozilla/5.0 (Windows NT 10.0; Win64; x64) AppleWebKit/537.36 (KHTML, like Gecko) Chrome/55.0.2883.87 Safari/537.36</div></td></tr><tr><td style="font-weight:bold;vertical-align:top;">is_jython</td><td style="vertical-align:top;">:</td><td><div>False</div></td></tr><tr><td style="font-weight:bold;vertical-align:top;">is_pypy</td><td style="vertical-align:top;">:</td><td><div>False</div></td></tr><tr><td style="font-weight:bold;vertical-align:top;">is_source</td><td style="vertical-align:top;">:</td><td><div>False</div></td></tr><tr><td style="font-weight:bold;vertical-align:top;">local_hosts</td><td style="vertical-align:top;">:</td><td><div><table><tr><td><div>fe80::81f2:e7ae:7efe:f1e7%23</div></td></tr><tr><td><div>DESKTOP-GDD7DCK</div></td></tr><tr><td><div>169.233.10.90</div></td></tr><tr><td><div>::ffff:127.0.0.1</div></td></tr><tr><td><div>::1</div></td></tr><tr><td><div>fe80::e941:c1cf:aca3:e27d%22</div></td></tr><tr><td><div>fe80::200:5efe:169.233.10.90%21</div></td></tr><tr><td><div>127.0.0.1</div></td></tr><tr><td><div>192.168.56.1</div></td></tr></table></div></td></tr><tr><td style="font-weight:bold;vertical-align:top;">path_info</td><td style="vertical-align:top;">:</td><td><div>/ourhours/default/event_page/27</div></td></tr><tr><td style="font-weight:bold;vertical-align:top;">query_string</td><td style="vertical-align:top;">:</td><td><div></div></td></tr><tr><td style="font-weight:bold;vertical-align:top;">remote_addr</td><td style="vertical-align:top;">:</td><td><div>127.0.0.1</div></td></tr><tr><td style="font-weight:bold;vertical-align:top;">remote_port</td><td style="vertical-align:top;">:</td><td><div>49908</div></td></tr><tr><td style="font-weight:bold;vertical-align:top;">request_method</td><td style="vertical-align:top;">:</td><td><div>GET</div></td></tr><tr><td style="font-weight:bold;vertical-align:top;">request_uri</td><td style="vertical-align:top;">:</td><td><div>/ourhours/default/event_page/27</div></td></tr><tr><td style="font-weight:bold;vertical-align:top;">script_name</td><td style="vertical-align:top;">:</td><td><div></div></td></tr><tr><td style="font-weight:bold;vertical-align:top;">server_name</td><td style="vertical-align:top;">:</td><td><div>DESKTOP-GDD7DCK</div></td></tr><tr><td style="font-weight:bold;vertical-align:top;">server_port</td><td style="vertical-align:top;">:</td><td><div>8000</div></td></tr><tr><td style="font-weight:bold;vertical-align:top;">server_protocol</td><td style="vertical-align:top;">:</td><td><div>HTTP/1.1</div></td></tr><tr><td style="font-weight:bold;vertical-align:top;">server_software</td><td style="vertical-align:top;">:</td><td><div>Rocket 1.2.6</div></td></tr><tr><td style="font-weight:bold;vertical-align:top;">web2py_path</td><td style="vertical-align:top;">:</td><td><div>C:\\Users\\Wesly\\Desktop\\UCSC-Hack-2017</div></td></tr><tr><td style="font-weight:bold;vertical-align:top;">web2py_version</td><td style="vertical-align:top;">:</td><td><div>2.14.6-stable+timestamp.2016.05.10.00.21.47</div></td></tr><tr><td style="font-weight:bold;vertical-align:top;">wsgi.errors</td><td style="vertical-align:top;">:</td><td><div>&lt;open file &#x27;&lt;stderr&gt;&#x27;, mode &#x27;w&#x27; at 0x021ED0D0&gt;</div></td></tr><tr><td style="font-weight:bold;vertical-align:top;">wsgi.file_wrapper</td><td style="vertical-align:top;">:</td><td><div>&lt;class wsgiref.util.FileWrapper at 0x031EF148&gt;</div></td></tr><tr><td style="font-weight:bold;vertical-align:top;">wsgi.input</td><td style="vertical-align:top;">:</td><td><div>&lt;socket._fileobject object at 0x0789B370&gt;</div></td></tr><tr><td style="font-weight:bold;vertical-align:top;">wsgi.multiprocess</td><td style="vertical-align:top;">:</td><td><div>False</div></td></tr><tr><td style="font-weight:bold;vertical-align:top;">wsgi.multithread</td><td style="vertical-align:top;">:</td><td><div>True</div></td></tr><tr><td style="font-weight:bold;vertical-align:top;">wsgi.run_once</td><td style="vertical-align:top;">:</td><td><div>False</div></td></tr><tr><td style="font-weight:bold;vertical-align:top;">wsgi.url_scheme</td><td style="vertical-align:top;">:</td><td><div>http</div></td></tr><tr><td style="font-weight:bold;vertical-align:top;">wsgi.version</td><td style="vertical-align:top;">:</td><td><div><table><tr><td><div>1</div></td></tr><tr><td><div>0</div></td></tr></table></div></td></tr><tr><td style="font-weight:bold;vertical-align:top;">wsgi_errors</td><td style="vertical-align:top;">:</td><td><div>&lt;open file &#x27;&lt;stderr&gt;&#x27;, mode &#x27;w&#x27; at 0x021ED0D0&gt;</div></td></tr><tr><td style="font-weight:bold;vertical-align:top;">wsgi_file_wrapper</td><td style="vertical-align:top;">:</td><td><div>&lt;class wsgiref.util.FileWrapper at 0x031EF148&gt;</div></td></tr><tr><td style="font-weight:bold;vertical-align:top;">wsgi_input</td><td style="vertical-align:top;">:</td><td><div>&lt;socket._fileobject object at 0x0789B370&gt;</div></td></tr><tr><td style="font-weight:bold;vertical-align:top;">wsgi_multiprocess</td><td style="vertical-align:top;">:</td><td><div>False</div></td></tr><tr><td style="font-weight:bold;vertical-align:top;">wsgi_multithread</td><td style="vertical-align:top;">:</td><td><div>True</div></td></tr><tr><td style="font-weight:bold;vertical-align:top;">wsgi_run_once</td><td style="vertical-align:top;">:</td><td><div>False</div></td></tr><tr><td style="font-weight:bold;vertical-align:top;">wsgi_url_scheme</td><td style="vertical-align:top;">:</td><td><div>http</div></td></tr><tr><td style="font-weight:bold;vertical-align:top;">wsgi_version</td><td style="vertical-align:top;">:</td><td><div><table><tr><td><div>1</div></td></tr><tr><td><div>0</div></td></tr></table></div></td></tr></table></div></td></tr><tr><td style="font-weight:bold;vertical-align:top;">extension</td><td style="vertical-align:top;">:</td><td><div>html</div></td></tr><tr><td style="font-weight:bold;vertical-align:top;">folder</td><td style="vertical-align:top;">:</td><td><div>C:\\Users\\Wesly\\Desktop\\UCSC-Hack-2017\\applications\\ourhours\\</div></td></tr><tr><td style="font-weight:bold;vertical-align:top;">function</td><td style="vertical-align:top;">:</td><td><div>event_page</div></td></tr><tr><td style="font-weight:bold;vertical-align:top;">global_settings</td><td style="vertical-align:top;">:</td><td><div><table><tr><td style="font-weight:bold;vertical-align:top;">app_folders</td><td style="vertical-align:top;">:</td><td><div>set([&#x27;C:\\\\Users\\\\Wesly\\\\Desktop\\\\UCSC-Hack-2017\\\\applications\\\\welcome\\\\&#x27;, &#x27;C:\\\\Users\\\\Wesly\\\\Desktop\\\\UCSC-Hack-2017\\\\applications\\\\ourhours\\\\&#x27;, &#x27;C:\\\\Users\\\\Wesly\\\\Desktop\\\\UCSC-Hack-2017\\\\applications\\\\admin\\\\&#x27;])</div></td></tr><tr><td style="font-weight:bold;vertical-align:top;">applications_parent</td><td style="vertical-align:top;">:</td><td><div>C:\\Users\\Wesly\\Desktop\\UCSC-Hack-2017</div></td></tr><tr><td style="font-weight:bold;vertical-align:top;">cmd_args</td><td style="vertical-align:top;">:</td><td><div><table></table></div></td></tr><tr><td style="font-weight:bold;vertical-align:top;">cmd_options</td><td style="vertical-align:top;">:</td><td><div>&lt;Values at 0x2daaeb8: {&#x27;verbose&#x27;: False, &#x27;ip&#x27;: &#x27;127.0.0.1&#x27;, &#x27;debuglevel&#x27;: 30, &#x27;with_scheduler&#x27;: False, &#x27;shutdown_timeout&#x27;: 5, &#x27;taskbar&#x27;: False, &#x27;with_coverage&#x27;: False, &#x27;pid_filename&#x27;: &#x27;httpserver.pid&#x27;, &#x27;maxthreads&#x27;: None, &#x27;softcron&#x27;: False, &#x27;server_name&#x27;: &#x27;DESKTOP-GDD7DCK&#x27;, &#x27;bpython&#x27;: False, &#x27;nogui&#x27;: False, &#x27;port&#x27;: 8000, &#x27;print_errors&#x27;: False, &#x27;extcron&#x27;: False, &#x27;runcron&#x27;: False, &#x27;run_system_tests&#x27;: False, &#x27;test&#x27;: None, &#x27;folder&#x27;: &#x27;C:\\\\Users\\\\Wesly\\\\Desktop\\\\UCSC-Hack-2017&#x27;, &#x27;config&#x27;: &#x27;&#x27;, &#x27;minthreads&#x27;: None, &#x27;shell&#x27;: None, &#x27;run&#x27;: &#x27;&#x27;, &#x27;log_filename&#x27;: &#x27;httpserver.log&#x27;, &#x27;profiler_dir&#x27;: None, &#x27;args&#x27;: [&#x27;&#x27;], &#x27;socket_timeout&#x27;: 5, &#x27;ssl_ca_certificate&#x27;: None, &#x27;scheduler&#x27;: None, &#x27;interfaces&#x27;: None, &#x27;ssl_private_key&#x27;: &#x27;&#x27;, &#x27;gae&#x27;: None, &#x27;password&#x27;: &#x27;******&#x27;, &#x27;request_queue_size&#x27;: 5, &#x27;ssl_certificate&#x27;: &#x27;&#x27;, &#x27;cronjob&#x27;: False, &#x27;numthreads&#x27;: None, &#x27;quiet&#x27;: False, &#x27;import_models&#x27;: False, &#x27;timeout&#x27;: 10, &#x27;plain&#x27;: False, &#x27;nobanner&#x27;: False}&gt;</div></td></tr><tr><td style="font-weight:bold;vertical-align:top;">db_sessions</td><td style="vertical-align:top;">:</td><td><div>set([])</div></td></tr><tr><td style="font-weight:bold;vertical-align:top;">debugging</td><td style="vertical-align:top;">:</td><td><div>False</div></td></tr><tr><td style="font-weight:bold;vertical-align:top;">gluon_parent</td><td style="vertical-align:top;">:</td><td><div>C:\\Users\\Wesly\\Desktop\\UCSC-Hack-2017</div></td></tr><tr><td style="font-weight:bold;vertical-align:top;">is_jython</td><td style="vertical-align:top;">:</td><td><div>False</div></td></tr><tr><td style="font-weight:bold;vertical-align:top;">is_pypy</td><td style="vertical-align:top;">:</td><td><div>False</div></td></tr><tr><td style="font-weight:bold;vertical-align:top;">is_source</td><td style="vertical-align:top;">:</td><td><div>False</div></td></tr><tr><td style="font-weight:bold;vertical-align:top;">local_hosts</td><td style="vertical-align:top;">:</td><td><div><table><tr><td><div>fe80::81f2:e7ae:7efe:f1e7%23</div></td></tr><tr><td><div>DESKTOP-GDD7DCK</div></td></tr><tr><td><div>169.233.10.90</div></td></tr><tr><td><div>::ffff:127.0.0.1</div></td></tr><tr><td><div>::1</div></td></tr><tr><td><div>fe80::e941:c1cf:aca3:e27d%22</div></td></tr><tr><td><div>fe80::200:5efe:169.233.10.90%21</div></td></tr><tr><td><div>127.0.0.1</div></td></tr><tr><td><div>192.168.56.1</div></td></tr></table></div></td></tr><tr><td style="font-weight:bold;vertical-align:top;">web2py_version</td><td style="vertical-align:top;">:</td><td><div>2.14.6-stable+timestamp.2016.05.10.00.21.47</div></td></tr></table></div></td></tr><tr><td style="font-weight:bold;vertical-align:top;">is_https</td><td style="vertical-align:top;">:</td><td><div>False</div></td></tr><tr><td style="font-weight:bold;vertical-align:top;">is_local</td><td style="vertical-align:top;">:</td><td><div>True</div></td></tr><tr><td style="font-weight:bold;vertical-align:top;">is_restful</td><td style="vertical-align:top;">:</td><td><div>False</div></td></tr><tr><td style="font-weight:bold;vertical-align:top;">is_scheduler</td><td style="vertical-align:top;">:</td><td><div>False</div></td></tr><tr><td style="font-weight:bold;vertical-align:top;">is_shell</td><td style="vertical-align:top;">:</td><td><div>False</div></td></tr><tr><td style="font-weight:bold;vertical-align:top;">now</td><td style="vertical-align:top;">:</td><td><div>datetime.datetime(2017, 1, 22, 10, 49, 52, 951000)</div></td></tr><tr><td style="font-weight:bold;vertical-align:top;">raw_args</td><td style="vertical-align:top;">:</td><td><div>27</div></td></tr><tr><td style="font-weight:bold;vertical-align:top;">raw_extension</td><td style="vertical-align:top;">:</td><td><div>None</div></td></tr><tr><td style="font-weight:bold;vertical-align:top;">url</td><td style="vertical-align:top;">:</td><td><div>/ourhours/default/event_page/27</div></td></tr><tr><td style="font-weight:bold;vertical-align:top;">utcnow</td><td style="vertical-align:top;">:</td><td><div>datetime.datetime(2017, 1, 22, 18, 49, 52, 951000)</div></td></tr><tr><td style="font-weight:bold;vertical-align:top;">wsgi</td><td style="vertical-align:top;">:</td><td><div>&lt;gluon.main.LazyWSGI object at 0x08093530&gt;</div></td></tr></table></div>'
tRp56
sS'frames'
p57
(lp58
(dp59
S'file'
p60
S'C:\\Users\\Wesly\\Desktop\\UCSC-Hack-2017\\gluon\\main.py'
p61
sS'dump'
p62
(dp63
S'global serve_controller'
p64
S'<function serve_controller>'
p65
sS'session'
p66
S"<Storage {'_formkey[event/create]': ['a4662b26-d...3d756', '61afc545-8b76-4b5f-ab2b-9ca3ad5a98ac']}>"
p67
sS'request'
p68
S"<Storage {'_vars': None, 'function': 'event_page...ktop\\\\UCSC-Hack-2017\\\\applications\\\\ourhours\\\\'}>"
p69
sS'response'
p70
S"<Storage {'body': <cStringIO.StringO object at 0... 0x08037B30>, 'view': 'default/event_page.html'}>"
p71
ssS'lnum'
p72
I449
sS'lines'
p73
(dp74
I448
S''
sI449
S'                serve_controller(request, response, session)'
p75
sI450
S''
sI451
S'            except HTTP, http_response:'
p76
sI452
S''
sI453
S'                if static_file:'
p77
sI444
S'                if global_settings.debugging and app != "admin":'
p78
sI445
S'                    import gluon.debug'
p79
sI446
S'                    # activate the debugger'
p80
sI447
S'                    gluon.debug.dbg.do_debug(mainpyfile=request.folder)'
p81
ssS'call'
p82
S'(environ={\'HTTP_ACCEPT\': \'text/html,application/xhtml+xml,application/xml;q=0.9,image/webp,*/*;q=0.8\', \'HTTP_ACCEPT_ENCODING\': \'gzip, deflate, sdch, br\', \'HTTP_ACCEPT_LANGUAGE\': \'en-US,en;q=0.8\', \'HTTP_CACHE_CONTROL\': \'max-age=0\', \'HTTP_CONNECTION\': \'keep-alive\', \'HTTP_COOKIE\': \'session_id_layouttest=127.0.0.1-9dd550cb-7d25-45...vjA=="; session_id_ourhours=True; resolution=1366\', \'HTTP_HOST\': \'127.0.0.1:8000\', \'HTTP_REFERER\': \'http://127.0.0.1:8000/ourhours/default/join\', \'HTTP_UPGRADE_INSECURE_REQUESTS\': \'1\', \'HTTP_USER_AGENT\': \'Mozilla/5.0 (Windows NT 10.0; Win64; x64) AppleW...ML, like Gecko) Chrome/55.0.2883.87 Safari/537.36\', ...}, responder=<function responder2>)'
p83
sS'func'
p84
S'wsgibase'
p85
sa(dp86
g60
S'C:\\Users\\Wesly\\Desktop\\UCSC-Hack-2017\\gluon\\main.py'
p87
sg62
(dp88
S'response._view_environment'
p89
S"{'A': <class 'gluon.html.A'>, 'ANY_OF': <class 'gluon.validators.ANY_OF'>, 'ASSIGNJS': <function ASSIGNJS>, 'Auth': <class 'gluon.tools.Auth'>, 'B': <class 'gluon.html.B'>, 'BEAUTIFY': <class 'gluon.html.BEAUTIFY'>, 'BODY': <class 'gluon.html.BODY'>, 'BR': <class 'gluon.html.BR'>, 'BUTTON': <class 'gluon.html.BUTTON'>, 'CAT': <class 'gluon.html.CAT'>, ...}"
p90
sS'response'
p91
S"<Storage {'body': <cStringIO.StringO object at 0... 0x08037B30>, 'view': 'default/event_page.html'}>"
p92
sS'global run_view_in'
p93
S'<function run_view_in>'
p94
ssg72
I191
sg73
(dp95
I192
S'        page = response.body.getvalue()'
p96
sI193
S'    # logic to garbage collect after exec, not always, once every 100 requests'
p97
sI194
S'    global requests'
p98
sI195
S"    requests = ('requests' in globals()) and (requests + 1) % 100 or 0"
p99
sI186
S'    response._view_environment = copy.copy(environment)'
p100
sI187
S'    page = run_controller_in(request.controller, request.function, environment)'
p101
sI188
S'    if isinstance(page, dict):'
p102
sI189
S'        response._vars = page'
p103
sI190
S'        response._view_environment.update(page)'
p104
sI191
S'        run_view_in(response._view_environment)'
p105
ssg82
S"(request=<Storage {'_vars': None, 'function': 'event_page...ktop\\\\UCSC-Hack-2017\\\\applications\\\\ourhours\\\\'}>, response=<Storage {'body': <cStringIO.StringO object at 0... 0x08037B30>, 'view': 'default/event_page.html'}>, session=<Storage {'_formkey[event/create]': ['a4662b26-d...3d756', '61afc545-8b76-4b5f-ab2b-9ca3ad5a98ac']}>)"
p106
sg84
S'serve_controller'
p107
sa(dp108
g60
S'C:\\Users\\Wesly\\Desktop\\UCSC-Hack-2017\\gluon\\compileapp.py'
p109
sg62
(dp110
S'environment'
p111
S"{'A': <class 'gluon.html.A'>, 'ANY_OF': <class 'gluon.validators.ANY_OF'>, 'ASSIGNJS': <function ASSIGNJS>, 'Auth': <class 'gluon.tools.Auth'>, 'B': <class 'gluon.html.B'>, 'BEAUTIFY': <class 'gluon.html.BEAUTIFY'>, 'BODY': <class 'gluon.html.BODY'>, 'BR': <class 'gluon.html.BR'>, 'BUTTON': <class 'gluon.html.BUTTON'>, 'CAT': <class 'gluon.html.CAT'>, ...}"
p112
sS'context'
p113
S'undefined'
p114
ssg72
I714
sg73
(dp115
I709
S"                                            pjoin(folder, 'views'),"
p116
sI710
S'                                            context=environment), layer))'
p117
sI711
S'        else:'
p118
sI712
S'            ccode = parse_template(view,'
p119
sI713
S"                                   pjoin(folder, 'views'),"
p120
sI714
S'                                   context=environment)'
p121
sI715
S'        restricted(ccode, environment, layer)'
p122
sI716
S''
sI717
S''
sI718
S'def remove_compiled_application(folder):'
p123
ssg82
S"(environment={'A': <class 'gluon.html.A'>, 'ANY_OF': <class 'gluon.validators.ANY_OF'>, 'ASSIGNJS': <function ASSIGNJS>, 'Auth': <class 'gluon.tools.Auth'>, 'B': <class 'gluon.html.B'>, 'BEAUTIFY': <class 'gluon.html.BEAUTIFY'>, 'BODY': <class 'gluon.html.BODY'>, 'BR': <class 'gluon.html.BR'>, 'BUTTON': <class 'gluon.html.BUTTON'>, 'CAT': <class 'gluon.html.CAT'>, ...})"
p124
sg84
S'run_view_in'
p125
sa(dp126
g60
S'C:\\Users\\Wesly\\Desktop\\UCSC-Hack-2017\\gluon\\template.py'
p127
sg62
(dp128
S'builtinstr'
p129
S"<type 'str'>"
p130
sS'global TemplateParser'
p131
S"<class 'gluon.template.TemplateParser'>"
p132
sS'delimiters'
p133
S"('{{', '}}')"
p134
sS'context'
p135
S"{'A': <class 'gluon.html.A'>, 'ANY_OF': <class 'gluon.validators.ANY_OF'>, 'ASSIGNJS': <function ASSIGNJS>, 'Auth': <class 'gluon.tools.Auth'>, 'B': <class 'gluon.html.B'>, 'BEAUTIFY': <class 'gluon.html.BEAUTIFY'>, 'BODY': <class 'gluon.html.BODY'>, 'BR': <class 'gluon.html.BR'>, 'BUTTON': <class 'gluon.html.BUTTON'>, 'CAT': <class 'gluon.html.CAT'>, ...}"
p136
sS'text'
p137
S"'{{extend layout.html}}\\r\\n<head>\\r\\n\\r\\n<!-- BLOCK: un...;\\r\\n        });\\r\\n    </script>\\r\\n</body>\\r\\n</center>'"
p138
sS'path'
p139
S"r'C:\\Users\\Wesly\\Desktop\\UCSC-Hack-2017\\applications\\ourhours\\views'"
p140
sS'lexers'
p141
g43
ssg72
I797
sg73
(dp142
I800
S'def get_parsed(text):'
p143
sI801
S'    """'
p144
sI792
S"            raise RestrictedError(filename, '', 'Unable to find the file')"
p145
sI793
S'    else:'
p146
sI794
S'        text = filename.read()'
p147
sI795
S''
sI796
S'    # Use the file contents to get a parsed template and return it.'
p148
sI797
S'    return str(TemplateParser(text, context=context, path=path, lexers=lexers, delimiters=delimiters))'
p149
sI798
S''
sI799
S''
ssg82
S"(filename='default/event_page.html', path=r'C:\\Users\\Wesly\\Desktop\\UCSC-Hack-2017\\applications\\ourhours\\views', context={'A': <class 'gluon.html.A'>, 'ANY_OF': <class 'gluon.validators.ANY_OF'>, 'ASSIGNJS': <function ASSIGNJS>, 'Auth': <class 'gluon.tools.Auth'>, 'B': <class 'gluon.html.B'>, 'BEAUTIFY': <class 'gluon.html.BEAUTIFY'>, 'BODY': <class 'gluon.html.BODY'>, 'BR': <class 'gluon.html.BR'>, 'BUTTON': <class 'gluon.html.BUTTON'>, 'CAT': <class 'gluon.html.CAT'>, ...}, lexers={}, delimiters=('{{', '}}'))"
p150
sg84
S'parse_template'
p151
sa(dp152
g60
S'C:\\Users\\Wesly\\Desktop\\UCSC-Hack-2017\\gluon\\template.py'
p153
sg62
(dp154
S'text'
p155
S"'{{extend layout.html}}\\r\\n<head>\\r\\n\\r\\n<!-- BLOCK: un...;\\r\\n        });\\r\\n    </script>\\r\\n</body>\\r\\n</center>'"
p156
sS'self'
p157
S'<gluon.template.TemplateParser object>'
p158
sS'self.parse'
p159
S'<bound method TemplateParser.parse of <gluon.template.TemplateParser object>>'
p160
ssg72
I319
sg73
(dp161
I320
S''
sI321
S'    def to_string(self):'
p162
sI322
S'        """'
p163
sI323
S'        Returns the parsed template with correct indentation.'
p164
sI314
S'        # This variable will hold a reference to every block'
p165
sI315
S'        # that we come across in this template'
p166
sI316
S'        self.blocks = {}'
p167
sI317
S''
sI318
S'        # Begin parsing.'
p168
sI319
S'        self.parse(text)'
p169
ssg82
S"(self=<gluon.template.TemplateParser object>, text='{{extend layout.html}}\\r\\n<head>\\r\\n\\r\\n<!-- BLOCK: un...;\\r\\n        });\\r\\n    </script>\\r\\n</body>\\r\\n</center>', name='ParserContainer', context={'A': <class 'gluon.html.A'>, 'ANY_OF': <class 'gluon.validators.ANY_OF'>, 'ASSIGNJS': <function ASSIGNJS>, 'Auth': <class 'gluon.tools.Auth'>, 'B': <class 'gluon.html.B'>, 'BEAUTIFY': <class 'gluon.html.BEAUTIFY'>, 'BODY': <class 'gluon.html.BODY'>, 'BR': <class 'gluon.html.BR'>, 'BUTTON': <class 'gluon.html.BUTTON'>, 'CAT': <class 'gluon.html.CAT'>, ...}, path=r'C:\\Users\\Wesly\\Desktop\\UCSC-Hack-2017\\applications\\ourhours\\views', writer='response.write', lexers={}, delimiters=('{{', '}}'), _super_nodes=[])"
p170
sg84
g48
sa(dp171
g60
S'C:\\Users\\Wesly\\Desktop\\UCSC-Hack-2017\\gluon\\template.py'
p172
sg62
(dp173
S'self'
p174
S'<gluon.template.TemplateParser object>'
p175
sS'extend'
p176
S"'layout.html'"
p177
sS'self.extend'
p178
S'<bound method TemplateParser.extend of <gluon.template.TemplateParser object>>'
p179
ssg72
I765
sg73
(dp180
I768
S''
sI769
S''
sI760
S'            # Sometimes I miss C-Style pointers... I want my asterisk...'
p181
sI761
S'            self.child_super_nodes.remove(node)'
p182
sI762
S''
sI763
S'        # If we need to extend a template.'
p183
sI764
S'        if extend:'
p184
sI765
S'            self.extend(extend)'
p185
sI766
S''
sI767
S'# We need this for integration with gluon'
p186
ssg82
S"(self=<gluon.template.TemplateParser object>, text='{{extend layout.html}}\\r\\n<head>\\r\\n\\r\\n<!-- BLOCK: un...;\\r\\n        });\\r\\n    </script>\\r\\n</body>\\r\\n</center>')"
p187
sg84
S'parse'
p188
sa(dp189
g60
S'C:\\Users\\Wesly\\Desktop\\UCSC-Hack-2017\\gluon\\template.py'
p190
sg62
(dp191
S'text'
p192
g114
sS'self'
p193
S'<gluon.template.TemplateParser object>'
p194
sS'self._get_file_text'
p195
S'<bound method TemplateParser._get_file_text of <gluon.template.TemplateParser object>>'
p196
sS'filename'
p197
S"'layout.html'"
p198
sS'builtintuple'
p199
S"<type 'tuple'>"
p200
sS'self.delimiters'
p201
S"('{{', '}}')"
p202
ssg72
I479
sg73
(dp203
I480
S''
sI481
S'        # Create out nodes list to send to the parent'
p204
sI482
S'        super_nodes = []'
p205
sI483
S'        # We want to include any non-handled nodes.'
p206
sI474
S'        """'
p207
sI475
S'        Extends `filename`. Anything not declared in a block defined by the'
p208
sI476
S'        parent will be placed in the parent templates `{{include}}` block.'
p209
sI477
S'        """'
p210
sI478
S'        # If no filename, create a dummy layout with only an {{include}}.'
p211
sI479
S"        text = self._get_file_text(filename) or '%sinclude%s' % tuple(self.delimiters)"
p212
ssg82
S"(self=<gluon.template.TemplateParser object>, filename='layout.html')"
p213
sg84
S'extend'
p214
sa(dp215
g60
S'C:\\Users\\Wesly\\Desktop\\UCSC-Hack-2017\\gluon\\template.py'
p216
sg62
(dp217
S'builtineval'
p218
S'<built-in function eval>'
p219
sS'context'
p220
S"{'A': <class 'gluon.html.A'>, 'ANY_OF': <class 'gluon.validators.ANY_OF'>, 'ASSIGNJS': <function ASSIGNJS>, 'Auth': <class 'gluon.tools.Auth'>, 'B': <class 'gluon.html.B'>, 'BEAUTIFY': <class 'gluon.html.BEAUTIFY'>, 'BODY': <class 'gluon.html.BODY'>, 'BR': <class 'gluon.html.BR'>, 'BUTTON': <class 'gluon.html.BUTTON'>, 'CAT': <class 'gluon.html.CAT'>, ...}"
p221
sS'filename'
p222
S"'layout.html'"
p223
ssg72
I439
sg73
(dp224
I434
S'        if current and not "response" in context:'
p225
sI435
S'            context["response"] = getattr(current, \'response\', None)'
p226
sI436
S''
sI437
S'        # Get the filename; filename looks like ``"template.html"``.'
p227
sI438
S'        # We need to eval to remove the quotes and get the string type.'
p228
sI439
S'        filename = eval(filename, context)'
p229
sI440
S''
sI441
S'        # Allow empty filename for conditional extend and include directives.'
p230
sI442
S'        if not filename:'
p231
sI443
S"            return ''"
p232
ssg82
S"(self=<gluon.template.TemplateParser object>, filename='layout.html')"
p233
sg84
S'_get_file_text'
p234
sa(dp235
g60
S'C:\\Users\\Wesly\\Desktop\\UCSC-Hack-2017\\<string>'
p236
sg62
(dp237
sg72
I1
sg73
(dp238
sg82
S'()'
p239
sg84
S'<module>'
p240
sasS'pyver'
p241
S'Python 2.7.9: C:\\Users\\Wesly\\Desktop\\UCSC-Hack-2017\\web2py.exe (prefix: )'
p242
sS'session'
p243
g55
(S's\x1a\x00\x00\x00<div><table></table></div>'
tRp244
sS'etype'
p245
S"<type 'exceptions.NameError'>"
p246
sS'date'
p247
S'Sun Jan 22 10:49:53 2017'
p248
sS'response'
p249
g55
(S's\xc1\x16\x00\x00<div><table><tr><td style="font-weight:bold;vertical-align:top;">body</td><td style="vertical-align:top;">:</td><td><div>&lt;cStringIO.StringO object at 0x08090DA0&gt;</div></td></tr><tr><td style="font-weight:bold;vertical-align:top;">cookies</td><td style="vertical-align:top;">:</td><td><div><table><tr><td style="font-weight:bold;vertical-align:top;">session_id_ourhours</td><td style="vertical-align:top;">:</td><td><div>127.0.0.1-cef08d8f-9f34-4c18-94cf-36c7951f2f77<table><tr><td style="font-weight:bold;vertical-align:top;">comment</td><td style="vertical-align:top;">:</td><td><div></div></td></tr><tr><td style="font-weight:bold;vertical-align:top;">domain</td><td style="vertical-align:top;">:</td><td><div></div></td></tr><tr><td style="font-weight:bold;vertical-align:top;">expires</td><td style="vertical-align:top;">:</td><td><div></div></td></tr><tr><td style="font-weight:bold;vertical-align:top;">httponly</td><td style="vertical-align:top;">:</td><td><div></div></td></tr><tr><td style="font-weight:bold;vertical-align:top;">max-age</td><td style="vertical-align:top;">:</td><td><div></div></td></tr><tr><td style="font-weight:bold;vertical-align:top;">path</td><td style="vertical-align:top;">:</td><td><div>/</div></td></tr><tr><td style="font-weight:bold;vertical-align:top;">secure</td><td style="vertical-align:top;">:</td><td><div></div></td></tr><tr><td style="font-weight:bold;vertical-align:top;">version</td><td style="vertical-align:top;">:</td><td><div></div></td></tr></table></div></td></tr></table></div></td></tr><tr><td style="font-weight:bold;vertical-align:top;">delimiters</td><td style="vertical-align:top;">:</td><td><div><table><tr><td><div>{{</div></td></tr><tr><td><div>}}</div></td></tr></table></div></td></tr><tr><td style="font-weight:bold;vertical-align:top;">files</td><td style="vertical-align:top;">:</td><td><div><table></table></div></td></tr><tr><td style="font-weight:bold;vertical-align:top;">flash</td><td style="vertical-align:top;">:</td><td><div></div></td></tr><tr><td style="font-weight:bold;vertical-align:top;">form_label_separator</td><td style="vertical-align:top;">:</td><td><div>: </div></td></tr><tr><td style="font-weight:bold;vertical-align:top;">formstyle</td><td style="vertical-align:top;">:</td><td><div>table3cols</div></td></tr><tr><td style="font-weight:bold;vertical-align:top;">generic_patterns</td><td style="vertical-align:top;">:</td><td><div><table><tr><td><div>*</div></td></tr></table></div></td></tr><tr><td style="font-weight:bold;vertical-align:top;">headers</td><td style="vertical-align:top;">:</td><td><div><table><tr><td style="font-weight:bold;vertical-align:top;">X-Powered-By</td><td style="vertical-align:top;">:</td><td><div>web2py</div></td></tr></table></div></td></tr><tr><td style="font-weight:bold;vertical-align:top;">menu</td><td style="vertical-align:top;">:</td><td><div><table><tr><td><div><table><tr><td><div>Home</div></td></tr><tr><td><div>False</div></td></tr><tr><td><div>/ourhours/default/index</div></td></tr></table></div></td></tr></table></div></td></tr><tr><td style="font-weight:bold;vertical-align:top;">meta</td><td style="vertical-align:top;">:</td><td><div><table></table></div></td></tr><tr><td style="font-weight:bold;vertical-align:top;">models_to_run</td><td style="vertical-align:top;">:</td><td><div><table><tr><td><div>^\\w+\\.py$</div></td></tr><tr><td><div>^default/\\w+\\.py$</div></td></tr><tr><td><div>^default/event_page/\\w+\\.py$</div></td></tr></table></div></td></tr><tr><td style="font-weight:bold;vertical-align:top;">postprocessing</td><td style="vertical-align:top;">:</td><td><div><table></table></div></td></tr><tr><td style="font-weight:bold;vertical-align:top;">session_client</td><td style="vertical-align:top;">:</td><td><div>127.0.0.1</div></td></tr><tr><td style="font-weight:bold;vertical-align:top;">session_cookie_compression_level</td><td style="vertical-align:top;">:</td><td><div>None</div></td></tr><tr><td style="font-weight:bold;vertical-align:top;">session_cookie_expires</td><td style="vertical-align:top;">:</td><td><div>None</div></td></tr><tr><td style="font-weight:bold;vertical-align:top;">session_data_name</td><td style="vertical-align:top;">:</td><td><div>session_data_ourhours</div></td></tr><tr><td style="font-weight:bold;vertical-align:top;">session_file</td><td style="vertical-align:top;">:</td><td><div>None</div></td></tr><tr><td style="font-weight:bold;vertical-align:top;">session_filename</td><td style="vertical-align:top;">:</td><td><div>C:\\Users\\Wesly\\Desktop\\UCSC-Hack-2017\\applications\\ourhours\\sessions\\127.0.0.1-cef08d8f-9f34-4c18-94cf-36c7951f2f77</div></td></tr><tr><td style="font-weight:bold;vertical-align:top;">session_hash</td><td style="vertical-align:top;">:</td><td><div>15401433d6733f3fe4354dfe44730102</div></td></tr><tr><td style="font-weight:bold;vertical-align:top;">session_id</td><td style="vertical-align:top;">:</td><td><div>True</div></td></tr><tr><td style="font-weight:bold;vertical-align:top;">session_id_name</td><td style="vertical-align:top;">:</td><td><div>session_id_ourhours</div></td></tr><tr><td style="font-weight:bold;vertical-align:top;">session_masterapp</td><td style="vertical-align:top;">:</td><td><div>ourhours</div></td></tr><tr><td style="font-weight:bold;vertical-align:top;">session_new</td><td style="vertical-align:top;">:</td><td><div>True</div></td></tr><tr><td style="font-weight:bold;vertical-align:top;">session_storage_type</td><td style="vertical-align:top;">:</td><td><div>cookie</div></td></tr><tr><td style="font-weight:bold;vertical-align:top;">status</td><td style="vertical-align:top;">:</td><td><div>200</div></td></tr><tr><td style="font-weight:bold;vertical-align:top;">view</td><td style="vertical-align:top;">:</td><td><div>default/event_page.html</div></td></tr></table></div>'
tRp250
sS'locals'
p251
(dp252
S'IFRAME'
p253
S"<class 'gluon.html.IFRAME'>"
p254
sS'toggle_menuclass'
p255
S'<function toggle_menuclass>'
p256
sS'OBJECT'
p257
S"<class 'gluon.html.OBJECT'>"
p258
sS'SQLDB'
p259
S"<class 'pydal.base.DAL'>"
p260
sg243
S"<Storage {'_formkey[event/create]': ['a4662b26-d...3d756', '61afc545-8b76-4b5f-ab2b-9ca3ad5a98ac']}>"
p261
sS'LINK'
p262
S"<class 'gluon.html.LINK'>"
p263
sS'BR'
p264
S"<class 'gluon.html.BR'>"
p265
sS'local_import'
p266
S'<function <lambda>>'
p267
sS'OPTGROUP'
p268
S"<class 'gluon.html.OPTGROUP'>"
p269
sS'__package__'
p270
S'None'
p271
sS'PRE'
p272
S"<class 'gluon.html.PRE'>"
p273
sS'IS_INT_IN_RANGE'
p274
S"<class 'gluon.validators.IS_INT_IN_RANGE'>"
p275
sS'IS_LOWER'
p276
S"<class 'gluon.validators.IS_LOWER'>"
p277
sS'IS_STRONG'
p278
S"<class 'gluon.validators.IS_STRONG'>"
p279
sS'cache'
p280
S'<gluon.cache.Cache object>'
p281
sS'IS_IN_DB'
p282
S"<class 'gluon.validators.IS_IN_DB'>"
p283
sS'TAG'
p284
S'<gluon.html.__TAG__ object>'
p285
sS'SQLField'
p286
S"<class 'pydal.objects.Field'>"
p287
sS'BODY'
p288
S"<class 'gluon.html.BODY'>"
p289
sS'IS_DATE_IN_RANGE'
p290
S"<class 'gluon.validators.IS_DATE_IN_RANGE'>"
p291
sS'random'
p292
S"<module 'random' from 'C:\\Users\\Wesly\\Desktop\\UCSC-Hack-2017\\library.zip\\random.pyc'>"
p293
sS'string'
p294
S"<module 'string' from 'C:\\Users\\Wesly\\Desktop\\UCSC-Hack-2017\\library.zip\\string.pyc'>"
p295
sS'URL'
p296
S'<function URL>'
p297
sS'__file__'
p298
S"r'C:\\Users\\Wesly\\Desktop\\UCSC-Hack-2017\\applications\\ourhours\\models\\session.py'"
p299
sS'db'
p300
S'<DAL uri="sqlite://storage.sqlite">'
p301
sS'auth'
p302
S'<gluon.tools.Auth object>'
p303
sS'P'
S"<class 'gluon.html.P'>"
p304
sS'TFOOT'
p305
S"<class 'gluon.html.TFOOT'>"
p306
sS'XHTML'
p307
S"<class 'gluon.html.XHTML'>"
p308
sS'ON'
p309
S'True'
p310
sS'OL'
p311
S"<class 'gluon.html.OL'>"
p312
sS'TEXTAREA'
p313
S"<class 'gluon.html.TEXTAREA'>"
p314
sS'MENU'
p315
S"<class 'gluon.html.MENU'>"
p316
sS'IS_IMAGE'
p317
S"<class 'gluon.validators.IS_IMAGE'>"
p318
sS'x'
S'\'[{"start": "2017-01-26", "allday": true, "end": ...17-01-05", "allday": false, "end": "2017-01-12"}]\''
p319
sS'code_feed_reader'
p320
S'<function code_feed_reader>'
p321
sS'EM'
p322
S"<class 'gluon.html.EM'>"
p323
sS'CODE'
p324
S"<class 'gluon.html.CODE'>"
p325
sS'HTTP'
p326
S"<class 'gluon.http.HTTP'>"
p327
sS'HR'
p328
S"<class 'gluon.html.HR'>"
p329
sS'IS_DATETIME'
p330
S"<class 'gluon.validators.IS_DATETIME'>"
p331
sS'cookie_key'
p332
S"'c2851c69-35f2-446d-beb1-4d8f838e13be'"
p333
sS'STYLE'
p334
S"<class 'gluon.html.STYLE'>"
p335
sS'LABEL'
p336
S"<class 'gluon.html.LABEL'>"
p337
sS'CLEANUP'
p338
S"<class 'gluon.validators.CLEANUP'>"
p339
sS'event'
p340
S'<Rows (2)>'
p341
sS'SELECT'
p342
S"<class 'gluon.html.SELECT'>"
p343
sS'CENTER'
p344
S"<class 'gluon.html.CENTER'>"
p345
sS'Auth'
p346
S"<class 'gluon.tools.Auth'>"
p347
sS'__builtins__'
p348
S"{'ArithmeticError': <type 'exceptions.ArithmeticError'>, 'AssertionError': <type 'exceptions.AssertionError'>, 'AttributeError': <type 'exceptions.AttributeError'>, 'BaseException': <type 'exceptions.BaseException'>, 'BufferError': <type 'exceptions.BufferError'>, 'BytesWarning': <type 'exceptions.BytesWarning'>, 'DeprecationWarning': <type 'exceptions.DeprecationWarning'>, 'EOFError': <type 'exceptions.EOFError'>, 'Ellipsis': Ellipsis, 'EnvironmentError': <type 'exceptions.EnvironmentError'>, ...}"
p349
sS'HTML'
p350
S"<class 'gluon.html.HTML'>"
p351
sS'SQLFORM'
p352
S"<class 'gluon.sqlhtml.SQLFORM'>"
p353
sS'LOAD'
p354
S'<function LOAD>'
p355
sS'redirect'
p356
S'<function redirect>'
p357
sS'FIELDSET'
p358
S"<class 'gluon.html.FIELDSET'>"
p359
sS'IS_EQUAL_TO'
p360
S"<class 'gluon.validators.IS_EQUAL_TO'>"
p361
sS'embed64'
p362
S'<function embed64>'
p363
sS'IS_LIST_OF'
p364
S"<class 'gluon.validators.IS_LIST_OF'>"
p365
sS'INPUT'
p366
S"<class 'gluon.html.INPUT'>"
p367
sS'EMBED'
p368
S"<class 'gluon.html.EMBED'>"
p369
sS'g'
S"<Row {'group_code': 'lXKag', 'email': 'welim@ucs...escription': 'No Group Description.', 'id': 27L}>"
p370
sS'H2'
p371
S"<class 'gluon.html.H2'>"
p372
sS'H3'
p373
S"<class 'gluon.html.H3'>"
p374
sS'BUTTON'
p375
S"<class 'gluon.html.BUTTON'>"
p376
sS'H1'
p377
S"<class 'gluon.html.H1'>"
p378
sS'H6'
p379
S"<class 'gluon.html.H6'>"
p380
sS'H4'
p381
S"<class 'gluon.html.H4'>"
p382
sS'H5'
p383
S"<class 'gluon.html.H5'>"
p384
sS'UL'
p385
S"<class 'gluon.html.UL'>"
p386
sS'IS_UPPER'
p387
S"<class 'gluon.validators.IS_UPPER'>"
p388
sS'xmlescape'
p389
S'<function xmlescape>'
p390
sS'IS_TIME'
p391
S"<class 'gluon.validators.IS_TIME'>"
p392
sS'OPTION'
p393
S"<class 'gluon.html.OPTION'>"
p394
sS'TITLE'
p395
S"<class 'gluon.html.TITLE'>"
p396
sS'CRYPT'
p397
S"<class 'gluon.validators.CRYPT'>"
p398
sS'IS_EMPTY_OR'
p399
S"<class 'gluon.validators.IS_EMPTY_OR'>"
p400
sS'MARKMIN'
p401
S"<class 'gluon.html.MARKMIN'>"
p402
sS'web2py_uuid'
p403
S'<function web2py_uuid>'
p404
sS'__name__'
p405
S"'__restricted__'"
p406
sS'STRONG'
p407
S"<class 'gluon.html.STRONG'>"
p408
sS'json_data'
p409
S'\'[{"start": "2017-01-26", "allday": true, "end": ...17-01-05", "allday": false, "end": "2017-01-12"}]\''
p410
sS'COL'
p411
S"<class 'gluon.html.COL'>"
p412
sS'SCRIPT'
p413
S"<class 'gluon.html.SCRIPT'>"
p414
sS'group_feed_reader'
p415
S'<function group_feed_reader>'
p416
sS'TABLE'
p417
S"<class 'gluon.html.TABLE'>"
p418
sS'IS_IPV4'
p419
S"<class 'gluon.validators.IS_IPV4'>"
p420
sS'IS_LENGTH'
p421
S"<class 'gluon.validators.IS_LENGTH'>"
p422
sS'IS_IPV6'
p423
S"<class 'gluon.validators.IS_IPV6'>"
p424
sS'XML'
p425
S"<class 'gluon.html.XML'>"
p426
sS'B'
S"<class 'gluon.html.B'>"
p427
sS'IMG'
p428
S"<class 'gluon.html.IMG'>"
p429
sS'SQLTABLE'
p430
S"<class 'gluon.sqlhtml.SQLTABLE'>"
p431
sS'IS_MATCH'
p432
S"<class 'gluon.validators.IS_MATCH'>"
p433
sS'IS_ALPHANUMERIC'
p434
S"<class 'gluon.validators.IS_ALPHANUMERIC'>"
p435
sS'SPAN'
p436
S"<class 'gluon.html.SPAN'>"
p437
sS'IS_JSON'
p438
S"<class 'gluon.validators.IS_JSON'>"
p439
sS'IS_IPADDRESS'
p440
S"<class 'gluon.validators.IS_IPADDRESS'>"
p441
sS'IS_SLUG'
p442
S"<class 'gluon.validators.IS_SLUG'>"
p443
sS'BEAUTIFY'
p444
S"<class 'gluon.html.BEAUTIFY'>"
p445
sS'META'
p446
S"<class 'gluon.html.META'>"
p447
sS'IS_DATE'
p448
S"<class 'gluon.validators.IS_DATE'>"
p449
sS'IS_EMAIL'
p450
S"<class 'gluon.validators.IS_EMAIL'>"
p451
sS'IS_NOT_EMPTY'
p452
S"<class 'gluon.validators.IS_NOT_EMPTY'>"
p453
sS'IS_FLOAT_IN_RANGE'
p454
S"<class 'gluon.validators.IS_FLOAT_IN_RANGE'>"
p455
sS'TBODY'
p456
S"<class 'gluon.html.TBODY'>"
p457
sS'CAT'
p458
S"<class 'gluon.html.CAT'>"
p459
sS'Field'
p460
S"<class 'pydal.objects.Field'>"
p461
sS'IS_LIST_OF_EMAILS'
p462
S"<class 'gluon.validators.IS_LIST_OF_EMAILS'>"
p463
sS'DIV'
p464
S"<class 'gluon.html.DIV'>"
p465
sS'LEGEND'
p466
S"<class 'gluon.html.LEGEND'>"
p467
sS'COLGROUP'
p468
S"<class 'gluon.html.COLGROUP'>"
p469
sS'DAL'
p470
S"<class 'pydal.base.DAL'>"
p471
sS'ASSIGNJS'
p472
S'<function ASSIGNJS>'
p473
sS'TR'
p474
S"<class 'gluon.html.TR'>"
p475
sS'LI'
p476
S"<class 'gluon.html.LI'>"
p477
sS'TH'
p478
S"<class 'gluon.html.TH'>"
p479
sS'TD'
p480
S"<class 'gluon.html.TD'>"
p481
sS'IS_URL'
p482
S"<class 'gluon.validators.IS_URL'>"
p483
sS'A'
S"<class 'gluon.html.A'>"
p484
sS'HEAD'
p485
S"<class 'gluon.html.HEAD'>"
p486
sS'IS_DATETIME_IN_RANGE'
p487
S"<class 'gluon.validators.IS_DATETIME_IN_RANGE'>"
p488
sS'FORM'
p489
S"<class 'gluon.html.FORM'>"
p490
sS'I'
S"<class 'gluon.html.I'>"
p491
sS'IS_NOT_IN_DB'
p492
S"<class 'gluon.validators.IS_NOT_IN_DB'>"
p493
sg249
S"<Storage {'body': <cStringIO.StringO object at 0... 0x08037B30>, 'view': 'default/event_page.html'}>"
p494
sS'THEAD'
p495
S"<class 'gluon.html.THEAD'>"
p496
sS'ANY_OF'
p497
S"<class 'gluon.validators.ANY_OF'>"
p498
sS'IS_NULL_OR'
p499
S"<class 'gluon.validators.IS_EMPTY_OR'>"
p500
sS'e'
S"<Row {'event_description': '123', 'end': datetim...e': None, 'event_name': 'more tests', 'id': 29L}>"
p501
sg54
S"<Storage {'_vars': None, 'function': 'event_page...ktop\\\\UCSC-Hack-2017\\\\applications\\\\ourhours\\\\'}>"
p502
sS'IS_EXPR'
p503
S"<class 'gluon.validators.IS_EXPR'>"
p504
sS'T'
S'<gluon.languages.translator object>'
p505
sS'IS_IN_SET'
p506
S"<class 'gluon.validators.IS_IN_SET'>"
p507
sS'IS_UPLOAD_FILENAME'
p508
S"<class 'gluon.validators.IS_UPLOAD_FILENAME'>"
p509
sS'TT'
p510
S"<class 'gluon.html.TT'>"
p511
sS'IS_DECIMAL_IN_RANGE'
p512
S"<class 'gluon.validators.IS_DECIMAL_IN_RANGE'>"
p513
sssS'traceback'
p514
S'Traceback (most recent call last):\n  File "C:\\Users\\Wesly\\Desktop\\UCSC-Hack-2017\\gluon\\main.py", line 449, in wsgibase\n    serve_controller(request, response, session)\n  File "C:\\Users\\Wesly\\Desktop\\UCSC-Hack-2017\\gluon\\main.py", line 191, in serve_controller\n    run_view_in(response._view_environment)\n  File "C:\\Users\\Wesly\\Desktop\\UCSC-Hack-2017\\gluon\\compileapp.py", line 714, in run_view_in\n    context=environment)\n  File "C:\\Users\\Wesly\\Desktop\\UCSC-Hack-2017\\gluon\\template.py", line 797, in parse_template\n    return str(TemplateParser(text, context=context, path=path, lexers=lexers, delimiters=delimiters))\n  File "C:\\Users\\Wesly\\Desktop\\UCSC-Hack-2017\\gluon\\template.py", line 319, in __init__\n    self.parse(text)\n  File "C:\\Users\\Wesly\\Desktop\\UCSC-Hack-2017\\gluon\\template.py", line 765, in parse\n    self.extend(extend)\n  File "C:\\Users\\Wesly\\Desktop\\UCSC-Hack-2017\\gluon\\template.py", line 479, in extend\n    text = self._get_file_text(filename) or \'%sinclude%s\' % tuple(self.delimiters)\n  File "C:\\Users\\Wesly\\Desktop\\UCSC-Hack-2017\\gluon\\template.py", line 439, in _get_file_text\n    filename = eval(filename, context)\n  File "<string>", line 1, in <module>\nNameError: name \'layout\' is not defined\n'
p515
s.