(dp1
S'output'
p2
S"<type 'exceptions.AttributeError'> "
p3
sS'layer'
p4
S'C:\\Users\\Wesly\\Desktop\\UCSC-Hack-2017\\applications\\ourhours\\controllers/default.py'
p5
sS'code'
p6
S'from gluon.tools import Mail\nimport imaplib\nimport email\nfrom email.header import decode_header\n\nimport random\nimport string\ndef index():\n    groups = db(db.groups).select(db.groups.ALL)\n    return locals()\n\n# @auth.requires_login()\ndef create():\n    form = SQLFORM(db.groups, deletable=True).process()\n    if form.accepted:\n        \n        redirect(URL(\'index\'))\n    return locals()\n\ndef join():\n    groups = db(db.groups).select(db.groups.group_code)\n    form = SQLFORM(db.join_group, deletable=True).process()\n    if form.accepted:\n        for groups in groups:\n            # response.flash = groups.group_code\n            if request.vars.join_code in groups.group_code:\n                response.flash = \'Welcome to the group!\'\n                redirect(URL(\'event_page\',args=groups.id))\n    return locals()\n\n# @auth.requires_login()\ndef ecreate():\n    form = SQLFORM(db.event, deletable=True).process()\n    if form.accepted:\n        redirect(URL(\'index\'))\n    return locals()\n\nimport json\nfrom datetime import datetime\nfrom json import dumps\n# @auth.requires_login()\ndef event_page():\n    #currently faulty, returns all events\n    g = db.groups(request.args(0,cast=int)) or redirect(URL(\'index\'))\n    db.event.event_id.default = g.id\n    db.event.event_code.default = g.group_code\n    # event = db(db.event.event_id == g.id).select()\n    event = db(db.event).select(db.event.ALL)\n    json_data = json.dumps([[e.event_allDay, e.event_name, e.event_id, e.start.strftime("%B %d, %Y"), e.end.strftime("%B %d, %Y"), e.event_description] for e in event])\n    response.flash = json_data\n\n    return locals()\n\ndef user():\n    return dict(form=auth())\n\ndef download():\n    return response.download(request, db)\n\ndef picture():\n    return response.view(request, db)\nresponse._vars=response._caller(join)\n'
p7
sS'snapshot'
p8
(dp9
S'exception'
p10
(dp11
S'__hash__'
p12
S"<method-wrapper '__hash__' of exceptions.AttributeError object>"
p13
sS'__setattr__'
p14
S"<method-wrapper '__setattr__' of exceptions.AttributeError object>"
p15
sS'__reduce_ex__'
p16
S'<built-in method __reduce_ex__ of exceptions.AttributeError object>'
p17
sS'__getslice__'
p18
S"<method-wrapper '__getslice__' of exceptions.AttributeError object>"
p19
sS'__getitem__'
p20
S"<method-wrapper '__getitem__' of exceptions.AttributeError object>"
p21
sS'__setstate__'
p22
S'<built-in method __setstate__ of exceptions.AttributeError object>'
p23
sS'__reduce__'
p24
S'<built-in method __reduce__ of exceptions.AttributeError object>'
p25
sS'__str__'
p26
S"<method-wrapper '__str__' of exceptions.AttributeError object>"
p27
sS'__format__'
p28
S'<built-in method __format__ of exceptions.AttributeError object>'
p29
sS'__getattribute__'
p30
S"<method-wrapper '__getattribute__' of exceptions.AttributeError object>"
p31
sS'__class__'
p32
S"<type 'exceptions.AttributeError'>"
p33
sS'__unicode__'
p34
S'<built-in method __unicode__ of exceptions.AttributeError object>'
p35
sS'__delattr__'
p36
S"<method-wrapper '__delattr__' of exceptions.AttributeError object>"
p37
sS'__subclasshook__'
p38
S'<built-in method __subclasshook__ of type object>'
p39
sS'__repr__'
p40
S"<method-wrapper '__repr__' of exceptions.AttributeError object>"
p41
sS'args'
p42
S'()'
p43
sS'__dict__'
p44
S'{}'
p45
sS'__sizeof__'
p46
S'<built-in method __sizeof__ of exceptions.AttributeError object>'
p47
sS'__doc__'
p48
S"'Attribute not found.'"
p49
sS'__init__'
p50
S"<method-wrapper '__init__' of exceptions.AttributeError object>"
p51
sS'__new__'
p52
S'<built-in method __new__ of type object>'
p53
ssS'evalue'
p54
S''
sS'request'
p55
cgluon.html
XML_unpickle
p56
(S'sb\x9d\x00\x00<div><table><tr><td style="font-weight:bold;vertical-align:top;">ajax</td><td style="vertical-align:top;">:</td><td><div>False</div></td></tr><tr><td style="font-weight:bold;vertical-align:top;">application</td><td style="vertical-align:top;">:</td><td><div>ourhours</div></td></tr><tr><td style="font-weight:bold;vertical-align:top;">args</td><td style="vertical-align:top;">:</td><td><div><table></table></div></td></tr><tr><td style="font-weight:bold;vertical-align:top;">cid</td><td style="vertical-align:top;">:</td><td><div>None</div></td></tr><tr><td style="font-weight:bold;vertical-align:top;">client</td><td style="vertical-align:top;">:</td><td><div>127.0.0.1</div></td></tr><tr><td style="font-weight:bold;vertical-align:top;">controller</td><td style="vertical-align:top;">:</td><td><div>default</div></td></tr><tr><td style="font-weight:bold;vertical-align:top;">cookies</td><td style="vertical-align:top;">:</td><td><div><table><tr><td style="font-weight:bold;vertical-align:top;">resolution</td><td style="vertical-align:top;">:</td><td><div>1349<table><tr><td style="font-weight:bold;vertical-align:top;">comment</td><td style="vertical-align:top;">:</td><td><div></div></td></tr><tr><td style="font-weight:bold;vertical-align:top;">domain</td><td style="vertical-align:top;">:</td><td><div></div></td></tr><tr><td style="font-weight:bold;vertical-align:top;">expires</td><td style="vertical-align:top;">:</td><td><div></div></td></tr><tr><td style="font-weight:bold;vertical-align:top;">httponly</td><td style="vertical-align:top;">:</td><td><div></div></td></tr><tr><td style="font-weight:bold;vertical-align:top;">max-age</td><td style="vertical-align:top;">:</td><td><div></div></td></tr><tr><td style="font-weight:bold;vertical-align:top;">path</td><td style="vertical-align:top;">:</td><td><div></div></td></tr><tr><td style="font-weight:bold;vertical-align:top;">secure</td><td style="vertical-align:top;">:</td><td><div></div></td></tr><tr><td style="font-weight:bold;vertical-align:top;">version</td><td style="vertical-align:top;">:</td><td><div></div></td></tr></table></div></td></tr><tr><td style="font-weight:bold;vertical-align:top;">session_data_ourhours</td><td style="vertical-align:top;">:</td><td><div>0ed42b1cb50537d7c2e5bce737c15a14:bIXrvQRBsOtB4U00gSG5cKTAezX2l-o7PlvJRp7g4tA_5hcGMB5ET0KFfWLgb4fTP14LpTeHZq516a2nfl1uKyycyTFkqsLu5ZkdxLpI5DrPDiCMaSjzXMedlcqkNicnoV0gQY3nm3P_nh6qcEH4ok0NxtJNlAq8pBIsEGlFYUozRaRCr3SRdDK2OCv_34bhPx7bJ2PSvhcoJm6WU4AlPFd-MMbmZAiY7oF1Y3cL19pXRmCgZ9BgSnwOgT1Wymkpd2p4XmAfou2VKU9gRFPm6Vu0aPAMhrrr4sHgxyyTEvADfwsLYPuqFbQHSg2j1BwoeAwsWm-s1KNKRNhDCuswsw3IOMmMLLfRnUOLibNOnN4hDNvn9bhB7h7RE_EXXiWLgIHaEoy_CIZ3-W-fm7CyTgxrnmB0yoslzmcMnIxmdK2N8hE_9PA6MuDHu0wG1iaAb10w3NpHLNMcltieg7ugBxexoVCPsRrnmojwG1dGo8JgJB1-5JIeaKgKonRLumE5kbiy9QP4GwGa0OkapF-Y_zDmxnXfPnEG6hiQmMJZ0tGmelLd0hR_mv1hXEdFrAmHoetO6d-33YdRl7AzEF1hGupN558d4RalgTpYNIEISqThz0EoXKDAbd9nPZBzj8iivC-Oxng_ZSngJbDqtGFY4L5ZdHUfpNmXvJFeQVA8lkku6dxPZ08MKdLaGD4-uiAKhxTghH21qyEhfnSKH0uiYvVKO4EEKr_Fem6odw7sE3r_8kEYRpaV3bXq14blQ_ucZseiXh-tHcyIYBrAxeYJr4BnTqAJMqxiCssmvMQWRBDmBQ2cu9zoU_kskKCClin2kcn_OZZjWBpCwwGzyUE5SDt0jFOrIA1GIPkhAn039MXrn5ocLCRE-NW7Sbm--5Z5JCMS_Sh6zf-Y74GAK7ehWFChNxkrcdrXfLhznTt-il3eAHTB82MntZhKBt1nxcLwArepSHesrvgcc084Md-SUmpVDzv-cV_T-Tx69G_g4B2Ps2jRwqf17DvcB1EeRjmo1voXdzMfyWlbNTZIA9AuVJiiRBGDpVYtQUM4fCR28U0vdsN0y1_DnCFSwgGYuNc9K_omkaluydjouKmggbbSwUmFl14pL5U70GFgXNIi-EVShWmWPWjaxIBCSnaIgWySda6zJfR6qFJPiAsXuOCLKG2z658tZMhbTQ6oHkscq8wuXwFqLesYpJWa8268C1Rdve7zyQMgatcX5xqS-5-kOsiomzISTp8YZU8hvwClMkWHR-vwFNZKUrNPUctFAdsIi_9Jj0NDnreoduIDOsr1J3Nzm20K6dZmavpDykAjaGMl7OWn88ph7KT9KRKSEgS0Ht3kUr4RBUPXyWSFXXk-5lY3cGkpFZS49bf2UHkg_w4jST5AmDtLS2A62WJcJUHKAdgAbiogLNSLFy5NS55E6vGaE9k-Djqt5SLv7w8_moiGiRNE5TBFpuX2HHCJKWZbNZaViGi7P7LdMfn-es8931ZOaFlr0P_LRpJ97hLPS1knFWNq2tJ0F412tBr-jtPDHyv4QA8IyAqpW4m3npPbHRTeY9qN7HVQOlcf7y-IEfsMMWzOmPLaOLKpcGmx5YdXYxkvtcHlWw-sPsmOc4vgWa5aMRTiPXfjEmJOUwdkxSLIxS1VgQViMmtbBn-jMOe8DwDw6omjrSzqbnmBmhOXlvRMhzGb3JYQ-AcNCm786ijIZ5Wq9Rgz_vsZgpDaYuzeYiaMlfsuX8GpzJZekdTI8Jon6pCSuGBaFz0HrsIaTFSfg0SKC1sHyMZh2LOdQGeB0ycZBS33pVqu2c01tIuBcRK5CWmxtYD2AuA9HfYX7Tq1A5wPzxCSPkrTxbCG88qjxcJY_qMI4tx27YNYsykgWZX74GUzwito3NUZU4eSPc8kVHjm7aB57Lp2nt7W3e_h-b4w5Cgjy-sg8FWFb_0hKj45sHMQ1R3DLuhTZSdmDIp4x41pUn69fe0R4ieqC4On0YDeXmAheR8QdLPDQ5iZLrRSZfl5mS51fGudTPa-BpP8LYmaOZCt5rHOLsZrPcI2VWFJUqH-0K7UK8i7J4ThtaAXy0LKfON4yjZbsRCGMGpwFTLosIH3xFHmJhdeyFZ0d3aVKRdWad5D3NSSmTYX53uNbdPO7eO-8m5DbIS4RHbcSo6mYi8bsSDA48Sr2ASWY90YUUNPntqswiERnYUiaVaE67aWSpW8G2UCcEdJsk5zaJv36s5CpeGQ3-eGpS_SP7SdH1CtYObK0XiLpC8ihNBym6S325gxQPNZ5SPFfZKXPPWupfCOdhUfTQq1DBAAL-00P1tzBw2CnRHprAm69A1qL5S3v9yTMoeB18BnV1oz1rnOOCim42RbkZbiULDb8GYK0AqO5nCRKhkZboK1DP12-Jkxkuqk1Ba9j0lv9LSi0LqRefXJdx9RngO4U6FX2DW3sRbA8d7RVMaDn0pCzS8TZoWubX4RuVl93xELnLCtm1I1h2JSAfMLGQMfEY9qirXY619Ns3AkXbxeEP8jRv8t89Z7fFCtsS6blcRll0U=<table><tr><td style="font-weight:bold;vertical-align:top;">comment</td><td style="vertical-align:top;">:</td><td><div></div></td></tr><tr><td style="font-weight:bold;vertical-align:top;">domain</td><td style="vertical-align:top;">:</td><td><div></div></td></tr><tr><td style="font-weight:bold;vertical-align:top;">expires</td><td style="vertical-align:top;">:</td><td><div></div></td></tr><tr><td style="font-weight:bold;vertical-align:top;">httponly</td><td style="vertical-align:top;">:</td><td><div></div></td></tr><tr><td style="font-weight:bold;vertical-align:top;">max-age</td><td style="vertical-align:top;">:</td><td><div></div></td></tr><tr><td style="font-weight:bold;vertical-align:top;">path</td><td style="vertical-align:top;">:</td><td><div></div></td></tr><tr><td style="font-weight:bold;vertical-align:top;">secure</td><td style="vertical-align:top;">:</td><td><div></div></td></tr><tr><td style="font-weight:bold;vertical-align:top;">version</td><td style="vertical-align:top;">:</td><td><div></div></td></tr></table></div></td></tr><tr><td style="font-weight:bold;vertical-align:top;">session_id_admin</td><td style="vertical-align:top;">:</td><td><div>127.0.0.1-5e4d5587-8e46-4ab9-bda4-cde90ee24cff<table><tr><td style="font-weight:bold;vertical-align:top;">comment</td><td style="vertical-align:top;">:</td><td><div></div></td></tr><tr><td style="font-weight:bold;vertical-align:top;">domain</td><td style="vertical-align:top;">:</td><td><div></div></td></tr><tr><td style="font-weight:bold;vertical-align:top;">expires</td><td style="vertical-align:top;">:</td><td><div></div></td></tr><tr><td style="font-weight:bold;vertical-align:top;">httponly</td><td style="vertical-align:top;">:</td><td><div></div></td></tr><tr><td style="font-weight:bold;vertical-align:top;">max-age</td><td style="vertical-align:top;">:</td><td><div></div></td></tr><tr><td style="font-weight:bold;vertical-align:top;">path</td><td style="vertical-align:top;">:</td><td><div></div></td></tr><tr><td style="font-weight:bold;vertical-align:top;">secure</td><td style="vertical-align:top;">:</td><td><div></div></td></tr><tr><td style="font-weight:bold;vertical-align:top;">version</td><td style="vertical-align:top;">:</td><td><div></div></td></tr></table></div></td></tr><tr><td style="font-weight:bold;vertical-align:top;">session_id_hackathon</td><td style="vertical-align:top;">:</td><td><div>127.0.0.1-e9d19e57-2c82-4246-95e2-3afb87897355<table><tr><td style="font-weight:bold;vertical-align:top;">comment</td><td style="vertical-align:top;">:</td><td><div></div></td></tr><tr><td style="font-weight:bold;vertical-align:top;">domain</td><td style="vertical-align:top;">:</td><td><div></div></td></tr><tr><td style="font-weight:bold;vertical-align:top;">expires</td><td style="vertical-align:top;">:</td><td><div></div></td></tr><tr><td style="font-weight:bold;vertical-align:top;">httponly</td><td style="vertical-align:top;">:</td><td><div></div></td></tr><tr><td style="font-weight:bold;vertical-align:top;">max-age</td><td style="vertical-align:top;">:</td><td><div></div></td></tr><tr><td style="font-weight:bold;vertical-align:top;">path</td><td style="vertical-align:top;">:</td><td><div></div></td></tr><tr><td style="font-weight:bold;vertical-align:top;">secure</td><td style="vertical-align:top;">:</td><td><div></div></td></tr><tr><td style="font-weight:bold;vertical-align:top;">version</td><td style="vertical-align:top;">:</td><td><div></div></td></tr></table></div></td></tr><tr><td style="font-weight:bold;vertical-align:top;">session_id_hw</td><td style="vertical-align:top;">:</td><td><div>127.0.0.1-23223d0c-fdad-4421-b0fa-bfb22452a98b<table><tr><td style="font-weight:bold;vertical-align:top;">comment</td><td style="vertical-align:top;">:</td><td><div></div></td></tr><tr><td style="font-weight:bold;vertical-align:top;">domain</td><td style="vertical-align:top;">:</td><td><div></div></td></tr><tr><td style="font-weight:bold;vertical-align:top;">expires</td><td style="vertical-align:top;">:</td><td><div></div></td></tr><tr><td style="font-weight:bold;vertical-align:top;">httponly</td><td style="vertical-align:top;">:</td><td><div></div></td></tr><tr><td style="font-weight:bold;vertical-align:top;">max-age</td><td style="vertical-align:top;">:</td><td><div></div></td></tr><tr><td style="font-weight:bold;vertical-align:top;">path</td><td style="vertical-align:top;">:</td><td><div></div></td></tr><tr><td style="font-weight:bold;vertical-align:top;">secure</td><td style="vertical-align:top;">:</td><td><div></div></td></tr><tr><td style="font-weight:bold;vertical-align:top;">version</td><td style="vertical-align:top;">:</td><td><div></div></td></tr></table></div></td></tr><tr><td style="font-weight:bold;vertical-align:top;">session_id_layouttest</td><td style="vertical-align:top;">:</td><td><div>127.0.0.1-9dd550cb-7d25-4599-add6-bbf406414416<table><tr><td style="font-weight:bold;vertical-align:top;">comment</td><td style="vertical-align:top;">:</td><td><div></div></td></tr><tr><td style="font-weight:bold;vertical-align:top;">domain</td><td style="vertical-align:top;">:</td><td><div></div></td></tr><tr><td style="font-weight:bold;vertical-align:top;">expires</td><td style="vertical-align:top;">:</td><td><div></div></td></tr><tr><td style="font-weight:bold;vertical-align:top;">httponly</td><td style="vertical-align:top;">:</td><td><div></div></td></tr><tr><td style="font-weight:bold;vertical-align:top;">max-age</td><td style="vertical-align:top;">:</td><td><div></div></td></tr><tr><td style="font-weight:bold;vertical-align:top;">path</td><td style="vertical-align:top;">:</td><td><div></div></td></tr><tr><td style="font-weight:bold;vertical-align:top;">secure</td><td style="vertical-align:top;">:</td><td><div></div></td></tr><tr><td style="font-weight:bold;vertical-align:top;">version</td><td style="vertical-align:top;">:</td><td><div></div></td></tr></table></div></td></tr><tr><td style="font-weight:bold;vertical-align:top;">session_id_ourhours</td><td style="vertical-align:top;">:</td><td><div>True<table><tr><td style="font-weight:bold;vertical-align:top;">comment</td><td style="vertical-align:top;">:</td><td><div></div></td></tr><tr><td style="font-weight:bold;vertical-align:top;">domain</td><td style="vertical-align:top;">:</td><td><div></div></td></tr><tr><td style="font-weight:bold;vertical-align:top;">expires</td><td style="vertical-align:top;">:</td><td><div></div></td></tr><tr><td style="font-weight:bold;vertical-align:top;">httponly</td><td style="vertical-align:top;">:</td><td><div></div></td></tr><tr><td style="font-weight:bold;vertical-align:top;">max-age</td><td style="vertical-align:top;">:</td><td><div></div></td></tr><tr><td style="font-weight:bold;vertical-align:top;">path</td><td style="vertical-align:top;">:</td><td><div></div></td></tr><tr><td style="font-weight:bold;vertical-align:top;">secure</td><td style="vertical-align:top;">:</td><td><div></div></td></tr><tr><td style="font-weight:bold;vertical-align:top;">version</td><td style="vertical-align:top;">:</td><td><div></div></td></tr></table></div></td></tr><tr><td style="font-weight:bold;vertical-align:top;">session_id_welcome</td><td style="vertical-align:top;">:</td><td><div>127.0.0.1-3404b542-72e6-426d-9bd7-f225ed0f1803<table><tr><td style="font-weight:bold;vertical-align:top;">comment</td><td style="vertical-align:top;">:</td><td><div></div></td></tr><tr><td style="font-weight:bold;vertical-align:top;">domain</td><td style="vertical-align:top;">:</td><td><div></div></td></tr><tr><td style="font-weight:bold;vertical-align:top;">expires</td><td style="vertical-align:top;">:</td><td><div></div></td></tr><tr><td style="font-weight:bold;vertical-align:top;">httponly</td><td style="vertical-align:top;">:</td><td><div></div></td></tr><tr><td style="font-weight:bold;vertical-align:top;">max-age</td><td style="vertical-align:top;">:</td><td><div></div></td></tr><tr><td style="font-weight:bold;vertical-align:top;">path</td><td style="vertical-align:top;">:</td><td><div></div></td></tr><tr><td style="font-weight:bold;vertical-align:top;">secure</td><td style="vertical-align:top;">:</td><td><div></div></td></tr><tr><td style="font-weight:bold;vertical-align:top;">version</td><td style="vertical-align:top;">:</td><td><div></div></td></tr></table></div></td></tr></table></div></td></tr><tr><td style="font-weight:bold;vertical-align:top;">env</td><td style="vertical-align:top;">:</td><td><div><table><tr><td style="font-weight:bold;vertical-align:top;">CONTENT_LENGTH</td><td style="vertical-align:top;">:</td><td><div>389</div></td></tr><tr><td style="font-weight:bold;vertical-align:top;">CONTENT_TYPE</td><td style="vertical-align:top;">:</td><td><div>multipart/form-data; boundary=----WebKitFormBoundaryTPSqJBGVbR4R69Rl</div></td></tr><tr><td style="font-weight:bold;vertical-align:top;">HTTP_ACCEPT</td><td style="vertical-align:top;">:</td><td><div>text/html,application/xhtml+xml,application/xml;q=0.9,image/webp,*/*;q=0.8</div></td></tr><tr><td style="font-weight:bold;vertical-align:top;">HTTP_ACCEPT_ENCODING</td><td style="vertical-align:top;">:</td><td><div>gzip, deflate, br</div></td></tr><tr><td style="font-weight:bold;vertical-align:top;">HTTP_ACCEPT_LANGUAGE</td><td style="vertical-align:top;">:</td><td><div>en-US,en;q=0.8</div></td></tr><tr><td style="font-weight:bold;vertical-align:top;">HTTP_CACHE_CONTROL</td><td style="vertical-align:top;">:</td><td><div>max-age=0</div></td></tr><tr><td style="font-weight:bold;vertical-align:top;">HTTP_CONNECTION</td><td style="vertical-align:top;">:</td><td><div>keep-alive</div></td></tr><tr><td style="font-weight:bold;vertical-align:top;">HTTP_CONTENT_LENGTH</td><td style="vertical-align:top;">:</td><td><div>389</div></td></tr><tr><td style="font-weight:bold;vertical-align:top;">HTTP_CONTENT_TYPE</td><td style="vertical-align:top;">:</td><td><div>multipart/form-data; boundary=----WebKitFormBoundaryTPSqJBGVbR4R69Rl</div></td></tr><tr><td style="font-weight:bold;vertical-align:top;">HTTP_COOKIE</td><td style="vertical-align:top;">:</td><td><div>session_id_layouttest=127.0.0.1-9dd550cb-7d25-4599-add6-bbf406414416; resolution=1349; session_id_hackathon=127.0.0.1-e9d19e57-2c82-4246-95e2-3afb87897355; session_id_hw=127.0.0.1-23223d0c-fdad-4421-b0fa-bfb22452a98b; session_id_welcome=127.0.0.1-3404b542-72e6-426d-9bd7-f225ed0f1803; session_id_admin=127.0.0.1-5e4d5587-8e46-4ab9-bda4-cde90ee24cff; session_data_ourhours=&quot;0ed42b1cb50537d7c2e5bce737c15a14:bIXrvQRBsOtB4U00gSG5cKTAezX2l-o7PlvJRp7g4tA_5hcGMB5ET0KFfWLgb4fTP14LpTeHZq516a2nfl1uKyycyTFkqsLu5ZkdxLpI5DrPDiCMaSjzXMedlcqkNicnoV0gQY3nm3P_nh6qcEH4ok0NxtJNlAq8pBIsEGlFYUozRaRCr3SRdDK2OCv_34bhPx7bJ2PSvhcoJm6WU4AlPFd-MMbmZAiY7oF1Y3cL19pXRmCgZ9BgSnwOgT1Wymkpd2p4XmAfou2VKU9gRFPm6Vu0aPAMhrrr4sHgxyyTEvADfwsLYPuqFbQHSg2j1BwoeAwsWm-s1KNKRNhDCuswsw3IOMmMLLfRnUOLibNOnN4hDNvn9bhB7h7RE_EXXiWLgIHaEoy_CIZ3-W-fm7CyTgxrnmB0yoslzmcMnIxmdK2N8hE_9PA6MuDHu0wG1iaAb10w3NpHLNMcltieg7ugBxexoVCPsRrnmojwG1dGo8JgJB1-5JIeaKgKonRLumE5kbiy9QP4GwGa0OkapF-Y_zDmxnXfPnEG6hiQmMJZ0tGmelLd0hR_mv1hXEdFrAmHoetO6d-33YdRl7AzEF1hGupN558d4RalgTpYNIEISqThz0EoXKDAbd9nPZBzj8iivC-Oxng_ZSngJbDqtGFY4L5ZdHUfpNmXvJFeQVA8lkku6dxPZ08MKdLaGD4-uiAKhxTghH21qyEhfnSKH0uiYvVKO4EEKr_Fem6odw7sE3r_8kEYRpaV3bXq14blQ_ucZseiXh-tHcyIYBrAxeYJr4BnTqAJMqxiCssmvMQWRBDmBQ2cu9zoU_kskKCClin2kcn_OZZjWBpCwwGzyUE5SDt0jFOrIA1GIPkhAn039MXrn5ocLCRE-NW7Sbm--5Z5JCMS_Sh6zf-Y74GAK7ehWFChNxkrcdrXfLhznTt-il3eAHTB82MntZhKBt1nxcLwArepSHesrvgcc084Md-SUmpVDzv-cV_T-Tx69G_g4B2Ps2jRwqf17DvcB1EeRjmo1voXdzMfyWlbNTZIA9AuVJiiRBGDpVYtQUM4fCR28U0vdsN0y1_DnCFSwgGYuNc9K_omkaluydjouKmggbbSwUmFl14pL5U70GFgXNIi-EVShWmWPWjaxIBCSnaIgWySda6zJfR6qFJPiAsXuOCLKG2z658tZMhbTQ6oHkscq8wuXwFqLesYpJWa8268C1Rdve7zyQMgatcX5xqS-5-kOsiomzISTp8YZU8hvwClMkWHR-vwFNZKUrNPUctFAdsIi_9Jj0NDnreoduIDOsr1J3Nzm20K6dZmavpDykAjaGMl7OWn88ph7KT9KRKSEgS0Ht3kUr4RBUPXyWSFXXk-5lY3cGkpFZS49bf2UHkg_w4jST5AmDtLS2A62WJcJUHKAdgAbiogLNSLFy5NS55E6vGaE9k-Djqt5SLv7w8_moiGiRNE5TBFpuX2HHCJKWZbNZaViGi7P7LdMfn-es8931ZOaFlr0P_LRpJ97hLPS1knFWNq2tJ0F412tBr-jtPDHyv4QA8IyAqpW4m3npPbHRTeY9qN7HVQOlcf7y-IEfsMMWzOmPLaOLKpcGmx5YdXYxkvtcHlWw-sPsmOc4vgWa5aMRTiPXfjEmJOUwdkxSLIxS1VgQViMmtbBn-jMOe8DwDw6omjrSzqbnmBmhOXlvRMhzGb3JYQ-AcNCm786ijIZ5Wq9Rgz_vsZgpDaYuzeYiaMlfsuX8GpzJZekdTI8Jon6pCSuGBaFz0HrsIaTFSfg0SKC1sHyMZh2LOdQGeB0ycZBS33pVqu2c01tIuBcRK5CWmxtYD2AuA9HfYX7Tq1A5wPzxCSPkrTxbCG88qjxcJY_qMI4tx27YNYsykgWZX74GUzwito3NUZU4eSPc8kVHjm7aB57Lp2nt7W3e_h-b4w5Cgjy-sg8FWFb_0hKj45sHMQ1R3DLuhTZSdmDIp4x41pUn69fe0R4ieqC4On0YDeXmAheR8QdLPDQ5iZLrRSZfl5mS51fGudTPa-BpP8LYmaOZCt5rHOLsZrPcI2VWFJUqH-0K7UK8i7J4ThtaAXy0LKfON4yjZbsRCGMGpwFTLosIH3xFHmJhdeyFZ0d3aVKRdWad5D3NSSmTYX53uNbdPO7eO-8m5DbIS4RHbcSo6mYi8bsSDA48Sr2ASWY90YUUNPntqswiERnYUiaVaE67aWSpW8G2UCcEdJsk5zaJv36s5CpeGQ3-eGpS_SP7SdH1CtYObK0XiLpC8ihNBym6S325gxQPNZ5SPFfZKXPPWupfCOdhUfTQq1DBAAL-00P1tzBw2CnRHprAm69A1qL5S3v9yTMoeB18BnV1oz1rnOOCim42RbkZbiULDb8GYK0AqO5nCRKhkZboK1DP12-Jkxkuqk1Ba9j0lv9LSi0LqRefXJdx9RngO4U6FX2DW3sRbA8d7RVMaDn0pCzS8TZoWubX4RuVl93xELnLCtm1I1h2JSAfMLGQMfEY9qirXY619Ns3AkXbxeEP8jRv8t89Z7fFCtsS6blcRll0U=&quot;; session_id_ourhours=True</div></td></tr><tr><td style="font-weight:bold;vertical-align:top;">HTTP_HOST</td><td style="vertical-align:top;">:</td><td><div>127.0.0.1:8000</div></td></tr><tr><td style="font-weight:bold;vertical-align:top;">HTTP_ORIGIN</td><td style="vertical-align:top;">:</td><td><div>http://127.0.0.1:8000</div></td></tr><tr><td style="font-weight:bold;vertical-align:top;">HTTP_REFERER</td><td style="vertical-align:top;">:</td><td><div>http://127.0.0.1:8000/ourhours/default/join</div></td></tr><tr><td style="font-weight:bold;vertical-align:top;">HTTP_UPGRADE_INSECURE_REQUESTS</td><td style="vertical-align:top;">:</td><td><div>1</div></td></tr><tr><td style="font-weight:bold;vertical-align:top;">HTTP_USER_AGENT</td><td style="vertical-align:top;">:</td><td><div>Mozilla/5.0 (Windows NT 10.0; Win64; x64) AppleWebKit/537.36 (KHTML, like Gecko) Chrome/55.0.2883.87 Safari/537.36</div></td></tr><tr><td style="font-weight:bold;vertical-align:top;">PATH_INFO</td><td style="vertical-align:top;">:</td><td><div>/ourhours/default/join</div></td></tr><tr><td style="font-weight:bold;vertical-align:top;">QUERY_STRING</td><td style="vertical-align:top;">:</td><td><div></div></td></tr><tr><td style="font-weight:bold;vertical-align:top;">REMOTE_ADDR</td><td style="vertical-align:top;">:</td><td><div>127.0.0.1</div></td></tr><tr><td style="font-weight:bold;vertical-align:top;">REMOTE_PORT</td><td style="vertical-align:top;">:</td><td><div>51285</div></td></tr><tr><td style="font-weight:bold;vertical-align:top;">REQUEST_METHOD</td><td style="vertical-align:top;">:</td><td><div>POST</div></td></tr><tr><td style="font-weight:bold;vertical-align:top;">SCRIPT_NAME</td><td style="vertical-align:top;">:</td><td><div></div></td></tr><tr><td style="font-weight:bold;vertical-align:top;">SERVER_NAME</td><td style="vertical-align:top;">:</td><td><div>DESKTOP-GDD7DCK</div></td></tr><tr><td style="font-weight:bold;vertical-align:top;">SERVER_PORT</td><td style="vertical-align:top;">:</td><td><div>8000</div></td></tr><tr><td style="font-weight:bold;vertical-align:top;">SERVER_PROTOCOL</td><td style="vertical-align:top;">:</td><td><div>HTTP/1.1</div></td></tr><tr><td style="font-weight:bold;vertical-align:top;">SERVER_SOFTWARE</td><td style="vertical-align:top;">:</td><td><div>Rocket 1.2.6</div></td></tr><tr><td style="font-weight:bold;vertical-align:top;">app_folders</td><td style="vertical-align:top;">:</td><td><div>set([&#x27;C:\\\\Users\\\\Wesly\\\\Desktop\\\\UCSC-Hack-2017\\\\applications\\\\welcome\\\\&#x27;, &#x27;C:\\\\Users\\\\Wesly\\\\Desktop\\\\UCSC-Hack-2017\\\\applications\\\\examples\\\\&#x27;, &#x27;C:\\\\Users\\\\Wesly\\\\Desktop\\\\UCSC-Hack-2017\\\\applications\\\\ourhours\\\\&#x27;, &#x27;C:\\\\Users\\\\Wesly\\\\Desktop\\\\UCSC-Hack-2017\\\\applications\\\\admin\\\\&#x27;])</div></td></tr><tr><td style="font-weight:bold;vertical-align:top;">applications_parent</td><td style="vertical-align:top;">:</td><td><div>C:\\Users\\Wesly\\Desktop\\UCSC-Hack-2017</div></td></tr><tr><td style="font-weight:bold;vertical-align:top;">cmd_args</td><td style="vertical-align:top;">:</td><td><div><table></table></div></td></tr><tr><td style="font-weight:bold;vertical-align:top;">cmd_options</td><td style="vertical-align:top;">:</td><td><div>&lt;Values at 0x2ddaeb8: {&#x27;verbose&#x27;: False, &#x27;ip&#x27;: &#x27;127.0.0.1&#x27;, &#x27;debuglevel&#x27;: 30, &#x27;with_scheduler&#x27;: False, &#x27;shutdown_timeout&#x27;: 5, &#x27;taskbar&#x27;: False, &#x27;with_coverage&#x27;: False, &#x27;pid_filename&#x27;: &#x27;httpserver.pid&#x27;, &#x27;maxthreads&#x27;: None, &#x27;softcron&#x27;: False, &#x27;server_name&#x27;: &#x27;DESKTOP-GDD7DCK&#x27;, &#x27;bpython&#x27;: False, &#x27;nogui&#x27;: False, &#x27;port&#x27;: 8000, &#x27;print_errors&#x27;: False, &#x27;extcron&#x27;: False, &#x27;runcron&#x27;: False, &#x27;run_system_tests&#x27;: False, &#x27;test&#x27;: None, &#x27;folder&#x27;: &#x27;C:\\\\Users\\\\Wesly\\\\Desktop\\\\UCSC-Hack-2017&#x27;, &#x27;config&#x27;: &#x27;&#x27;, &#x27;minthreads&#x27;: None, &#x27;shell&#x27;: None, &#x27;run&#x27;: &#x27;&#x27;, &#x27;log_filename&#x27;: &#x27;httpserver.log&#x27;, &#x27;profiler_dir&#x27;: None, &#x27;args&#x27;: [&#x27;&#x27;], &#x27;socket_timeout&#x27;: 5, &#x27;ssl_ca_certificate&#x27;: None, &#x27;scheduler&#x27;: None, &#x27;interfaces&#x27;: None, &#x27;ssl_private_key&#x27;: &#x27;&#x27;, &#x27;gae&#x27;: None, &#x27;password&#x27;: &#x27;******&#x27;, &#x27;request_queue_size&#x27;: 5, &#x27;ssl_certificate&#x27;: &#x27;&#x27;, &#x27;cronjob&#x27;: False, &#x27;numthreads&#x27;: None, &#x27;quiet&#x27;: False, &#x27;import_models&#x27;: False, &#x27;timeout&#x27;: 10, &#x27;plain&#x27;: False, &#x27;nobanner&#x27;: False}&gt;</div></td></tr><tr><td style="font-weight:bold;vertical-align:top;">content_length</td><td style="vertical-align:top;">:</td><td><div>389</div></td></tr><tr><td style="font-weight:bold;vertical-align:top;">content_type</td><td style="vertical-align:top;">:</td><td><div>multipart/form-data; boundary=----WebKitFormBoundaryTPSqJBGVbR4R69Rl</div></td></tr><tr><td style="font-weight:bold;vertical-align:top;">db_sessions</td><td style="vertical-align:top;">:</td><td><div>set([])</div></td></tr><tr><td style="font-weight:bold;vertical-align:top;">debugging</td><td style="vertical-align:top;">:</td><td><div>True</div></td></tr><tr><td style="font-weight:bold;vertical-align:top;">gluon_parent</td><td style="vertical-align:top;">:</td><td><div>C:\\Users\\Wesly\\Desktop\\UCSC-Hack-2017</div></td></tr><tr><td style="font-weight:bold;vertical-align:top;">http_accept</td><td style="vertical-align:top;">:</td><td><div>text/html,application/xhtml+xml,application/xml;q=0.9,image/webp,*/*;q=0.8</div></td></tr><tr><td style="font-weight:bold;vertical-align:top;">http_accept_encoding</td><td style="vertical-align:top;">:</td><td><div>gzip, deflate, br</div></td></tr><tr><td style="font-weight:bold;vertical-align:top;">http_accept_language</td><td style="vertical-align:top;">:</td><td><div>en-US,en;q=0.8</div></td></tr><tr><td style="font-weight:bold;vertical-align:top;">http_cache_control</td><td style="vertical-align:top;">:</td><td><div>max-age=0</div></td></tr><tr><td style="font-weight:bold;vertical-align:top;">http_connection</td><td style="vertical-align:top;">:</td><td><div>keep-alive</div></td></tr><tr><td style="font-weight:bold;vertical-align:top;">http_content_length</td><td style="vertical-align:top;">:</td><td><div>389</div></td></tr><tr><td style="font-weight:bold;vertical-align:top;">http_content_type</td><td style="vertical-align:top;">:</td><td><div>multipart/form-data; boundary=----WebKitFormBoundaryTPSqJBGVbR4R69Rl</div></td></tr><tr><td style="font-weight:bold;vertical-align:top;">http_cookie</td><td style="vertical-align:top;">:</td><td><div>session_id_layouttest=127.0.0.1-9dd550cb-7d25-4599-add6-bbf406414416; resolution=1349; session_id_hackathon=127.0.0.1-e9d19e57-2c82-4246-95e2-3afb87897355; session_id_hw=127.0.0.1-23223d0c-fdad-4421-b0fa-bfb22452a98b; session_id_welcome=127.0.0.1-3404b542-72e6-426d-9bd7-f225ed0f1803; session_id_admin=127.0.0.1-5e4d5587-8e46-4ab9-bda4-cde90ee24cff; session_data_ourhours=&quot;0ed42b1cb50537d7c2e5bce737c15a14:bIXrvQRBsOtB4U00gSG5cKTAezX2l-o7PlvJRp7g4tA_5hcGMB5ET0KFfWLgb4fTP14LpTeHZq516a2nfl1uKyycyTFkqsLu5ZkdxLpI5DrPDiCMaSjzXMedlcqkNicnoV0gQY3nm3P_nh6qcEH4ok0NxtJNlAq8pBIsEGlFYUozRaRCr3SRdDK2OCv_34bhPx7bJ2PSvhcoJm6WU4AlPFd-MMbmZAiY7oF1Y3cL19pXRmCgZ9BgSnwOgT1Wymkpd2p4XmAfou2VKU9gRFPm6Vu0aPAMhrrr4sHgxyyTEvADfwsLYPuqFbQHSg2j1BwoeAwsWm-s1KNKRNhDCuswsw3IOMmMLLfRnUOLibNOnN4hDNvn9bhB7h7RE_EXXiWLgIHaEoy_CIZ3-W-fm7CyTgxrnmB0yoslzmcMnIxmdK2N8hE_9PA6MuDHu0wG1iaAb10w3NpHLNMcltieg7ugBxexoVCPsRrnmojwG1dGo8JgJB1-5JIeaKgKonRLumE5kbiy9QP4GwGa0OkapF-Y_zDmxnXfPnEG6hiQmMJZ0tGmelLd0hR_mv1hXEdFrAmHoetO6d-33YdRl7AzEF1hGupN558d4RalgTpYNIEISqThz0EoXKDAbd9nPZBzj8iivC-Oxng_ZSngJbDqtGFY4L5ZdHUfpNmXvJFeQVA8lkku6dxPZ08MKdLaGD4-uiAKhxTghH21qyEhfnSKH0uiYvVKO4EEKr_Fem6odw7sE3r_8kEYRpaV3bXq14blQ_ucZseiXh-tHcyIYBrAxeYJr4BnTqAJMqxiCssmvMQWRBDmBQ2cu9zoU_kskKCClin2kcn_OZZjWBpCwwGzyUE5SDt0jFOrIA1GIPkhAn039MXrn5ocLCRE-NW7Sbm--5Z5JCMS_Sh6zf-Y74GAK7ehWFChNxkrcdrXfLhznTt-il3eAHTB82MntZhKBt1nxcLwArepSHesrvgcc084Md-SUmpVDzv-cV_T-Tx69G_g4B2Ps2jRwqf17DvcB1EeRjmo1voXdzMfyWlbNTZIA9AuVJiiRBGDpVYtQUM4fCR28U0vdsN0y1_DnCFSwgGYuNc9K_omkaluydjouKmggbbSwUmFl14pL5U70GFgXNIi-EVShWmWPWjaxIBCSnaIgWySda6zJfR6qFJPiAsXuOCLKG2z658tZMhbTQ6oHkscq8wuXwFqLesYpJWa8268C1Rdve7zyQMgatcX5xqS-5-kOsiomzISTp8YZU8hvwClMkWHR-vwFNZKUrNPUctFAdsIi_9Jj0NDnreoduIDOsr1J3Nzm20K6dZmavpDykAjaGMl7OWn88ph7KT9KRKSEgS0Ht3kUr4RBUPXyWSFXXk-5lY3cGkpFZS49bf2UHkg_w4jST5AmDtLS2A62WJcJUHKAdgAbiogLNSLFy5NS55E6vGaE9k-Djqt5SLv7w8_moiGiRNE5TBFpuX2HHCJKWZbNZaViGi7P7LdMfn-es8931ZOaFlr0P_LRpJ97hLPS1knFWNq2tJ0F412tBr-jtPDHyv4QA8IyAqpW4m3npPbHRTeY9qN7HVQOlcf7y-IEfsMMWzOmPLaOLKpcGmx5YdXYxkvtcHlWw-sPsmOc4vgWa5aMRTiPXfjEmJOUwdkxSLIxS1VgQViMmtbBn-jMOe8DwDw6omjrSzqbnmBmhOXlvRMhzGb3JYQ-AcNCm786ijIZ5Wq9Rgz_vsZgpDaYuzeYiaMlfsuX8GpzJZekdTI8Jon6pCSuGBaFz0HrsIaTFSfg0SKC1sHyMZh2LOdQGeB0ycZBS33pVqu2c01tIuBcRK5CWmxtYD2AuA9HfYX7Tq1A5wPzxCSPkrTxbCG88qjxcJY_qMI4tx27YNYsykgWZX74GUzwito3NUZU4eSPc8kVHjm7aB57Lp2nt7W3e_h-b4w5Cgjy-sg8FWFb_0hKj45sHMQ1R3DLuhTZSdmDIp4x41pUn69fe0R4ieqC4On0YDeXmAheR8QdLPDQ5iZLrRSZfl5mS51fGudTPa-BpP8LYmaOZCt5rHOLsZrPcI2VWFJUqH-0K7UK8i7J4ThtaAXy0LKfON4yjZbsRCGMGpwFTLosIH3xFHmJhdeyFZ0d3aVKRdWad5D3NSSmTYX53uNbdPO7eO-8m5DbIS4RHbcSo6mYi8bsSDA48Sr2ASWY90YUUNPntqswiERnYUiaVaE67aWSpW8G2UCcEdJsk5zaJv36s5CpeGQ3-eGpS_SP7SdH1CtYObK0XiLpC8ihNBym6S325gxQPNZ5SPFfZKXPPWupfCOdhUfTQq1DBAAL-00P1tzBw2CnRHprAm69A1qL5S3v9yTMoeB18BnV1oz1rnOOCim42RbkZbiULDb8GYK0AqO5nCRKhkZboK1DP12-Jkxkuqk1Ba9j0lv9LSi0LqRefXJdx9RngO4U6FX2DW3sRbA8d7RVMaDn0pCzS8TZoWubX4RuVl93xELnLCtm1I1h2JSAfMLGQMfEY9qirXY619Ns3AkXbxeEP8jRv8t89Z7fFCtsS6blcRll0U=&quot;; session_id_ourhours=True</div></td></tr><tr><td style="font-weight:bold;vertical-align:top;">http_host</td><td style="vertical-align:top;">:</td><td><div>127.0.0.1:8000</div></td></tr><tr><td style="font-weight:bold;vertical-align:top;">http_origin</td><td style="vertical-align:top;">:</td><td><div>http://127.0.0.1:8000</div></td></tr><tr><td style="font-weight:bold;vertical-align:top;">http_referer</td><td style="vertical-align:top;">:</td><td><div>http://127.0.0.1:8000/ourhours/default/join</div></td></tr><tr><td style="font-weight:bold;vertical-align:top;">http_upgrade_insecure_requests</td><td style="vertical-align:top;">:</td><td><div>1</div></td></tr><tr><td style="font-weight:bold;vertical-align:top;">http_user_agent</td><td style="vertical-align:top;">:</td><td><div>Mozilla/5.0 (Windows NT 10.0; Win64; x64) AppleWebKit/537.36 (KHTML, like Gecko) Chrome/55.0.2883.87 Safari/537.36</div></td></tr><tr><td style="font-weight:bold;vertical-align:top;">is_jython</td><td style="vertical-align:top;">:</td><td><div>False</div></td></tr><tr><td style="font-weight:bold;vertical-align:top;">is_pypy</td><td style="vertical-align:top;">:</td><td><div>False</div></td></tr><tr><td style="font-weight:bold;vertical-align:top;">is_source</td><td style="vertical-align:top;">:</td><td><div>False</div></td></tr><tr><td style="font-weight:bold;vertical-align:top;">local_hosts</td><td style="vertical-align:top;">:</td><td><div><table><tr><td><div>fe80::81f2:e7ae:7efe:f1e7%23</div></td></tr><tr><td><div>DESKTOP-GDD7DCK</div></td></tr><tr><td><div>::ffff:127.0.0.1</div></td></tr><tr><td><div>::1</div></td></tr><tr><td><div>fe80::5efe:192.168.1.135%21</div></td></tr><tr><td><div>192.168.1.135</div></td></tr><tr><td><div>fe80::e941:c1cf:aca3:e27d%22</div></td></tr><tr><td><div>127.0.0.1</div></td></tr><tr><td><div>192.168.56.1</div></td></tr></table></div></td></tr><tr><td style="font-weight:bold;vertical-align:top;">path_info</td><td style="vertical-align:top;">:</td><td><div>/ourhours/default/join</div></td></tr><tr><td style="font-weight:bold;vertical-align:top;">query_string</td><td style="vertical-align:top;">:</td><td><div></div></td></tr><tr><td style="font-weight:bold;vertical-align:top;">remote_addr</td><td style="vertical-align:top;">:</td><td><div>127.0.0.1</div></td></tr><tr><td style="font-weight:bold;vertical-align:top;">remote_port</td><td style="vertical-align:top;">:</td><td><div>51285</div></td></tr><tr><td style="font-weight:bold;vertical-align:top;">request_method</td><td style="vertical-align:top;">:</td><td><div>POST</div></td></tr><tr><td style="font-weight:bold;vertical-align:top;">request_uri</td><td style="vertical-align:top;">:</td><td><div>/ourhours/default/join</div></td></tr><tr><td style="font-weight:bold;vertical-align:top;">script_name</td><td style="vertical-align:top;">:</td><td><div></div></td></tr><tr><td style="font-weight:bold;vertical-align:top;">server_name</td><td style="vertical-align:top;">:</td><td><div>DESKTOP-GDD7DCK</div></td></tr><tr><td style="font-weight:bold;vertical-align:top;">server_port</td><td style="vertical-align:top;">:</td><td><div>8000</div></td></tr><tr><td style="font-weight:bold;vertical-align:top;">server_protocol</td><td style="vertical-align:top;">:</td><td><div>HTTP/1.1</div></td></tr><tr><td style="font-weight:bold;vertical-align:top;">server_software</td><td style="vertical-align:top;">:</td><td><div>Rocket 1.2.6</div></td></tr><tr><td style="font-weight:bold;vertical-align:top;">web2py_path</td><td style="vertical-align:top;">:</td><td><div>C:\\Users\\Wesly\\Desktop\\UCSC-Hack-2017</div></td></tr><tr><td style="font-weight:bold;vertical-align:top;">web2py_version</td><td style="vertical-align:top;">:</td><td><div>2.14.6-stable+timestamp.2016.05.10.00.21.47</div></td></tr><tr><td style="font-weight:bold;vertical-align:top;">wsgi.errors</td><td style="vertical-align:top;">:</td><td><div>&lt;open file &#x27;&lt;stderr&gt;&#x27;, mode &#x27;w&#x27; at 0x0221D0D0&gt;</div></td></tr><tr><td style="font-weight:bold;vertical-align:top;">wsgi.file_wrapper</td><td style="vertical-align:top;">:</td><td><div>&lt;class wsgiref.util.FileWrapper at 0x0321F148&gt;</div></td></tr><tr><td style="font-weight:bold;vertical-align:top;">wsgi.input</td><td style="vertical-align:top;">:</td><td><div>&lt;socket._fileobject object at 0x076D70F0&gt;</div></td></tr><tr><td style="font-weight:bold;vertical-align:top;">wsgi.multiprocess</td><td style="vertical-align:top;">:</td><td><div>False</div></td></tr><tr><td style="font-weight:bold;vertical-align:top;">wsgi.multithread</td><td style="vertical-align:top;">:</td><td><div>True</div></td></tr><tr><td style="font-weight:bold;vertical-align:top;">wsgi.run_once</td><td style="vertical-align:top;">:</td><td><div>False</div></td></tr><tr><td style="font-weight:bold;vertical-align:top;">wsgi.url_scheme</td><td style="vertical-align:top;">:</td><td><div>http</div></td></tr><tr><td style="font-weight:bold;vertical-align:top;">wsgi.version</td><td style="vertical-align:top;">:</td><td><div><table><tr><td><div>1</div></td></tr><tr><td><div>0</div></td></tr></table></div></td></tr><tr><td style="font-weight:bold;vertical-align:top;">wsgi_errors</td><td style="vertical-align:top;">:</td><td><div>&lt;open file &#x27;&lt;stderr&gt;&#x27;, mode &#x27;w&#x27; at 0x0221D0D0&gt;</div></td></tr><tr><td style="font-weight:bold;vertical-align:top;">wsgi_file_wrapper</td><td style="vertical-align:top;">:</td><td><div>&lt;class wsgiref.util.FileWrapper at 0x0321F148&gt;</div></td></tr><tr><td style="font-weight:bold;vertical-align:top;">wsgi_input</td><td style="vertical-align:top;">:</td><td><div>&lt;socket._fileobject object at 0x076D70F0&gt;</div></td></tr><tr><td style="font-weight:bold;vertical-align:top;">wsgi_multiprocess</td><td style="vertical-align:top;">:</td><td><div>False</div></td></tr><tr><td style="font-weight:bold;vertical-align:top;">wsgi_multithread</td><td style="vertical-align:top;">:</td><td><div>True</div></td></tr><tr><td style="font-weight:bold;vertical-align:top;">wsgi_run_once</td><td style="vertical-align:top;">:</td><td><div>False</div></td></tr><tr><td style="font-weight:bold;vertical-align:top;">wsgi_url_scheme</td><td style="vertical-align:top;">:</td><td><div>http</div></td></tr><tr><td style="font-weight:bold;vertical-align:top;">wsgi_version</td><td style="vertical-align:top;">:</td><td><div><table><tr><td><div>1</div></td></tr><tr><td><div>0</div></td></tr></table></div></td></tr></table></div></td></tr><tr><td style="font-weight:bold;vertical-align:top;">extension</td><td style="vertical-align:top;">:</td><td><div>html</div></td></tr><tr><td style="font-weight:bold;vertical-align:top;">folder</td><td style="vertical-align:top;">:</td><td><div>C:\\Users\\Wesly\\Desktop\\UCSC-Hack-2017\\applications\\ourhours\\</div></td></tr><tr><td style="font-weight:bold;vertical-align:top;">function</td><td style="vertical-align:top;">:</td><td><div>join</div></td></tr><tr><td style="font-weight:bold;vertical-align:top;">global_settings</td><td style="vertical-align:top;">:</td><td><div><table><tr><td style="font-weight:bold;vertical-align:top;">app_folders</td><td style="vertical-align:top;">:</td><td><div>set([&#x27;C:\\\\Users\\\\Wesly\\\\Desktop\\\\UCSC-Hack-2017\\\\applications\\\\welcome\\\\&#x27;, &#x27;C:\\\\Users\\\\Wesly\\\\Desktop\\\\UCSC-Hack-2017\\\\applications\\\\examples\\\\&#x27;, &#x27;C:\\\\Users\\\\Wesly\\\\Desktop\\\\UCSC-Hack-2017\\\\applications\\\\ourhours\\\\&#x27;, &#x27;C:\\\\Users\\\\Wesly\\\\Desktop\\\\UCSC-Hack-2017\\\\applications\\\\admin\\\\&#x27;])</div></td></tr><tr><td style="font-weight:bold;vertical-align:top;">applications_parent</td><td style="vertical-align:top;">:</td><td><div>C:\\Users\\Wesly\\Desktop\\UCSC-Hack-2017</div></td></tr><tr><td style="font-weight:bold;vertical-align:top;">cmd_args</td><td style="vertical-align:top;">:</td><td><div><table></table></div></td></tr><tr><td style="font-weight:bold;vertical-align:top;">cmd_options</td><td style="vertical-align:top;">:</td><td><div>&lt;Values at 0x2ddaeb8: {&#x27;verbose&#x27;: False, &#x27;ip&#x27;: &#x27;127.0.0.1&#x27;, &#x27;debuglevel&#x27;: 30, &#x27;with_scheduler&#x27;: False, &#x27;shutdown_timeout&#x27;: 5, &#x27;taskbar&#x27;: False, &#x27;with_coverage&#x27;: False, &#x27;pid_filename&#x27;: &#x27;httpserver.pid&#x27;, &#x27;maxthreads&#x27;: None, &#x27;softcron&#x27;: False, &#x27;server_name&#x27;: &#x27;DESKTOP-GDD7DCK&#x27;, &#x27;bpython&#x27;: False, &#x27;nogui&#x27;: False, &#x27;port&#x27;: 8000, &#x27;print_errors&#x27;: False, &#x27;extcron&#x27;: False, &#x27;runcron&#x27;: False, &#x27;run_system_tests&#x27;: False, &#x27;test&#x27;: None, &#x27;folder&#x27;: &#x27;C:\\\\Users\\\\Wesly\\\\Desktop\\\\UCSC-Hack-2017&#x27;, &#x27;config&#x27;: &#x27;&#x27;, &#x27;minthreads&#x27;: None, &#x27;shell&#x27;: None, &#x27;run&#x27;: &#x27;&#x27;, &#x27;log_filename&#x27;: &#x27;httpserver.log&#x27;, &#x27;profiler_dir&#x27;: None, &#x27;args&#x27;: [&#x27;&#x27;], &#x27;socket_timeout&#x27;: 5, &#x27;ssl_ca_certificate&#x27;: None, &#x27;scheduler&#x27;: None, &#x27;interfaces&#x27;: None, &#x27;ssl_private_key&#x27;: &#x27;&#x27;, &#x27;gae&#x27;: None, &#x27;password&#x27;: &#x27;******&#x27;, &#x27;request_queue_size&#x27;: 5, &#x27;ssl_certificate&#x27;: &#x27;&#x27;, &#x27;cronjob&#x27;: False, &#x27;numthreads&#x27;: None, &#x27;quiet&#x27;: False, &#x27;import_models&#x27;: False, &#x27;timeout&#x27;: 10, &#x27;plain&#x27;: False, &#x27;nobanner&#x27;: False}&gt;</div></td></tr><tr><td style="font-weight:bold;vertical-align:top;">db_sessions</td><td style="vertical-align:top;">:</td><td><div>set([])</div></td></tr><tr><td style="font-weight:bold;vertical-align:top;">debugging</td><td style="vertical-align:top;">:</td><td><div>True</div></td></tr><tr><td style="font-weight:bold;vertical-align:top;">gluon_parent</td><td style="vertical-align:top;">:</td><td><div>C:\\Users\\Wesly\\Desktop\\UCSC-Hack-2017</div></td></tr><tr><td style="font-weight:bold;vertical-align:top;">is_jython</td><td style="vertical-align:top;">:</td><td><div>False</div></td></tr><tr><td style="font-weight:bold;vertical-align:top;">is_pypy</td><td style="vertical-align:top;">:</td><td><div>False</div></td></tr><tr><td style="font-weight:bold;vertical-align:top;">is_source</td><td style="vertical-align:top;">:</td><td><div>False</div></td></tr><tr><td style="font-weight:bold;vertical-align:top;">local_hosts</td><td style="vertical-align:top;">:</td><td><div><table><tr><td><div>fe80::81f2:e7ae:7efe:f1e7%23</div></td></tr><tr><td><div>DESKTOP-GDD7DCK</div></td></tr><tr><td><div>::ffff:127.0.0.1</div></td></tr><tr><td><div>::1</div></td></tr><tr><td><div>fe80::5efe:192.168.1.135%21</div></td></tr><tr><td><div>192.168.1.135</div></td></tr><tr><td><div>fe80::e941:c1cf:aca3:e27d%22</div></td></tr><tr><td><div>127.0.0.1</div></td></tr><tr><td><div>192.168.56.1</div></td></tr></table></div></td></tr><tr><td style="font-weight:bold;vertical-align:top;">web2py_version</td><td style="vertical-align:top;">:</td><td><div>2.14.6-stable+timestamp.2016.05.10.00.21.47</div></td></tr></table></div></td></tr><tr><td style="font-weight:bold;vertical-align:top;">is_https</td><td style="vertical-align:top;">:</td><td><div>False</div></td></tr><tr><td style="font-weight:bold;vertical-align:top;">is_local</td><td style="vertical-align:top;">:</td><td><div>True</div></td></tr><tr><td style="font-weight:bold;vertical-align:top;">is_restful</td><td style="vertical-align:top;">:</td><td><div>False</div></td></tr><tr><td style="font-weight:bold;vertical-align:top;">is_scheduler</td><td style="vertical-align:top;">:</td><td><div>False</div></td></tr><tr><td style="font-weight:bold;vertical-align:top;">is_shell</td><td style="vertical-align:top;">:</td><td><div>False</div></td></tr><tr><td style="font-weight:bold;vertical-align:top;">now</td><td style="vertical-align:top;">:</td><td><div>datetime.datetime(2017, 1, 21, 21, 3, 56, 424000)</div></td></tr><tr><td style="font-weight:bold;vertical-align:top;">raw_args</td><td style="vertical-align:top;">:</td><td><div></div></td></tr><tr><td style="font-weight:bold;vertical-align:top;">raw_extension</td><td style="vertical-align:top;">:</td><td><div>None</div></td></tr><tr><td style="font-weight:bold;vertical-align:top;">url</td><td style="vertical-align:top;">:</td><td><div>/ourhours/default/join</div></td></tr><tr><td style="font-weight:bold;vertical-align:top;">utcnow</td><td style="vertical-align:top;">:</td><td><div>datetime.datetime(2017, 1, 22, 5, 3, 56, 424000)</div></td></tr><tr><td style="font-weight:bold;vertical-align:top;">wsgi</td><td style="vertical-align:top;">:</td><td><div>&lt;gluon.main.LazyWSGI object at 0x07D5C850&gt;</div></td></tr></table></div>'
tRp57
sS'frames'
p58
(lp59
(dp60
S'file'
p61
S'C:\\Users\\Wesly\\Desktop\\UCSC-Hack-2017\\gluon\\restricted.py'
p62
sS'dump'
p63
(dp64
S'environment'
p65
S"{'A': <class 'gluon.html.A'>, 'ANY_OF': <class 'gluon.validators.ANY_OF'>, 'ASSIGNJS': <function ASSIGNJS>, 'Auth': <class 'gluon.tools.Auth'>, 'B': <class 'gluon.html.B'>, 'BEAUTIFY': <class 'gluon.html.BEAUTIFY'>, 'BODY': <class 'gluon.html.BODY'>, 'BR': <class 'gluon.html.BR'>, 'BUTTON': <class 'gluon.html.BUTTON'>, 'CAT': <class 'gluon.html.CAT'>, ...}"
p66
sS'ccode'
p67
S'<code object <module> at 081CEA40, file "C:\\User...cations\\ourhours\\controllers/default.py", line 1>'
p68
ssS'lnum'
p69
I227
sS'lines'
p70
(dp71
I224
S'            ccode = code'
p72
sI225
S'        else:'
p73
sI226
S'            ccode = compile2(code, layer)'
p74
sI227
S'        exec ccode in environment'
p75
sI228
S'    except HTTP:'
p76
sI229
S'        raise'
p77
sI230
S'    except RestrictedError:'
p78
sI231
S'        # do not encapsulate (obfuscate) the original RestrictedError'
p79
sI222
S'    try:'
p80
sI223
S'        if isinstance(code, types.CodeType):'
p81
ssS'call'
p82
S"(code='from gluon.tools import Mail\\nimport imaplib\\nimpo...quest, db)\\nresponse._vars=response._caller(join)\\n', environment={'A': <class 'gluon.html.A'>, 'ANY_OF': <class 'gluon.validators.ANY_OF'>, 'ASSIGNJS': <function ASSIGNJS>, 'Auth': <class 'gluon.tools.Auth'>, 'B': <class 'gluon.html.B'>, 'BEAUTIFY': <class 'gluon.html.BEAUTIFY'>, 'BODY': <class 'gluon.html.BODY'>, 'BR': <class 'gluon.html.BR'>, 'BUTTON': <class 'gluon.html.BUTTON'>, 'CAT': <class 'gluon.html.CAT'>, ...}, layer=r'C:\\Users\\Wesly\\Desktop\\UCSC-Hack-2017\\applications\\ourhours\\controllers/default.py')"
p83
sS'func'
p84
S'restricted'
p85
sa(dp86
g61
S'C:\\Users\\Wesly\\Desktop\\UCSC-Hack-2017\\applications\\ourhours\\controllers\\default.py'
p87
sg63
(dp88
sg69
I62
sg70
(dp89
I52
S'    return locals()'
p90
sI53
S''
sI54
S'def user():'
p91
sI55
S'    return dict(form=auth())'
p92
sI56
S''
sI57
S'def download():'
p93
sI58
S'    return response.download(request, db)'
p94
sI59
S''
sI60
S'def picture():'
p95
sI61
S'    return response.view(request, db)'
p96
ssg82
S'()'
p97
sg84
S'<module>'
p98
sa(dp99
g61
S'C:\\Users\\Wesly\\Desktop\\UCSC-Hack-2017\\gluon\\globals.py'
p100
sg63
(dp101
S'self'
p102
S'undefined'
p103
sS'f'
S'<function join>'
p104
ssg69
I417
sg70
(dp105
I416
S'        self._vars = None'
p106
sI417
S'        self._caller = lambda f: f()'
p107
sI418
S'        self._view_environment = None'
p108
sI419
S'        self._custom_commit = None'
p109
sI420
S'        self._custom_rollback = None'
p110
sI421
S"        self.generic_patterns = ['*']"
p111
sI412
S"        self.flash = ''            # used by the default view layout"
p112
sI413
S'        self.meta = Storage()      # used by web2py_ajax.html'
p113
sI414
S'        self.menu = []             # used by the default view layout'
p114
sI415
S'        self.files = []            # used by web2py_ajax.html'
p115
ssg82
S'(f=<function join>)'
p116
sg84
S'<lambda>'
p117
sa(dp118
g61
S'C:\\Users\\Wesly\\Desktop\\UCSC-Hack-2017\\applications\\ourhours\\controllers\\default.py'
p119
sg63
(dp120
S'global URL'
p121
S'<function URL>'
p122
sS'groups.id'
p123
g103
sS'args'
p124
g103
sS'global redirect'
p125
S'<function redirect>'
p126
sS'groups'
p127
S"<Row {'group_code': 'WNpnS'}>"
p128
ssg69
I28
sg70
(dp129
I32
S'def ecreate():'
p130
sI23
S'    if form.accepted:'
p131
sI24
S'        for groups in groups:'
p132
sI25
S'            # response.flash = groups.group_code'
p133
sI26
S'            if request.vars.join_code in groups.group_code:'
p134
sI27
S"                response.flash = 'Welcome to the group!'"
p135
sI28
S"                redirect(URL('event_page',args=groups.id))"
p136
sI29
S'    return locals()'
p137
sI30
S''
sI31
S'# @auth.requires_login()'
p138
ssg82
S'()'
p139
sg84
S'join'
p140
sa(dp141
g61
S'C:\\Users\\Wesly\\Desktop\\UCSC-Hack-2017\\gluon\\packages\\dal\\pydal\\objects.py'
p142
sg63
(dp143
S'builtinAttributeError'
p144
S"<type 'exceptions.AttributeError'>"
p145
ssg69
I90
sg70
(dp146
I85
S''
sI86
S'    def __getattr__(self, k):'
p147
sI87
S'        try:'
p148
sI88
S'            return self.__getitem__(k)'
p149
sI89
S'        except KeyError:'
p150
sI90
S'            raise AttributeError'
p151
sI91
S''
sI92
S'    def __copy__(self):'
p152
sI93
S'        return Row(self)'
p153
sI94
S''
ssg82
S"(self=<Row {'group_code': 'WNpnS'}>, k='id')"
p154
sg84
S'__getattr__'
p155
sasS'pyver'
p156
S'Python 2.7.9: C:\\Users\\Wesly\\Desktop\\UCSC-Hack-2017\\web2py.exe (prefix: )'
p157
sS'session'
p158
g56
(S's7\x01\x00\x00<div><table><tr><td style="font-weight:bold;vertical-align:top;">last_orderby</td><td style="vertical-align:top;">:</td><td><div>None</div></td></tr><tr><td style="font-weight:bold;vertical-align:top;">last_query</td><td style="vertical-align:top;">:</td><td><div>db.groups.id&gt;0</div></td></tr></table></div>'
tRp159
sS'etype'
p160
S"<type 'exceptions.AttributeError'>"
p161
sS'date'
p162
S'Sat Jan 21 21:03:56 2017'
p163
sS'response'
p164
g56
(S's\xca\x16\x00\x00<div><table><tr><td style="font-weight:bold;vertical-align:top;">body</td><td style="vertical-align:top;">:</td><td><div>&lt;cStringIO.StringO object at 0x07D5CEC0&gt;</div></td></tr><tr><td style="font-weight:bold;vertical-align:top;">cookies</td><td style="vertical-align:top;">:</td><td><div><table><tr><td style="font-weight:bold;vertical-align:top;">session_id_ourhours</td><td style="vertical-align:top;">:</td><td><div>127.0.0.1-39d1f55d-7682-4493-8e3e-632db0b87c87<table><tr><td style="font-weight:bold;vertical-align:top;">comment</td><td style="vertical-align:top;">:</td><td><div></div></td></tr><tr><td style="font-weight:bold;vertical-align:top;">domain</td><td style="vertical-align:top;">:</td><td><div></div></td></tr><tr><td style="font-weight:bold;vertical-align:top;">expires</td><td style="vertical-align:top;">:</td><td><div></div></td></tr><tr><td style="font-weight:bold;vertical-align:top;">httponly</td><td style="vertical-align:top;">:</td><td><div></div></td></tr><tr><td style="font-weight:bold;vertical-align:top;">max-age</td><td style="vertical-align:top;">:</td><td><div></div></td></tr><tr><td style="font-weight:bold;vertical-align:top;">path</td><td style="vertical-align:top;">:</td><td><div>/</div></td></tr><tr><td style="font-weight:bold;vertical-align:top;">secure</td><td style="vertical-align:top;">:</td><td><div></div></td></tr><tr><td style="font-weight:bold;vertical-align:top;">version</td><td style="vertical-align:top;">:</td><td><div></div></td></tr></table></div></td></tr></table></div></td></tr><tr><td style="font-weight:bold;vertical-align:top;">delimiters</td><td style="vertical-align:top;">:</td><td><div><table><tr><td><div>{{</div></td></tr><tr><td><div>}}</div></td></tr></table></div></td></tr><tr><td style="font-weight:bold;vertical-align:top;">files</td><td style="vertical-align:top;">:</td><td><div><table></table></div></td></tr><tr><td style="font-weight:bold;vertical-align:top;">flash</td><td style="vertical-align:top;">:</td><td><div>Welcome to the group!</div></td></tr><tr><td style="font-weight:bold;vertical-align:top;">form_label_separator</td><td style="vertical-align:top;">:</td><td><div>: </div></td></tr><tr><td style="font-weight:bold;vertical-align:top;">formstyle</td><td style="vertical-align:top;">:</td><td><div>table3cols</div></td></tr><tr><td style="font-weight:bold;vertical-align:top;">generic_patterns</td><td style="vertical-align:top;">:</td><td><div><table><tr><td><div>*</div></td></tr></table></div></td></tr><tr><td style="font-weight:bold;vertical-align:top;">headers</td><td style="vertical-align:top;">:</td><td><div><table><tr><td style="font-weight:bold;vertical-align:top;">X-Powered-By</td><td style="vertical-align:top;">:</td><td><div>web2py</div></td></tr></table></div></td></tr><tr><td style="font-weight:bold;vertical-align:top;">menu</td><td style="vertical-align:top;">:</td><td><div><table><tr><td><div><table><tr><td><div>Home</div></td></tr><tr><td><div>False</div></td></tr><tr><td><div>/ourhours/default/index</div></td></tr></table></div></td></tr></table></div></td></tr><tr><td style="font-weight:bold;vertical-align:top;">meta</td><td style="vertical-align:top;">:</td><td><div><table></table></div></td></tr><tr><td style="font-weight:bold;vertical-align:top;">models_to_run</td><td style="vertical-align:top;">:</td><td><div><table><tr><td><div>^\\w+\\.py$</div></td></tr><tr><td><div>^default/\\w+\\.py$</div></td></tr><tr><td><div>^default/join/\\w+\\.py$</div></td></tr></table></div></td></tr><tr><td style="font-weight:bold;vertical-align:top;">postprocessing</td><td style="vertical-align:top;">:</td><td><div><table></table></div></td></tr><tr><td style="font-weight:bold;vertical-align:top;">session_client</td><td style="vertical-align:top;">:</td><td><div>127.0.0.1</div></td></tr><tr><td style="font-weight:bold;vertical-align:top;">session_cookie_compression_level</td><td style="vertical-align:top;">:</td><td><div>None</div></td></tr><tr><td style="font-weight:bold;vertical-align:top;">session_cookie_expires</td><td style="vertical-align:top;">:</td><td><div>None</div></td></tr><tr><td style="font-weight:bold;vertical-align:top;">session_data_name</td><td style="vertical-align:top;">:</td><td><div>session_data_ourhours</div></td></tr><tr><td style="font-weight:bold;vertical-align:top;">session_file</td><td style="vertical-align:top;">:</td><td><div>None</div></td></tr><tr><td style="font-weight:bold;vertical-align:top;">session_filename</td><td style="vertical-align:top;">:</td><td><div>C:\\Users\\Wesly\\Desktop\\UCSC-Hack-2017\\applications\\ourhours\\sessions\\127.0.0.1-39d1f55d-7682-4493-8e3e-632db0b87c87</div></td></tr><tr><td style="font-weight:bold;vertical-align:top;">session_hash</td><td style="vertical-align:top;">:</td><td><div>f9dbfe1475ec9cccd6dc98d814667ed8</div></td></tr><tr><td style="font-weight:bold;vertical-align:top;">session_id</td><td style="vertical-align:top;">:</td><td><div>True</div></td></tr><tr><td style="font-weight:bold;vertical-align:top;">session_id_name</td><td style="vertical-align:top;">:</td><td><div>session_id_ourhours</div></td></tr><tr><td style="font-weight:bold;vertical-align:top;">session_masterapp</td><td style="vertical-align:top;">:</td><td><div>ourhours</div></td></tr><tr><td style="font-weight:bold;vertical-align:top;">session_new</td><td style="vertical-align:top;">:</td><td><div>True</div></td></tr><tr><td style="font-weight:bold;vertical-align:top;">session_storage_type</td><td style="vertical-align:top;">:</td><td><div>cookie</div></td></tr><tr><td style="font-weight:bold;vertical-align:top;">status</td><td style="vertical-align:top;">:</td><td><div>200</div></td></tr><tr><td style="font-weight:bold;vertical-align:top;">view</td><td style="vertical-align:top;">:</td><td><div>default/join.html</div></td></tr></table></div>'
tRp165
sS'locals'
p166
(dp167
S'k'
S"'id'"
p168
sS'self'
p169
S"<Row {'group_code': 'WNpnS'}>"
p170
sssS'traceback'
p171
S'Traceback (most recent call last):\n  File "C:\\Users\\Wesly\\Desktop\\UCSC-Hack-2017\\gluon\\restricted.py", line 227, in restricted\n    exec ccode in environment\n  File "C:\\Users\\Wesly\\Desktop\\UCSC-Hack-2017\\applications\\ourhours\\controllers/default.py", line 62, in <module>\n  File "C:\\Users\\Wesly\\Desktop\\UCSC-Hack-2017\\gluon\\globals.py", line 417, in <lambda>\n    self._caller = lambda f: f()\n  File "C:\\Users\\Wesly\\Desktop\\UCSC-Hack-2017\\applications\\ourhours\\controllers/default.py", line 28, in join\n    redirect(URL(\'event_page\',args=groups.id))\n  File "C:\\Users\\Wesly\\Desktop\\UCSC-Hack-2017\\gluon\\packages\\dal\\pydal\\objects.py", line 90, in __getattr__\n    raise AttributeError\nAttributeError\n'
p172
s.