(dp1
S'output'
p2
S"<type 'exceptions.SyntaxError'> Object exists and cannot be redefined: event_code"
p3
sS'layer'
p4
S'C:\\Users\\Wesly\\Desktop\\UCSC-Hack-2017\\applications\\ourhours\\controllers/default.py'
p5
sS'code'
p6
S"from gluon.tools import Mail\nimport imaplib\nimport email\nfrom email.header import decode_header\n\nimport random\nimport string\ndef index():\n    groups = db(db.groups).select(db.groups.ALL)\n    return locals()\n\n# @auth.requires_login()\ndef create():\n    form = SQLFORM(db.groups, deletable=True).process()\n    if form.accepted:\n        \n        redirect(URL('index'))\n        response.flash = 'Successful'\n    return locals()\n\n# @auth.requires_login()\ndef ecreate():\n    form = SQLFORM(db.event, deletable=True).process()\n    if form.accepted:\n        response.flash = 'Success'\n        redirect(URL('index'))\n    return locals()\n\n# @auth.requires_login()\ndef event_page():\n    #currently faulty, returns all events\n    g = db.groups(request.args(0,cast=int)) or redirect(URL('index'))\n    db.event.event_id.default = g.id\n    db.event.event_code = g.group_code\n    event = db(db.event.event_id == g.id).select()\n    # event = db(db.event).select(db.event.ALL)\n    return locals()\n\ndef user():\n    return dict(form=auth())\n\ndef download():\n    return response.download(request, db)\n\ndef picture():\n    return response.view(request, db)\nresponse._vars=response._caller(event_page)\n"
p7
sS'snapshot'
p8
(dp9
S'exception'
p10
(dp11
S'__getslice__'
p12
S"<method-wrapper '__getslice__' of exceptions.SyntaxError object>"
p13
sS'text'
p14
S'None'
p15
sS'__str__'
p16
S"<method-wrapper '__str__' of exceptions.SyntaxError object>"
p17
sS'__reduce__'
p18
S'<built-in method __reduce__ of exceptions.SyntaxError object>'
p19
sS'__dict__'
p20
S'{}'
p21
sS'__sizeof__'
p22
S'<built-in method __sizeof__ of exceptions.SyntaxError object>'
p23
sS'__init__'
p24
S"<method-wrapper '__init__' of exceptions.SyntaxError object>"
p25
sS'__setattr__'
p26
S"<method-wrapper '__setattr__' of exceptions.SyntaxError object>"
p27
sS'__reduce_ex__'
p28
S'<built-in method __reduce_ex__ of exceptions.SyntaxError object>'
p29
sS'__new__'
p30
S'<built-in method __new__ of type object>'
p31
sS'__format__'
p32
S'<built-in method __format__ of exceptions.SyntaxError object>'
p33
sS'__class__'
p34
S"<type 'exceptions.SyntaxError'>"
p35
sS'filename'
p36
S'None'
p37
sS'lineno'
p38
S'None'
p39
sS'msg'
p40
S"'Object exists and cannot be redefined: event_code'"
p41
sS'__doc__'
p42
S"'Invalid syntax.'"
p43
sS'__getitem__'
p44
S"<method-wrapper '__getitem__' of exceptions.SyntaxError object>"
p45
sS'__setstate__'
p46
S'<built-in method __setstate__ of exceptions.SyntaxError object>'
p47
sS'__getattribute__'
p48
S"<method-wrapper '__getattribute__' of exceptions.SyntaxError object>"
p49
sS'print_file_and_line'
p50
S'None'
p51
sS'args'
p52
S"('Object exists and cannot be redefined: event_code',)"
p53
sS'__subclasshook__'
p54
S'<built-in method __subclasshook__ of type object>'
p55
sS'offset'
p56
S'None'
p57
sS'__unicode__'
p58
S'<built-in method __unicode__ of exceptions.SyntaxError object>'
p59
sS'__delattr__'
p60
S"<method-wrapper '__delattr__' of exceptions.SyntaxError object>"
p61
sS'__repr__'
p62
S"<method-wrapper '__repr__' of exceptions.SyntaxError object>"
p63
sS'__hash__'
p64
S"<method-wrapper '__hash__' of exceptions.SyntaxError object>"
p65
ssS'evalue'
p66
S'Object exists and cannot be redefined: event_code'
p67
sS'request'
p68
cgluon.html
XML_unpickle
p69
(S's*\x8e\x00\x00<div><table><tr><td style="font-weight:bold;vertical-align:top;">ajax</td><td style="vertical-align:top;">:</td><td><div>False</div></td></tr><tr><td style="font-weight:bold;vertical-align:top;">application</td><td style="vertical-align:top;">:</td><td><div>ourhours</div></td></tr><tr><td style="font-weight:bold;vertical-align:top;">args</td><td style="vertical-align:top;">:</td><td><div><table><tr><td><div>15</div></td></tr></table></div></td></tr><tr><td style="font-weight:bold;vertical-align:top;">cid</td><td style="vertical-align:top;">:</td><td><div>None</div></td></tr><tr><td style="font-weight:bold;vertical-align:top;">client</td><td style="vertical-align:top;">:</td><td><div>127.0.0.1</div></td></tr><tr><td style="font-weight:bold;vertical-align:top;">controller</td><td style="vertical-align:top;">:</td><td><div>default</div></td></tr><tr><td style="font-weight:bold;vertical-align:top;">cookies</td><td style="vertical-align:top;">:</td><td><div><table><tr><td style="font-weight:bold;vertical-align:top;">resolution</td><td style="vertical-align:top;">:</td><td><div>1349<table><tr><td style="font-weight:bold;vertical-align:top;">comment</td><td style="vertical-align:top;">:</td><td><div></div></td></tr><tr><td style="font-weight:bold;vertical-align:top;">domain</td><td style="vertical-align:top;">:</td><td><div></div></td></tr><tr><td style="font-weight:bold;vertical-align:top;">expires</td><td style="vertical-align:top;">:</td><td><div></div></td></tr><tr><td style="font-weight:bold;vertical-align:top;">httponly</td><td style="vertical-align:top;">:</td><td><div></div></td></tr><tr><td style="font-weight:bold;vertical-align:top;">max-age</td><td style="vertical-align:top;">:</td><td><div></div></td></tr><tr><td style="font-weight:bold;vertical-align:top;">path</td><td style="vertical-align:top;">:</td><td><div></div></td></tr><tr><td style="font-weight:bold;vertical-align:top;">secure</td><td style="vertical-align:top;">:</td><td><div></div></td></tr><tr><td style="font-weight:bold;vertical-align:top;">version</td><td style="vertical-align:top;">:</td><td><div></div></td></tr></table></div></td></tr><tr><td style="font-weight:bold;vertical-align:top;">session_data_ourhours</td><td style="vertical-align:top;">:</td><td><div>361879903d1c4029d31795c724993d23:r7h6SVGQ74QKQ0MMKhOHb4pVTQilYbuXSygofyXPxPelII8qe5tdcMjiYN2MBin9y4bLehqDFTowWJg_L6BsHMX6RasrA0Sq3UULGpvT8lQi75e1tdxWLdcalS8NUeuNBPs8AoHmLQOB6xiVkJIBBW0qjdd9vUhj0mZvlg-cSioFv3GD6wsTkDUlrXNMTSNd7us3WzjAU3QUYeSbPmZ1CiTBojDjfmXPURaPKEAI0B7Sui94aq_lMDLO1-BjyrbWvGvqlemgQ_6h6rZxW8kms8_8WTJTi-7Qtf3_0BqIMXQob2npHYlGVO-KLl1aDbPzHP98gmsechLWx87AKnVbd9jcaXLaiWpSg2bBBdB38p1XBLiFRA2m26_Rlj662IRIWUoDIPjQTQfC699fhAQf6msxVwAaNg0OZZUGPtfo7odVxZmD4YNwhmIbLC3eeD6bTy9D-IoouEPLU9TgHFfbZsc0Mjg4XlezVfS4I-ECUtDD-IEMd9woTEsRQeXO04DmdUyKgKHTm2w97ewdkLnFGajB7bkuOrU7qqTgR4XeahgKf4oiCjgWj1JMTDNxuILZQjIyMywFYfgzyikoZK48WjpDOxnogOzJ5NLQ0WJPzUIrgdt1aPy8srKlAI4IVcrT8NVfUqDMJbs1C-8GCg1Fdp61KdCHohOm40dXwBlrpM2QqVz6G--WcenyrnojU-Yba61r9xbpIl4NAtCN6OB0n58ADeIAmxwDhUS0K0kWHN9WrXLs2CtJfBfyW7sLAYFTxsOmQQ3m-6ydX4TSZRU2WQUWLIDNgqhKScS5QBAc3B-yQF1N-h8Bn4ESdxa9LUyUzmsLC1MX1wrNPXfvPC8auMJlFD_f8a6IBCae8fTAE_NkZXZ_vRRmctom0IxeKY8txvb-OE4g0NrXglDw3lTpoLXFDt0DWUs1l0myhzAC7XquWxdsABdssOLL8Pb25kJjT9pkDx05pM4PR1rQChtymrZjKMWu5i0muIQFlfm7HyrjdqN0_TXB_Rw9CF0xeQgxfd5N2X9dk9L_GYUKGChkTb_Hj1KT3c0vNFDcUJKKD4C2mFZTE0o6utBJyNM2RcNal_MthvxybDoep1lvr-0t5kNvGui8PJR6YKrX7tL7PL2WtM2e902xtBMrSnFFoCqOzrdIsBSTaj9BxXvATNtQmqMkU10zgFUhMG8H_1cyUMv_dixtpPh3Q7K8qnD6eqU3giAQrxxhyiNxsUshm9C5JPugCqit7tMyMeP_bIisDDoTMz-lcAKCVfbsIQKHyR1epYMI5VIymFFcuwvLek91SdfS07g8bsOIK_uTHOxjKwP393gBzUWMjMK2FrV_8J6yqvZgmz6tipH2fsIkRZhWkLxYzrZ4C4Or9YpthaaOSpwvOvhLw4XvpCP1rqSxHf5aTUO4LudP8P4tRqTlzHVy3V6oT3wZSrqvod-sz9yPo2Cr7l8TgSHFIm5o2U3y3-L-9_OsZSmTQ-JVNz8iBsNeGwBZ9qqeK1ovanMKBOTLnCpJUrogdgbuALzgTv6-7QKX9yW1EHIXF3jQPW6rbNSsta2tRxsQgojEIHnWThwgFB9fIt82uQhWEeYHG0rGalIEZji6yNFF_tpljkYEldxCwT3kukQTSfikXQjsHzGqTxfbSkjo9CVD5RH8SEvFo3UlsToeKAmftY0jtvwX5zr7btlW-D74kf2KhWh1S5v-VLlun132FEojdiqlBDKuoaro7ZUM1mqfky440owI1mwpK2hm-jLjD4CqAXNNkLkfRJE=<table><tr><td style="font-weight:bold;vertical-align:top;">comment</td><td style="vertical-align:top;">:</td><td><div></div></td></tr><tr><td style="font-weight:bold;vertical-align:top;">domain</td><td style="vertical-align:top;">:</td><td><div></div></td></tr><tr><td style="font-weight:bold;vertical-align:top;">expires</td><td style="vertical-align:top;">:</td><td><div></div></td></tr><tr><td style="font-weight:bold;vertical-align:top;">httponly</td><td style="vertical-align:top;">:</td><td><div></div></td></tr><tr><td style="font-weight:bold;vertical-align:top;">max-age</td><td style="vertical-align:top;">:</td><td><div></div></td></tr><tr><td style="font-weight:bold;vertical-align:top;">path</td><td style="vertical-align:top;">:</td><td><div></div></td></tr><tr><td style="font-weight:bold;vertical-align:top;">secure</td><td style="vertical-align:top;">:</td><td><div></div></td></tr><tr><td style="font-weight:bold;vertical-align:top;">version</td><td style="vertical-align:top;">:</td><td><div></div></td></tr></table></div></td></tr><tr><td style="font-weight:bold;vertical-align:top;">session_id_admin</td><td style="vertical-align:top;">:</td><td><div>127.0.0.1-5e4d5587-8e46-4ab9-bda4-cde90ee24cff<table><tr><td style="font-weight:bold;vertical-align:top;">comment</td><td style="vertical-align:top;">:</td><td><div></div></td></tr><tr><td style="font-weight:bold;vertical-align:top;">domain</td><td style="vertical-align:top;">:</td><td><div></div></td></tr><tr><td style="font-weight:bold;vertical-align:top;">expires</td><td style="vertical-align:top;">:</td><td><div></div></td></tr><tr><td style="font-weight:bold;vertical-align:top;">httponly</td><td style="vertical-align:top;">:</td><td><div></div></td></tr><tr><td style="font-weight:bold;vertical-align:top;">max-age</td><td style="vertical-align:top;">:</td><td><div></div></td></tr><tr><td style="font-weight:bold;vertical-align:top;">path</td><td style="vertical-align:top;">:</td><td><div></div></td></tr><tr><td style="font-weight:bold;vertical-align:top;">secure</td><td style="vertical-align:top;">:</td><td><div></div></td></tr><tr><td style="font-weight:bold;vertical-align:top;">version</td><td style="vertical-align:top;">:</td><td><div></div></td></tr></table></div></td></tr><tr><td style="font-weight:bold;vertical-align:top;">session_id_hackathon</td><td style="vertical-align:top;">:</td><td><div>127.0.0.1-e9d19e57-2c82-4246-95e2-3afb87897355<table><tr><td style="font-weight:bold;vertical-align:top;">comment</td><td style="vertical-align:top;">:</td><td><div></div></td></tr><tr><td style="font-weight:bold;vertical-align:top;">domain</td><td style="vertical-align:top;">:</td><td><div></div></td></tr><tr><td style="font-weight:bold;vertical-align:top;">expires</td><td style="vertical-align:top;">:</td><td><div></div></td></tr><tr><td style="font-weight:bold;vertical-align:top;">httponly</td><td style="vertical-align:top;">:</td><td><div></div></td></tr><tr><td style="font-weight:bold;vertical-align:top;">max-age</td><td style="vertical-align:top;">:</td><td><div></div></td></tr><tr><td style="font-weight:bold;vertical-align:top;">path</td><td style="vertical-align:top;">:</td><td><div></div></td></tr><tr><td style="font-weight:bold;vertical-align:top;">secure</td><td style="vertical-align:top;">:</td><td><div></div></td></tr><tr><td style="font-weight:bold;vertical-align:top;">version</td><td style="vertical-align:top;">:</td><td><div></div></td></tr></table></div></td></tr><tr><td style="font-weight:bold;vertical-align:top;">session_id_hw</td><td style="vertical-align:top;">:</td><td><div>127.0.0.1-23223d0c-fdad-4421-b0fa-bfb22452a98b<table><tr><td style="font-weight:bold;vertical-align:top;">comment</td><td style="vertical-align:top;">:</td><td><div></div></td></tr><tr><td style="font-weight:bold;vertical-align:top;">domain</td><td style="vertical-align:top;">:</td><td><div></div></td></tr><tr><td style="font-weight:bold;vertical-align:top;">expires</td><td style="vertical-align:top;">:</td><td><div></div></td></tr><tr><td style="font-weight:bold;vertical-align:top;">httponly</td><td style="vertical-align:top;">:</td><td><div></div></td></tr><tr><td style="font-weight:bold;vertical-align:top;">max-age</td><td style="vertical-align:top;">:</td><td><div></div></td></tr><tr><td style="font-weight:bold;vertical-align:top;">path</td><td style="vertical-align:top;">:</td><td><div></div></td></tr><tr><td style="font-weight:bold;vertical-align:top;">secure</td><td style="vertical-align:top;">:</td><td><div></div></td></tr><tr><td style="font-weight:bold;vertical-align:top;">version</td><td style="vertical-align:top;">:</td><td><div></div></td></tr></table></div></td></tr><tr><td style="font-weight:bold;vertical-align:top;">session_id_layouttest</td><td style="vertical-align:top;">:</td><td><div>127.0.0.1-9dd550cb-7d25-4599-add6-bbf406414416<table><tr><td style="font-weight:bold;vertical-align:top;">comment</td><td style="vertical-align:top;">:</td><td><div></div></td></tr><tr><td style="font-weight:bold;vertical-align:top;">domain</td><td style="vertical-align:top;">:</td><td><div></div></td></tr><tr><td style="font-weight:bold;vertical-align:top;">expires</td><td style="vertical-align:top;">:</td><td><div></div></td></tr><tr><td style="font-weight:bold;vertical-align:top;">httponly</td><td style="vertical-align:top;">:</td><td><div></div></td></tr><tr><td style="font-weight:bold;vertical-align:top;">max-age</td><td style="vertical-align:top;">:</td><td><div></div></td></tr><tr><td style="font-weight:bold;vertical-align:top;">path</td><td style="vertical-align:top;">:</td><td><div></div></td></tr><tr><td style="font-weight:bold;vertical-align:top;">secure</td><td style="vertical-align:top;">:</td><td><div></div></td></tr><tr><td style="font-weight:bold;vertical-align:top;">version</td><td style="vertical-align:top;">:</td><td><div></div></td></tr></table></div></td></tr><tr><td style="font-weight:bold;vertical-align:top;">session_id_ourhours</td><td style="vertical-align:top;">:</td><td><div>True<table><tr><td style="font-weight:bold;vertical-align:top;">comment</td><td style="vertical-align:top;">:</td><td><div></div></td></tr><tr><td style="font-weight:bold;vertical-align:top;">domain</td><td style="vertical-align:top;">:</td><td><div></div></td></tr><tr><td style="font-weight:bold;vertical-align:top;">expires</td><td style="vertical-align:top;">:</td><td><div></div></td></tr><tr><td style="font-weight:bold;vertical-align:top;">httponly</td><td style="vertical-align:top;">:</td><td><div></div></td></tr><tr><td style="font-weight:bold;vertical-align:top;">max-age</td><td style="vertical-align:top;">:</td><td><div></div></td></tr><tr><td style="font-weight:bold;vertical-align:top;">path</td><td style="vertical-align:top;">:</td><td><div></div></td></tr><tr><td style="font-weight:bold;vertical-align:top;">secure</td><td style="vertical-align:top;">:</td><td><div></div></td></tr><tr><td style="font-weight:bold;vertical-align:top;">version</td><td style="vertical-align:top;">:</td><td><div></div></td></tr></table></div></td></tr><tr><td style="font-weight:bold;vertical-align:top;">session_id_welcome</td><td style="vertical-align:top;">:</td><td><div>127.0.0.1-27aab160-fe24-4282-a33a-46f674a52c7a<table><tr><td style="font-weight:bold;vertical-align:top;">comment</td><td style="vertical-align:top;">:</td><td><div></div></td></tr><tr><td style="font-weight:bold;vertical-align:top;">domain</td><td style="vertical-align:top;">:</td><td><div></div></td></tr><tr><td style="font-weight:bold;vertical-align:top;">expires</td><td style="vertical-align:top;">:</td><td><div></div></td></tr><tr><td style="font-weight:bold;vertical-align:top;">httponly</td><td style="vertical-align:top;">:</td><td><div></div></td></tr><tr><td style="font-weight:bold;vertical-align:top;">max-age</td><td style="vertical-align:top;">:</td><td><div></div></td></tr><tr><td style="font-weight:bold;vertical-align:top;">path</td><td style="vertical-align:top;">:</td><td><div></div></td></tr><tr><td style="font-weight:bold;vertical-align:top;">secure</td><td style="vertical-align:top;">:</td><td><div></div></td></tr><tr><td style="font-weight:bold;vertical-align:top;">version</td><td style="vertical-align:top;">:</td><td><div></div></td></tr></table></div></td></tr></table></div></td></tr><tr><td style="font-weight:bold;vertical-align:top;">env</td><td style="vertical-align:top;">:</td><td><div><table><tr><td style="font-weight:bold;vertical-align:top;">HTTP_ACCEPT</td><td style="vertical-align:top;">:</td><td><div>text/html,application/xhtml+xml,application/xml;q=0.9,image/webp,*/*;q=0.8</div></td></tr><tr><td style="font-weight:bold;vertical-align:top;">HTTP_ACCEPT_ENCODING</td><td style="vertical-align:top;">:</td><td><div>gzip, deflate, sdch, br</div></td></tr><tr><td style="font-weight:bold;vertical-align:top;">HTTP_ACCEPT_LANGUAGE</td><td style="vertical-align:top;">:</td><td><div>en-US,en;q=0.8</div></td></tr><tr><td style="font-weight:bold;vertical-align:top;">HTTP_CACHE_CONTROL</td><td style="vertical-align:top;">:</td><td><div>max-age=0</div></td></tr><tr><td style="font-weight:bold;vertical-align:top;">HTTP_CONNECTION</td><td style="vertical-align:top;">:</td><td><div>keep-alive</div></td></tr><tr><td style="font-weight:bold;vertical-align:top;">HTTP_COOKIE</td><td style="vertical-align:top;">:</td><td><div>session_id_layouttest=127.0.0.1-9dd550cb-7d25-4599-add6-bbf406414416; resolution=1349; session_id_hackathon=127.0.0.1-e9d19e57-2c82-4246-95e2-3afb87897355; session_id_hw=127.0.0.1-23223d0c-fdad-4421-b0fa-bfb22452a98b; session_id_welcome=127.0.0.1-27aab160-fe24-4282-a33a-46f674a52c7a; session_data_ourhours=&quot;361879903d1c4029d31795c724993d23:r7h6SVGQ74QKQ0MMKhOHb4pVTQilYbuXSygofyXPxPelII8qe5tdcMjiYN2MBin9y4bLehqDFTowWJg_L6BsHMX6RasrA0Sq3UULGpvT8lQi75e1tdxWLdcalS8NUeuNBPs8AoHmLQOB6xiVkJIBBW0qjdd9vUhj0mZvlg-cSioFv3GD6wsTkDUlrXNMTSNd7us3WzjAU3QUYeSbPmZ1CiTBojDjfmXPURaPKEAI0B7Sui94aq_lMDLO1-BjyrbWvGvqlemgQ_6h6rZxW8kms8_8WTJTi-7Qtf3_0BqIMXQob2npHYlGVO-KLl1aDbPzHP98gmsechLWx87AKnVbd9jcaXLaiWpSg2bBBdB38p1XBLiFRA2m26_Rlj662IRIWUoDIPjQTQfC699fhAQf6msxVwAaNg0OZZUGPtfo7odVxZmD4YNwhmIbLC3eeD6bTy9D-IoouEPLU9TgHFfbZsc0Mjg4XlezVfS4I-ECUtDD-IEMd9woTEsRQeXO04DmdUyKgKHTm2w97ewdkLnFGajB7bkuOrU7qqTgR4XeahgKf4oiCjgWj1JMTDNxuILZQjIyMywFYfgzyikoZK48WjpDOxnogOzJ5NLQ0WJPzUIrgdt1aPy8srKlAI4IVcrT8NVfUqDMJbs1C-8GCg1Fdp61KdCHohOm40dXwBlrpM2QqVz6G--WcenyrnojU-Yba61r9xbpIl4NAtCN6OB0n58ADeIAmxwDhUS0K0kWHN9WrXLs2CtJfBfyW7sLAYFTxsOmQQ3m-6ydX4TSZRU2WQUWLIDNgqhKScS5QBAc3B-yQF1N-h8Bn4ESdxa9LUyUzmsLC1MX1wrNPXfvPC8auMJlFD_f8a6IBCae8fTAE_NkZXZ_vRRmctom0IxeKY8txvb-OE4g0NrXglDw3lTpoLXFDt0DWUs1l0myhzAC7XquWxdsABdssOLL8Pb25kJjT9pkDx05pM4PR1rQChtymrZjKMWu5i0muIQFlfm7HyrjdqN0_TXB_Rw9CF0xeQgxfd5N2X9dk9L_GYUKGChkTb_Hj1KT3c0vNFDcUJKKD4C2mFZTE0o6utBJyNM2RcNal_MthvxybDoep1lvr-0t5kNvGui8PJR6YKrX7tL7PL2WtM2e902xtBMrSnFFoCqOzrdIsBSTaj9BxXvATNtQmqMkU10zgFUhMG8H_1cyUMv_dixtpPh3Q7K8qnD6eqU3giAQrxxhyiNxsUshm9C5JPugCqit7tMyMeP_bIisDDoTMz-lcAKCVfbsIQKHyR1epYMI5VIymFFcuwvLek91SdfS07g8bsOIK_uTHOxjKwP393gBzUWMjMK2FrV_8J6yqvZgmz6tipH2fsIkRZhWkLxYzrZ4C4Or9YpthaaOSpwvOvhLw4XvpCP1rqSxHf5aTUO4LudP8P4tRqTlzHVy3V6oT3wZSrqvod-sz9yPo2Cr7l8TgSHFIm5o2U3y3-L-9_OsZSmTQ-JVNz8iBsNeGwBZ9qqeK1ovanMKBOTLnCpJUrogdgbuALzgTv6-7QKX9yW1EHIXF3jQPW6rbNSsta2tRxsQgojEIHnWThwgFB9fIt82uQhWEeYHG0rGalIEZji6yNFF_tpljkYEldxCwT3kukQTSfikXQjsHzGqTxfbSkjo9CVD5RH8SEvFo3UlsToeKAmftY0jtvwX5zr7btlW-D74kf2KhWh1S5v-VLlun132FEojdiqlBDKuoaro7ZUM1mqfky440owI1mwpK2hm-jLjD4CqAXNNkLkfRJE=&quot;; session_id_ourhours=True; session_id_admin=127.0.0.1-5e4d5587-8e46-4ab9-bda4-cde90ee24cff</div></td></tr><tr><td style="font-weight:bold;vertical-align:top;">HTTP_HOST</td><td style="vertical-align:top;">:</td><td><div>127.0.0.1:8000</div></td></tr><tr><td style="font-weight:bold;vertical-align:top;">HTTP_REFERER</td><td style="vertical-align:top;">:</td><td><div>http://127.0.0.1:8000/ourhours/default/index</div></td></tr><tr><td style="font-weight:bold;vertical-align:top;">HTTP_UPGRADE_INSECURE_REQUESTS</td><td style="vertical-align:top;">:</td><td><div>1</div></td></tr><tr><td style="font-weight:bold;vertical-align:top;">HTTP_USER_AGENT</td><td style="vertical-align:top;">:</td><td><div>Mozilla/5.0 (Windows NT 10.0; Win64; x64) AppleWebKit/537.36 (KHTML, like Gecko) Chrome/55.0.2883.87 Safari/537.36</div></td></tr><tr><td style="font-weight:bold;vertical-align:top;">PATH_INFO</td><td style="vertical-align:top;">:</td><td><div>/ourhours/default/event_page/15</div></td></tr><tr><td style="font-weight:bold;vertical-align:top;">QUERY_STRING</td><td style="vertical-align:top;">:</td><td><div></div></td></tr><tr><td style="font-weight:bold;vertical-align:top;">REMOTE_ADDR</td><td style="vertical-align:top;">:</td><td><div>127.0.0.1</div></td></tr><tr><td style="font-weight:bold;vertical-align:top;">REMOTE_PORT</td><td style="vertical-align:top;">:</td><td><div>54446</div></td></tr><tr><td style="font-weight:bold;vertical-align:top;">REQUEST_METHOD</td><td style="vertical-align:top;">:</td><td><div>GET</div></td></tr><tr><td style="font-weight:bold;vertical-align:top;">SCRIPT_NAME</td><td style="vertical-align:top;">:</td><td><div></div></td></tr><tr><td style="font-weight:bold;vertical-align:top;">SERVER_NAME</td><td style="vertical-align:top;">:</td><td><div>DESKTOP-GDD7DCK</div></td></tr><tr><td style="font-weight:bold;vertical-align:top;">SERVER_PORT</td><td style="vertical-align:top;">:</td><td><div>8000</div></td></tr><tr><td style="font-weight:bold;vertical-align:top;">SERVER_PROTOCOL</td><td style="vertical-align:top;">:</td><td><div>HTTP/1.1</div></td></tr><tr><td style="font-weight:bold;vertical-align:top;">SERVER_SOFTWARE</td><td style="vertical-align:top;">:</td><td><div>Rocket 1.2.6</div></td></tr><tr><td style="font-weight:bold;vertical-align:top;">app_folders</td><td style="vertical-align:top;">:</td><td><div>set([&#x27;C:\\\\Users\\\\Wesly\\\\Desktop\\\\UCSC-Hack-2017\\\\applications\\\\welcome\\\\&#x27;, &#x27;C:\\\\Users\\\\Wesly\\\\Desktop\\\\UCSC-Hack-2017\\\\applications\\\\examples\\\\&#x27;, &#x27;C:\\\\Users\\\\Wesly\\\\Desktop\\\\UCSC-Hack-2017\\\\applications\\\\ourhours\\\\&#x27;, &#x27;C:\\\\Users\\\\Wesly\\\\Desktop\\\\UCSC-Hack-2017\\\\applications\\\\admin\\\\&#x27;])</div></td></tr><tr><td style="font-weight:bold;vertical-align:top;">applications_parent</td><td style="vertical-align:top;">:</td><td><div>C:\\Users\\Wesly\\Desktop\\UCSC-Hack-2017</div></td></tr><tr><td style="font-weight:bold;vertical-align:top;">cmd_args</td><td style="vertical-align:top;">:</td><td><div><table></table></div></td></tr><tr><td style="font-weight:bold;vertical-align:top;">cmd_options</td><td style="vertical-align:top;">:</td><td><div>&lt;Values at 0x2ddaeb8: {&#x27;verbose&#x27;: False, &#x27;ip&#x27;: &#x27;127.0.0.1&#x27;, &#x27;debuglevel&#x27;: 30, &#x27;with_scheduler&#x27;: False, &#x27;shutdown_timeout&#x27;: 5, &#x27;taskbar&#x27;: False, &#x27;with_coverage&#x27;: False, &#x27;pid_filename&#x27;: &#x27;httpserver.pid&#x27;, &#x27;maxthreads&#x27;: None, &#x27;softcron&#x27;: False, &#x27;server_name&#x27;: &#x27;DESKTOP-GDD7DCK&#x27;, &#x27;bpython&#x27;: False, &#x27;nogui&#x27;: False, &#x27;port&#x27;: 8000, &#x27;print_errors&#x27;: False, &#x27;extcron&#x27;: False, &#x27;runcron&#x27;: False, &#x27;run_system_tests&#x27;: False, &#x27;test&#x27;: None, &#x27;folder&#x27;: &#x27;C:\\\\Users\\\\Wesly\\\\Desktop\\\\UCSC-Hack-2017&#x27;, &#x27;config&#x27;: &#x27;&#x27;, &#x27;minthreads&#x27;: None, &#x27;shell&#x27;: None, &#x27;run&#x27;: &#x27;&#x27;, &#x27;log_filename&#x27;: &#x27;httpserver.log&#x27;, &#x27;profiler_dir&#x27;: None, &#x27;args&#x27;: [&#x27;&#x27;], &#x27;socket_timeout&#x27;: 5, &#x27;ssl_ca_certificate&#x27;: None, &#x27;scheduler&#x27;: None, &#x27;interfaces&#x27;: None, &#x27;ssl_private_key&#x27;: &#x27;&#x27;, &#x27;gae&#x27;: None, &#x27;password&#x27;: &#x27;******&#x27;, &#x27;request_queue_size&#x27;: 5, &#x27;ssl_certificate&#x27;: &#x27;&#x27;, &#x27;cronjob&#x27;: False, &#x27;numthreads&#x27;: None, &#x27;quiet&#x27;: False, &#x27;import_models&#x27;: False, &#x27;timeout&#x27;: 10, &#x27;plain&#x27;: False, &#x27;nobanner&#x27;: False}&gt;</div></td></tr><tr><td style="font-weight:bold;vertical-align:top;">db_sessions</td><td style="vertical-align:top;">:</td><td><div>set([])</div></td></tr><tr><td style="font-weight:bold;vertical-align:top;">debugging</td><td style="vertical-align:top;">:</td><td><div>True</div></td></tr><tr><td style="font-weight:bold;vertical-align:top;">gluon_parent</td><td style="vertical-align:top;">:</td><td><div>C:\\Users\\Wesly\\Desktop\\UCSC-Hack-2017</div></td></tr><tr><td style="font-weight:bold;vertical-align:top;">http_accept</td><td style="vertical-align:top;">:</td><td><div>text/html,application/xhtml+xml,application/xml;q=0.9,image/webp,*/*;q=0.8</div></td></tr><tr><td style="font-weight:bold;vertical-align:top;">http_accept_encoding</td><td style="vertical-align:top;">:</td><td><div>gzip, deflate, sdch, br</div></td></tr><tr><td style="font-weight:bold;vertical-align:top;">http_accept_language</td><td style="vertical-align:top;">:</td><td><div>en-US,en;q=0.8</div></td></tr><tr><td style="font-weight:bold;vertical-align:top;">http_cache_control</td><td style="vertical-align:top;">:</td><td><div>max-age=0</div></td></tr><tr><td style="font-weight:bold;vertical-align:top;">http_connection</td><td style="vertical-align:top;">:</td><td><div>keep-alive</div></td></tr><tr><td style="font-weight:bold;vertical-align:top;">http_cookie</td><td style="vertical-align:top;">:</td><td><div>session_id_layouttest=127.0.0.1-9dd550cb-7d25-4599-add6-bbf406414416; resolution=1349; session_id_hackathon=127.0.0.1-e9d19e57-2c82-4246-95e2-3afb87897355; session_id_hw=127.0.0.1-23223d0c-fdad-4421-b0fa-bfb22452a98b; session_id_welcome=127.0.0.1-27aab160-fe24-4282-a33a-46f674a52c7a; session_data_ourhours=&quot;361879903d1c4029d31795c724993d23:r7h6SVGQ74QKQ0MMKhOHb4pVTQilYbuXSygofyXPxPelII8qe5tdcMjiYN2MBin9y4bLehqDFTowWJg_L6BsHMX6RasrA0Sq3UULGpvT8lQi75e1tdxWLdcalS8NUeuNBPs8AoHmLQOB6xiVkJIBBW0qjdd9vUhj0mZvlg-cSioFv3GD6wsTkDUlrXNMTSNd7us3WzjAU3QUYeSbPmZ1CiTBojDjfmXPURaPKEAI0B7Sui94aq_lMDLO1-BjyrbWvGvqlemgQ_6h6rZxW8kms8_8WTJTi-7Qtf3_0BqIMXQob2npHYlGVO-KLl1aDbPzHP98gmsechLWx87AKnVbd9jcaXLaiWpSg2bBBdB38p1XBLiFRA2m26_Rlj662IRIWUoDIPjQTQfC699fhAQf6msxVwAaNg0OZZUGPtfo7odVxZmD4YNwhmIbLC3eeD6bTy9D-IoouEPLU9TgHFfbZsc0Mjg4XlezVfS4I-ECUtDD-IEMd9woTEsRQeXO04DmdUyKgKHTm2w97ewdkLnFGajB7bkuOrU7qqTgR4XeahgKf4oiCjgWj1JMTDNxuILZQjIyMywFYfgzyikoZK48WjpDOxnogOzJ5NLQ0WJPzUIrgdt1aPy8srKlAI4IVcrT8NVfUqDMJbs1C-8GCg1Fdp61KdCHohOm40dXwBlrpM2QqVz6G--WcenyrnojU-Yba61r9xbpIl4NAtCN6OB0n58ADeIAmxwDhUS0K0kWHN9WrXLs2CtJfBfyW7sLAYFTxsOmQQ3m-6ydX4TSZRU2WQUWLIDNgqhKScS5QBAc3B-yQF1N-h8Bn4ESdxa9LUyUzmsLC1MX1wrNPXfvPC8auMJlFD_f8a6IBCae8fTAE_NkZXZ_vRRmctom0IxeKY8txvb-OE4g0NrXglDw3lTpoLXFDt0DWUs1l0myhzAC7XquWxdsABdssOLL8Pb25kJjT9pkDx05pM4PR1rQChtymrZjKMWu5i0muIQFlfm7HyrjdqN0_TXB_Rw9CF0xeQgxfd5N2X9dk9L_GYUKGChkTb_Hj1KT3c0vNFDcUJKKD4C2mFZTE0o6utBJyNM2RcNal_MthvxybDoep1lvr-0t5kNvGui8PJR6YKrX7tL7PL2WtM2e902xtBMrSnFFoCqOzrdIsBSTaj9BxXvATNtQmqMkU10zgFUhMG8H_1cyUMv_dixtpPh3Q7K8qnD6eqU3giAQrxxhyiNxsUshm9C5JPugCqit7tMyMeP_bIisDDoTMz-lcAKCVfbsIQKHyR1epYMI5VIymFFcuwvLek91SdfS07g8bsOIK_uTHOxjKwP393gBzUWMjMK2FrV_8J6yqvZgmz6tipH2fsIkRZhWkLxYzrZ4C4Or9YpthaaOSpwvOvhLw4XvpCP1rqSxHf5aTUO4LudP8P4tRqTlzHVy3V6oT3wZSrqvod-sz9yPo2Cr7l8TgSHFIm5o2U3y3-L-9_OsZSmTQ-JVNz8iBsNeGwBZ9qqeK1ovanMKBOTLnCpJUrogdgbuALzgTv6-7QKX9yW1EHIXF3jQPW6rbNSsta2tRxsQgojEIHnWThwgFB9fIt82uQhWEeYHG0rGalIEZji6yNFF_tpljkYEldxCwT3kukQTSfikXQjsHzGqTxfbSkjo9CVD5RH8SEvFo3UlsToeKAmftY0jtvwX5zr7btlW-D74kf2KhWh1S5v-VLlun132FEojdiqlBDKuoaro7ZUM1mqfky440owI1mwpK2hm-jLjD4CqAXNNkLkfRJE=&quot;; session_id_ourhours=True; session_id_admin=127.0.0.1-5e4d5587-8e46-4ab9-bda4-cde90ee24cff</div></td></tr><tr><td style="font-weight:bold;vertical-align:top;">http_host</td><td style="vertical-align:top;">:</td><td><div>127.0.0.1:8000</div></td></tr><tr><td style="font-weight:bold;vertical-align:top;">http_referer</td><td style="vertical-align:top;">:</td><td><div>http://127.0.0.1:8000/ourhours/default/index</div></td></tr><tr><td style="font-weight:bold;vertical-align:top;">http_upgrade_insecure_requests</td><td style="vertical-align:top;">:</td><td><div>1</div></td></tr><tr><td style="font-weight:bold;vertical-align:top;">http_user_agent</td><td style="vertical-align:top;">:</td><td><div>Mozilla/5.0 (Windows NT 10.0; Win64; x64) AppleWebKit/537.36 (KHTML, like Gecko) Chrome/55.0.2883.87 Safari/537.36</div></td></tr><tr><td style="font-weight:bold;vertical-align:top;">is_jython</td><td style="vertical-align:top;">:</td><td><div>False</div></td></tr><tr><td style="font-weight:bold;vertical-align:top;">is_pypy</td><td style="vertical-align:top;">:</td><td><div>False</div></td></tr><tr><td style="font-weight:bold;vertical-align:top;">is_source</td><td style="vertical-align:top;">:</td><td><div>False</div></td></tr><tr><td style="font-weight:bold;vertical-align:top;">local_hosts</td><td style="vertical-align:top;">:</td><td><div><table><tr><td><div>fe80::81f2:e7ae:7efe:f1e7%23</div></td></tr><tr><td><div>DESKTOP-GDD7DCK</div></td></tr><tr><td><div>::ffff:127.0.0.1</div></td></tr><tr><td><div>::1</div></td></tr><tr><td><div>fe80::5efe:192.168.1.135%21</div></td></tr><tr><td><div>192.168.1.135</div></td></tr><tr><td><div>fe80::e941:c1cf:aca3:e27d%22</div></td></tr><tr><td><div>127.0.0.1</div></td></tr><tr><td><div>192.168.56.1</div></td></tr></table></div></td></tr><tr><td style="font-weight:bold;vertical-align:top;">path_info</td><td style="vertical-align:top;">:</td><td><div>/ourhours/default/event_page/15</div></td></tr><tr><td style="font-weight:bold;vertical-align:top;">query_string</td><td style="vertical-align:top;">:</td><td><div></div></td></tr><tr><td style="font-weight:bold;vertical-align:top;">remote_addr</td><td style="vertical-align:top;">:</td><td><div>127.0.0.1</div></td></tr><tr><td style="font-weight:bold;vertical-align:top;">remote_port</td><td style="vertical-align:top;">:</td><td><div>54446</div></td></tr><tr><td style="font-weight:bold;vertical-align:top;">request_method</td><td style="vertical-align:top;">:</td><td><div>GET</div></td></tr><tr><td style="font-weight:bold;vertical-align:top;">request_uri</td><td style="vertical-align:top;">:</td><td><div>/ourhours/default/event_page/15</div></td></tr><tr><td style="font-weight:bold;vertical-align:top;">script_name</td><td style="vertical-align:top;">:</td><td><div></div></td></tr><tr><td style="font-weight:bold;vertical-align:top;">server_name</td><td style="vertical-align:top;">:</td><td><div>DESKTOP-GDD7DCK</div></td></tr><tr><td style="font-weight:bold;vertical-align:top;">server_port</td><td style="vertical-align:top;">:</td><td><div>8000</div></td></tr><tr><td style="font-weight:bold;vertical-align:top;">server_protocol</td><td style="vertical-align:top;">:</td><td><div>HTTP/1.1</div></td></tr><tr><td style="font-weight:bold;vertical-align:top;">server_software</td><td style="vertical-align:top;">:</td><td><div>Rocket 1.2.6</div></td></tr><tr><td style="font-weight:bold;vertical-align:top;">web2py_path</td><td style="vertical-align:top;">:</td><td><div>C:\\Users\\Wesly\\Desktop\\UCSC-Hack-2017</div></td></tr><tr><td style="font-weight:bold;vertical-align:top;">web2py_version</td><td style="vertical-align:top;">:</td><td><div>2.14.6-stable+timestamp.2016.05.10.00.21.47</div></td></tr><tr><td style="font-weight:bold;vertical-align:top;">wsgi.errors</td><td style="vertical-align:top;">:</td><td><div>&lt;open file &#x27;&lt;stderr&gt;&#x27;, mode &#x27;w&#x27; at 0x0221D0D0&gt;</div></td></tr><tr><td style="font-weight:bold;vertical-align:top;">wsgi.file_wrapper</td><td style="vertical-align:top;">:</td><td><div>&lt;class wsgiref.util.FileWrapper at 0x0321F148&gt;</div></td></tr><tr><td style="font-weight:bold;vertical-align:top;">wsgi.input</td><td style="vertical-align:top;">:</td><td><div>&lt;socket._fileobject object at 0x08CE3CF0&gt;</div></td></tr><tr><td style="font-weight:bold;vertical-align:top;">wsgi.multiprocess</td><td style="vertical-align:top;">:</td><td><div>False</div></td></tr><tr><td style="font-weight:bold;vertical-align:top;">wsgi.multithread</td><td style="vertical-align:top;">:</td><td><div>True</div></td></tr><tr><td style="font-weight:bold;vertical-align:top;">wsgi.run_once</td><td style="vertical-align:top;">:</td><td><div>False</div></td></tr><tr><td style="font-weight:bold;vertical-align:top;">wsgi.url_scheme</td><td style="vertical-align:top;">:</td><td><div>http</div></td></tr><tr><td style="font-weight:bold;vertical-align:top;">wsgi.version</td><td style="vertical-align:top;">:</td><td><div><table><tr><td><div>1</div></td></tr><tr><td><div>0</div></td></tr></table></div></td></tr><tr><td style="font-weight:bold;vertical-align:top;">wsgi_errors</td><td style="vertical-align:top;">:</td><td><div>&lt;open file &#x27;&lt;stderr&gt;&#x27;, mode &#x27;w&#x27; at 0x0221D0D0&gt;</div></td></tr><tr><td style="font-weight:bold;vertical-align:top;">wsgi_file_wrapper</td><td style="vertical-align:top;">:</td><td><div>&lt;class wsgiref.util.FileWrapper at 0x0321F148&gt;</div></td></tr><tr><td style="font-weight:bold;vertical-align:top;">wsgi_input</td><td style="vertical-align:top;">:</td><td><div>&lt;socket._fileobject object at 0x08CE3CF0&gt;</div></td></tr><tr><td style="font-weight:bold;vertical-align:top;">wsgi_multiprocess</td><td style="vertical-align:top;">:</td><td><div>False</div></td></tr><tr><td style="font-weight:bold;vertical-align:top;">wsgi_multithread</td><td style="vertical-align:top;">:</td><td><div>True</div></td></tr><tr><td style="font-weight:bold;vertical-align:top;">wsgi_run_once</td><td style="vertical-align:top;">:</td><td><div>False</div></td></tr><tr><td style="font-weight:bold;vertical-align:top;">wsgi_url_scheme</td><td style="vertical-align:top;">:</td><td><div>http</div></td></tr><tr><td style="font-weight:bold;vertical-align:top;">wsgi_version</td><td style="vertical-align:top;">:</td><td><div><table><tr><td><div>1</div></td></tr><tr><td><div>0</div></td></tr></table></div></td></tr></table></div></td></tr><tr><td style="font-weight:bold;vertical-align:top;">extension</td><td style="vertical-align:top;">:</td><td><div>html</div></td></tr><tr><td style="font-weight:bold;vertical-align:top;">folder</td><td style="vertical-align:top;">:</td><td><div>C:\\Users\\Wesly\\Desktop\\UCSC-Hack-2017\\applications\\ourhours\\</div></td></tr><tr><td style="font-weight:bold;vertical-align:top;">function</td><td style="vertical-align:top;">:</td><td><div>event_page</div></td></tr><tr><td style="font-weight:bold;vertical-align:top;">global_settings</td><td style="vertical-align:top;">:</td><td><div><table><tr><td style="font-weight:bold;vertical-align:top;">app_folders</td><td style="vertical-align:top;">:</td><td><div>set([&#x27;C:\\\\Users\\\\Wesly\\\\Desktop\\\\UCSC-Hack-2017\\\\applications\\\\welcome\\\\&#x27;, &#x27;C:\\\\Users\\\\Wesly\\\\Desktop\\\\UCSC-Hack-2017\\\\applications\\\\examples\\\\&#x27;, &#x27;C:\\\\Users\\\\Wesly\\\\Desktop\\\\UCSC-Hack-2017\\\\applications\\\\ourhours\\\\&#x27;, &#x27;C:\\\\Users\\\\Wesly\\\\Desktop\\\\UCSC-Hack-2017\\\\applications\\\\admin\\\\&#x27;])</div></td></tr><tr><td style="font-weight:bold;vertical-align:top;">applications_parent</td><td style="vertical-align:top;">:</td><td><div>C:\\Users\\Wesly\\Desktop\\UCSC-Hack-2017</div></td></tr><tr><td style="font-weight:bold;vertical-align:top;">cmd_args</td><td style="vertical-align:top;">:</td><td><div><table></table></div></td></tr><tr><td style="font-weight:bold;vertical-align:top;">cmd_options</td><td style="vertical-align:top;">:</td><td><div>&lt;Values at 0x2ddaeb8: {&#x27;verbose&#x27;: False, &#x27;ip&#x27;: &#x27;127.0.0.1&#x27;, &#x27;debuglevel&#x27;: 30, &#x27;with_scheduler&#x27;: False, &#x27;shutdown_timeout&#x27;: 5, &#x27;taskbar&#x27;: False, &#x27;with_coverage&#x27;: False, &#x27;pid_filename&#x27;: &#x27;httpserver.pid&#x27;, &#x27;maxthreads&#x27;: None, &#x27;softcron&#x27;: False, &#x27;server_name&#x27;: &#x27;DESKTOP-GDD7DCK&#x27;, &#x27;bpython&#x27;: False, &#x27;nogui&#x27;: False, &#x27;port&#x27;: 8000, &#x27;print_errors&#x27;: False, &#x27;extcron&#x27;: False, &#x27;runcron&#x27;: False, &#x27;run_system_tests&#x27;: False, &#x27;test&#x27;: None, &#x27;folder&#x27;: &#x27;C:\\\\Users\\\\Wesly\\\\Desktop\\\\UCSC-Hack-2017&#x27;, &#x27;config&#x27;: &#x27;&#x27;, &#x27;minthreads&#x27;: None, &#x27;shell&#x27;: None, &#x27;run&#x27;: &#x27;&#x27;, &#x27;log_filename&#x27;: &#x27;httpserver.log&#x27;, &#x27;profiler_dir&#x27;: None, &#x27;args&#x27;: [&#x27;&#x27;], &#x27;socket_timeout&#x27;: 5, &#x27;ssl_ca_certificate&#x27;: None, &#x27;scheduler&#x27;: None, &#x27;interfaces&#x27;: None, &#x27;ssl_private_key&#x27;: &#x27;&#x27;, &#x27;gae&#x27;: None, &#x27;password&#x27;: &#x27;******&#x27;, &#x27;request_queue_size&#x27;: 5, &#x27;ssl_certificate&#x27;: &#x27;&#x27;, &#x27;cronjob&#x27;: False, &#x27;numthreads&#x27;: None, &#x27;quiet&#x27;: False, &#x27;import_models&#x27;: False, &#x27;timeout&#x27;: 10, &#x27;plain&#x27;: False, &#x27;nobanner&#x27;: False}&gt;</div></td></tr><tr><td style="font-weight:bold;vertical-align:top;">db_sessions</td><td style="vertical-align:top;">:</td><td><div>set([])</div></td></tr><tr><td style="font-weight:bold;vertical-align:top;">debugging</td><td style="vertical-align:top;">:</td><td><div>True</div></td></tr><tr><td style="font-weight:bold;vertical-align:top;">gluon_parent</td><td style="vertical-align:top;">:</td><td><div>C:\\Users\\Wesly\\Desktop\\UCSC-Hack-2017</div></td></tr><tr><td style="font-weight:bold;vertical-align:top;">is_jython</td><td style="vertical-align:top;">:</td><td><div>False</div></td></tr><tr><td style="font-weight:bold;vertical-align:top;">is_pypy</td><td style="vertical-align:top;">:</td><td><div>False</div></td></tr><tr><td style="font-weight:bold;vertical-align:top;">is_source</td><td style="vertical-align:top;">:</td><td><div>False</div></td></tr><tr><td style="font-weight:bold;vertical-align:top;">local_hosts</td><td style="vertical-align:top;">:</td><td><div><table><tr><td><div>fe80::81f2:e7ae:7efe:f1e7%23</div></td></tr><tr><td><div>DESKTOP-GDD7DCK</div></td></tr><tr><td><div>::ffff:127.0.0.1</div></td></tr><tr><td><div>::1</div></td></tr><tr><td><div>fe80::5efe:192.168.1.135%21</div></td></tr><tr><td><div>192.168.1.135</div></td></tr><tr><td><div>fe80::e941:c1cf:aca3:e27d%22</div></td></tr><tr><td><div>127.0.0.1</div></td></tr><tr><td><div>192.168.56.1</div></td></tr></table></div></td></tr><tr><td style="font-weight:bold;vertical-align:top;">web2py_version</td><td style="vertical-align:top;">:</td><td><div>2.14.6-stable+timestamp.2016.05.10.00.21.47</div></td></tr></table></div></td></tr><tr><td style="font-weight:bold;vertical-align:top;">is_https</td><td style="vertical-align:top;">:</td><td><div>False</div></td></tr><tr><td style="font-weight:bold;vertical-align:top;">is_local</td><td style="vertical-align:top;">:</td><td><div>True</div></td></tr><tr><td style="font-weight:bold;vertical-align:top;">is_restful</td><td style="vertical-align:top;">:</td><td><div>False</div></td></tr><tr><td style="font-weight:bold;vertical-align:top;">is_scheduler</td><td style="vertical-align:top;">:</td><td><div>False</div></td></tr><tr><td style="font-weight:bold;vertical-align:top;">is_shell</td><td style="vertical-align:top;">:</td><td><div>False</div></td></tr><tr><td style="font-weight:bold;vertical-align:top;">now</td><td style="vertical-align:top;">:</td><td><div>datetime.datetime(2017, 1, 21, 14, 17, 55, 331000)</div></td></tr><tr><td style="font-weight:bold;vertical-align:top;">raw_args</td><td style="vertical-align:top;">:</td><td><div>15</div></td></tr><tr><td style="font-weight:bold;vertical-align:top;">raw_extension</td><td style="vertical-align:top;">:</td><td><div>None</div></td></tr><tr><td style="font-weight:bold;vertical-align:top;">url</td><td style="vertical-align:top;">:</td><td><div>/ourhours/default/event_page/15</div></td></tr><tr><td style="font-weight:bold;vertical-align:top;">utcnow</td><td style="vertical-align:top;">:</td><td><div>datetime.datetime(2017, 1, 21, 22, 17, 55, 331000)</div></td></tr><tr><td style="font-weight:bold;vertical-align:top;">wsgi</td><td style="vertical-align:top;">:</td><td><div>&lt;gluon.main.LazyWSGI object at 0x07D5C6D0&gt;</div></td></tr></table></div>'
tRp70
sS'frames'
p71
(lp72
(dp73
S'file'
p74
S'C:\\Users\\Wesly\\Desktop\\UCSC-Hack-2017\\gluon\\restricted.py'
p75
sS'dump'
p76
(dp77
S'environment'
p78
S"{'A': <class 'gluon.html.A'>, 'ANY_OF': <class 'gluon.validators.ANY_OF'>, 'ASSIGNJS': <function ASSIGNJS>, 'Auth': <class 'gluon.tools.Auth'>, 'B': <class 'gluon.html.B'>, 'BEAUTIFY': <class 'gluon.html.BEAUTIFY'>, 'BODY': <class 'gluon.html.BODY'>, 'BR': <class 'gluon.html.BR'>, 'BUTTON': <class 'gluon.html.BUTTON'>, 'CAT': <class 'gluon.html.CAT'>, ...}"
p79
sS'ccode'
p80
S'<code object <module> at 07CBB890, file "C:\\User...cations\\ourhours\\controllers/default.py", line 1>'
p81
ssS'lnum'
p82
I227
sS'lines'
p83
(dp84
I224
S'            ccode = code'
p85
sI225
S'        else:'
p86
sI226
S'            ccode = compile2(code, layer)'
p87
sI227
S'        exec ccode in environment'
p88
sI228
S'    except HTTP:'
p89
sI229
S'        raise'
p90
sI230
S'    except RestrictedError:'
p91
sI231
S'        # do not encapsulate (obfuscate) the original RestrictedError'
p92
sI222
S'    try:'
p93
sI223
S'        if isinstance(code, types.CodeType):'
p94
ssS'call'
p95
S"(code='from gluon.tools import Mail\\nimport imaplib\\nimpo... db)\\nresponse._vars=response._caller(event_page)\\n', environment={'A': <class 'gluon.html.A'>, 'ANY_OF': <class 'gluon.validators.ANY_OF'>, 'ASSIGNJS': <function ASSIGNJS>, 'Auth': <class 'gluon.tools.Auth'>, 'B': <class 'gluon.html.B'>, 'BEAUTIFY': <class 'gluon.html.BEAUTIFY'>, 'BODY': <class 'gluon.html.BODY'>, 'BR': <class 'gluon.html.BR'>, 'BUTTON': <class 'gluon.html.BUTTON'>, 'CAT': <class 'gluon.html.CAT'>, ...}, layer=r'C:\\Users\\Wesly\\Desktop\\UCSC-Hack-2017\\applications\\ourhours\\controllers/default.py')"
p96
sS'func'
p97
S'restricted'
p98
sa(dp99
g74
S'C:\\Users\\Wesly\\Desktop\\UCSC-Hack-2017\\applications\\ourhours\\controllers\\default.py'
p100
sg76
(dp101
sg82
I47
sg83
(dp102
I37
S'    return locals()'
p103
sI38
S''
sI39
S'def user():'
p104
sI40
S'    return dict(form=auth())'
p105
sI41
S''
sI42
S'def download():'
p106
sI43
S'    return response.download(request, db)'
p107
sI44
S''
sI45
S'def picture():'
p108
sI46
S'    return response.view(request, db)'
p109
ssg95
S'()'
p110
sg97
S'<module>'
p111
sa(dp112
g74
S'C:\\Users\\Wesly\\Desktop\\UCSC-Hack-2017\\gluon\\globals.py'
p113
sg76
(dp114
S'self'
p115
S'undefined'
p116
sS'f'
S'<function event_page>'
p117
ssg82
I417
sg83
(dp118
I416
S'        self._vars = None'
p119
sI417
S'        self._caller = lambda f: f()'
p120
sI418
S'        self._view_environment = None'
p121
sI419
S'        self._custom_commit = None'
p122
sI420
S'        self._custom_rollback = None'
p123
sI421
S"        self.generic_patterns = ['*']"
p124
sI412
S"        self.flash = ''            # used by the default view layout"
p125
sI413
S'        self.meta = Storage()      # used by web2py_ajax.html'
p126
sI414
S'        self.menu = []             # used by the default view layout'
p127
sI415
S'        self.files = []            # used by web2py_ajax.html'
p128
ssg95
S'(f=<function event_page>)'
p129
sg97
S'<lambda>'
p130
sa(dp131
g74
S'C:\\Users\\Wesly\\Desktop\\UCSC-Hack-2017\\applications\\ourhours\\controllers\\default.py'
p132
sg76
(dp133
S'global db'
p134
S'<DAL uri="sqlite://storage.sqlite">'
p135
sS'db.event.event_code'
p136
S'<pydal.objects.Field object>'
p137
sS'db.event'
p138
S'<Table event (id, event_name, event_id, event_de...nt_sdate, event_edate, event_stime, event_etime)>'
p139
sS'g.group_code'
p140
S"'P5cPR'"
p141
sS'g'
S"<Row {'group_code': 'P5cPR', 'group_name': 'test...p Description.No Group Description.', 'id': 15L}>"
p142
ssg82
I34
sg83
(dp143
I32
S"    g = db.groups(request.args(0,cast=int)) or redirect(URL('index'))"
p144
sI33
S'    db.event.event_id.default = g.id'
p145
sI34
S'    db.event.event_code = g.group_code'
p146
sI35
S'    event = db(db.event.event_id == g.id).select()'
p147
sI36
S'    # event = db(db.event).select(db.event.ALL)'
p148
sI37
S'    return locals()'
p149
sI38
S''
sI29
S'# @auth.requires_login()'
p150
sI30
S'def event_page():'
p151
sI31
S'    #currently faulty, returns all events'
p152
ssg95
S'()'
p153
sg97
S'event_page'
p154
sa(dp155
g74
S'C:\\Users\\Wesly\\Desktop\\UCSC-Hack-2017\\gluon\\packages\\dal\\pydal\\objects.py'
p156
sg76
(dp157
S'builtinSyntaxError'
p158
S"<type 'exceptions.SyntaxError'>"
p159
sS'key'
p160
S"'event_code'"
p161
ssg82
I584
sg83
(dp162
I579
S'                else:'
p163
sI580
S'                    self._virtual_methods.append(value)'
p164
sI581
S''
sI582
S'    def __setattr__(self, key, value):'
p165
sI583
S"        if key[:1] != '_' and key in self:"
p166
sI584
S"            raise SyntaxError('Object exists and cannot be redefined: %s' % key)"
p167
sI585
S'        self[key] = value'
p168
sI586
S''
sI587
S'    def __delitem__(self, key):'
p169
sI588
S'        if isinstance(key, dict):'
p170
ssg95
S"(self=<Table event (id, event_name, event_id, event_de...nt_sdate, event_edate, event_stime, event_etime)>, key='event_code', value='P5cPR')"
p171
sg97
g26
sasS'pyver'
p172
S'Python 2.7.9: C:\\Users\\Wesly\\Desktop\\UCSC-Hack-2017\\web2py.exe (prefix: )'
p173
sS'session'
p174
g69
(S's6\x01\x00\x00<div><table><tr><td style="font-weight:bold;vertical-align:top;">last_orderby</td><td style="vertical-align:top;">:</td><td><div>None</div></td></tr><tr><td style="font-weight:bold;vertical-align:top;">last_query</td><td style="vertical-align:top;">:</td><td><div>db.event.id&gt;0</div></td></tr></table></div>'
tRp175
sS'etype'
p176
S"<type 'exceptions.SyntaxError'>"
p177
sS'date'
p178
S'Sat Jan 21 14:17:55 2017'
p179
sS'response'
p180
g69
(S's\xc1\x16\x00\x00<div><table><tr><td style="font-weight:bold;vertical-align:top;">body</td><td style="vertical-align:top;">:</td><td><div>&lt;cStringIO.StringO object at 0x07D5CEA0&gt;</div></td></tr><tr><td style="font-weight:bold;vertical-align:top;">cookies</td><td style="vertical-align:top;">:</td><td><div><table><tr><td style="font-weight:bold;vertical-align:top;">session_id_ourhours</td><td style="vertical-align:top;">:</td><td><div>127.0.0.1-7b1503f3-eec1-4dea-998c-d278f515f7e1<table><tr><td style="font-weight:bold;vertical-align:top;">comment</td><td style="vertical-align:top;">:</td><td><div></div></td></tr><tr><td style="font-weight:bold;vertical-align:top;">domain</td><td style="vertical-align:top;">:</td><td><div></div></td></tr><tr><td style="font-weight:bold;vertical-align:top;">expires</td><td style="vertical-align:top;">:</td><td><div></div></td></tr><tr><td style="font-weight:bold;vertical-align:top;">httponly</td><td style="vertical-align:top;">:</td><td><div></div></td></tr><tr><td style="font-weight:bold;vertical-align:top;">max-age</td><td style="vertical-align:top;">:</td><td><div></div></td></tr><tr><td style="font-weight:bold;vertical-align:top;">path</td><td style="vertical-align:top;">:</td><td><div>/</div></td></tr><tr><td style="font-weight:bold;vertical-align:top;">secure</td><td style="vertical-align:top;">:</td><td><div></div></td></tr><tr><td style="font-weight:bold;vertical-align:top;">version</td><td style="vertical-align:top;">:</td><td><div></div></td></tr></table></div></td></tr></table></div></td></tr><tr><td style="font-weight:bold;vertical-align:top;">delimiters</td><td style="vertical-align:top;">:</td><td><div><table><tr><td><div>{{</div></td></tr><tr><td><div>}}</div></td></tr></table></div></td></tr><tr><td style="font-weight:bold;vertical-align:top;">files</td><td style="vertical-align:top;">:</td><td><div><table></table></div></td></tr><tr><td style="font-weight:bold;vertical-align:top;">flash</td><td style="vertical-align:top;">:</td><td><div></div></td></tr><tr><td style="font-weight:bold;vertical-align:top;">form_label_separator</td><td style="vertical-align:top;">:</td><td><div>: </div></td></tr><tr><td style="font-weight:bold;vertical-align:top;">formstyle</td><td style="vertical-align:top;">:</td><td><div>table3cols</div></td></tr><tr><td style="font-weight:bold;vertical-align:top;">generic_patterns</td><td style="vertical-align:top;">:</td><td><div><table><tr><td><div>*</div></td></tr></table></div></td></tr><tr><td style="font-weight:bold;vertical-align:top;">headers</td><td style="vertical-align:top;">:</td><td><div><table><tr><td style="font-weight:bold;vertical-align:top;">X-Powered-By</td><td style="vertical-align:top;">:</td><td><div>web2py</div></td></tr></table></div></td></tr><tr><td style="font-weight:bold;vertical-align:top;">menu</td><td style="vertical-align:top;">:</td><td><div><table><tr><td><div><table><tr><td><div>Home</div></td></tr><tr><td><div>False</div></td></tr><tr><td><div>/ourhours/default/index</div></td></tr></table></div></td></tr></table></div></td></tr><tr><td style="font-weight:bold;vertical-align:top;">meta</td><td style="vertical-align:top;">:</td><td><div><table></table></div></td></tr><tr><td style="font-weight:bold;vertical-align:top;">models_to_run</td><td style="vertical-align:top;">:</td><td><div><table><tr><td><div>^\\w+\\.py$</div></td></tr><tr><td><div>^default/\\w+\\.py$</div></td></tr><tr><td><div>^default/event_page/\\w+\\.py$</div></td></tr></table></div></td></tr><tr><td style="font-weight:bold;vertical-align:top;">postprocessing</td><td style="vertical-align:top;">:</td><td><div><table></table></div></td></tr><tr><td style="font-weight:bold;vertical-align:top;">session_client</td><td style="vertical-align:top;">:</td><td><div>127.0.0.1</div></td></tr><tr><td style="font-weight:bold;vertical-align:top;">session_cookie_compression_level</td><td style="vertical-align:top;">:</td><td><div>None</div></td></tr><tr><td style="font-weight:bold;vertical-align:top;">session_cookie_expires</td><td style="vertical-align:top;">:</td><td><div>None</div></td></tr><tr><td style="font-weight:bold;vertical-align:top;">session_data_name</td><td style="vertical-align:top;">:</td><td><div>session_data_ourhours</div></td></tr><tr><td style="font-weight:bold;vertical-align:top;">session_file</td><td style="vertical-align:top;">:</td><td><div>None</div></td></tr><tr><td style="font-weight:bold;vertical-align:top;">session_filename</td><td style="vertical-align:top;">:</td><td><div>C:\\Users\\Wesly\\Desktop\\UCSC-Hack-2017\\applications\\ourhours\\sessions\\127.0.0.1-7b1503f3-eec1-4dea-998c-d278f515f7e1</div></td></tr><tr><td style="font-weight:bold;vertical-align:top;">session_hash</td><td style="vertical-align:top;">:</td><td><div>4485a82dccef708fc96b93212cf14c30</div></td></tr><tr><td style="font-weight:bold;vertical-align:top;">session_id</td><td style="vertical-align:top;">:</td><td><div>True</div></td></tr><tr><td style="font-weight:bold;vertical-align:top;">session_id_name</td><td style="vertical-align:top;">:</td><td><div>session_id_ourhours</div></td></tr><tr><td style="font-weight:bold;vertical-align:top;">session_masterapp</td><td style="vertical-align:top;">:</td><td><div>ourhours</div></td></tr><tr><td style="font-weight:bold;vertical-align:top;">session_new</td><td style="vertical-align:top;">:</td><td><div>True</div></td></tr><tr><td style="font-weight:bold;vertical-align:top;">session_storage_type</td><td style="vertical-align:top;">:</td><td><div>cookie</div></td></tr><tr><td style="font-weight:bold;vertical-align:top;">status</td><td style="vertical-align:top;">:</td><td><div>200</div></td></tr><tr><td style="font-weight:bold;vertical-align:top;">view</td><td style="vertical-align:top;">:</td><td><div>default/event_page.html</div></td></tr></table></div>'
tRp181
sS'locals'
p182
(dp183
S'self'
p184
S'<Table event (id, event_name, event_id, event_de...nt_sdate, event_edate, event_stime, event_etime)>'
p185
sS'value'
p186
S"'P5cPR'"
p187
sS'key'
p188
S"'event_code'"
p189
sssS'traceback'
p190
S'Traceback (most recent call last):\n  File "C:\\Users\\Wesly\\Desktop\\UCSC-Hack-2017\\gluon\\restricted.py", line 227, in restricted\n    exec ccode in environment\n  File "C:\\Users\\Wesly\\Desktop\\UCSC-Hack-2017\\applications\\ourhours\\controllers/default.py", line 47, in <module>\n  File "C:\\Users\\Wesly\\Desktop\\UCSC-Hack-2017\\gluon\\globals.py", line 417, in <lambda>\n    self._caller = lambda f: f()\n  File "C:\\Users\\Wesly\\Desktop\\UCSC-Hack-2017\\applications\\ourhours\\controllers/default.py", line 34, in event_page\n    db.event.event_code = g.group_code\n  File "C:\\Users\\Wesly\\Desktop\\UCSC-Hack-2017\\gluon\\packages\\dal\\pydal\\objects.py", line 584, in __setattr__\n    raise SyntaxError(\'Object exists and cannot be redefined: %s\' % key)\nSyntaxError: Object exists and cannot be redefined: event_code\n'
p191
s.