(dp1
S'output'
p2
S"<type 'exceptions.NameError'> name 'mail' is not defined"
p3
sS'layer'
p4
S'C:\\Users\\Wesly\\Desktop\\UCSC-Hack-2017\\applications\\ourhours\\controllers/default.py'
p5
sS'code'
p6
S'from gluon.tools import Mail\nimport imaplib\nimport email\nfrom email.header import decode_header\n\nmail.settings.server = \'smtp.gmail.com:587\'\nmail.settings.sender = \'ourhours1337@gmail.com\'\nmail.settings.login = \'ourhours1337@gmail.com:weslysmellsgood\'\n\nimport random\nimport string\n\n\ndef index():\n    groups = db(db.groups).select(db.groups.ALL)\n    return locals()\n\n\ndef create():\n    form = SQLFORM(db.groups, deletable=True).process()\n    if form.accepted:\n        mail.send(to=[request.vars.email],\n            subject="Password for " + request.vars.group_name,\n            message= request.vars.group_code)\n        redirect(URL(\'index\'))\n    return locals()\n\ndef join():\n    groups = db(db.groups).select(db.groups.ALL)\n    form = SQLFORM(db.join_group, deletable=True).process()\n    if form.accepted:\n        for groups in groups:\n            if request.vars.join_code in groups.group_code:\n                redirect(URL(\'event_page\', args=groups.id))\n            else:\n                response.flash = "Incorrect join code"\n    return locals()\n\ndef ecreate():\n    form = SQLFORM(db.event, deletable=True).process()\n    if form.accepted:\n        redirect(URL(\'index\'))\n    return locals()\n\nimport json\nfrom datetime import datetime\nfrom json import dumps\n\ndef event_page():\n    #currently faulty, returns all events\n    g = db.groups(request.args(0,cast=int)) or redirect(URL(\'index\'))\n    db.event.event_id.default = g.id\n    db.event.event_code.default = g.group_code\n    event = db(db.event).select(db.event.ALL)\n    json_data = json.dumps([[e.event_allDay, e.event_name, e.event_id, e.start.strftime("%B %d, %Y"), e.end.strftime("%B %d, %Y"), e.event_description] for e in event])\n    response.flash = json_data\n\n    return locals()\n\ndef user():\n    return dict(form=auth())\n\ndef download():\n    return response.download(request, db)\n\ndef picture():\n    return response.view(request, db)\nresponse._vars=response._caller(create)\n'
p7
sS'snapshot'
p8
(dp9
S'exception'
p10
(dp11
S'__hash__'
p12
S"<method-wrapper '__hash__' of exceptions.NameError object>"
p13
sS'__setattr__'
p14
S"<method-wrapper '__setattr__' of exceptions.NameError object>"
p15
sS'__reduce_ex__'
p16
S'<built-in method __reduce_ex__ of exceptions.NameError object>'
p17
sS'__getslice__'
p18
S"<method-wrapper '__getslice__' of exceptions.NameError object>"
p19
sS'__getitem__'
p20
S"<method-wrapper '__getitem__' of exceptions.NameError object>"
p21
sS'__setstate__'
p22
S'<built-in method __setstate__ of exceptions.NameError object>'
p23
sS'__reduce__'
p24
S'<built-in method __reduce__ of exceptions.NameError object>'
p25
sS'__str__'
p26
S"<method-wrapper '__str__' of exceptions.NameError object>"
p27
sS'__format__'
p28
S'<built-in method __format__ of exceptions.NameError object>'
p29
sS'__getattribute__'
p30
S"<method-wrapper '__getattribute__' of exceptions.NameError object>"
p31
sS'__class__'
p32
S"<type 'exceptions.NameError'>"
p33
sS'__unicode__'
p34
S'<built-in method __unicode__ of exceptions.NameError object>'
p35
sS'__delattr__'
p36
S"<method-wrapper '__delattr__' of exceptions.NameError object>"
p37
sS'__subclasshook__'
p38
S'<built-in method __subclasshook__ of type object>'
p39
sS'__repr__'
p40
S"<method-wrapper '__repr__' of exceptions.NameError object>"
p41
sS'args'
p42
S'("name \'mail\' is not defined",)'
p43
sS'__dict__'
p44
S'{}'
p45
sS'__sizeof__'
p46
S'<built-in method __sizeof__ of exceptions.NameError object>'
p47
sS'__doc__'
p48
S"'Name not found globally.'"
p49
sS'__init__'
p50
S"<method-wrapper '__init__' of exceptions.NameError object>"
p51
sS'__new__'
p52
S'<built-in method __new__ of type object>'
p53
ssS'evalue'
p54
S"name 'mail' is not defined"
p55
sS'request'
p56
cgluon.html
XML_unpickle
p57
(S's@\xa3\x00\x00<div><table><tr><td style="font-weight:bold;vertical-align:top;">ajax</td><td style="vertical-align:top;">:</td><td><div>False</div></td></tr><tr><td style="font-weight:bold;vertical-align:top;">application</td><td style="vertical-align:top;">:</td><td><div>ourhours</div></td></tr><tr><td style="font-weight:bold;vertical-align:top;">args</td><td style="vertical-align:top;">:</td><td><div><table></table></div></td></tr><tr><td style="font-weight:bold;vertical-align:top;">cid</td><td style="vertical-align:top;">:</td><td><div>None</div></td></tr><tr><td style="font-weight:bold;vertical-align:top;">client</td><td style="vertical-align:top;">:</td><td><div>127.0.0.1</div></td></tr><tr><td style="font-weight:bold;vertical-align:top;">controller</td><td style="vertical-align:top;">:</td><td><div>default</div></td></tr><tr><td style="font-weight:bold;vertical-align:top;">cookies</td><td style="vertical-align:top;">:</td><td><div><table><tr><td style="font-weight:bold;vertical-align:top;">resolution</td><td style="vertical-align:top;">:</td><td><div>1349<table><tr><td style="font-weight:bold;vertical-align:top;">comment</td><td style="vertical-align:top;">:</td><td><div></div></td></tr><tr><td style="font-weight:bold;vertical-align:top;">domain</td><td style="vertical-align:top;">:</td><td><div></div></td></tr><tr><td style="font-weight:bold;vertical-align:top;">expires</td><td style="vertical-align:top;">:</td><td><div></div></td></tr><tr><td style="font-weight:bold;vertical-align:top;">httponly</td><td style="vertical-align:top;">:</td><td><div></div></td></tr><tr><td style="font-weight:bold;vertical-align:top;">max-age</td><td style="vertical-align:top;">:</td><td><div></div></td></tr><tr><td style="font-weight:bold;vertical-align:top;">path</td><td style="vertical-align:top;">:</td><td><div></div></td></tr><tr><td style="font-weight:bold;vertical-align:top;">secure</td><td style="vertical-align:top;">:</td><td><div></div></td></tr><tr><td style="font-weight:bold;vertical-align:top;">version</td><td style="vertical-align:top;">:</td><td><div></div></td></tr></table></div></td></tr><tr><td style="font-weight:bold;vertical-align:top;">session_data_ourhours</td><td style="vertical-align:top;">:</td><td><div>8f9a7a4bfbfae46e30e315c0a8a64a6a:L6V3cYvWch5lxISGiDCSYUbE45sDW7z5-lldnAoUszblKSLlx8Lo1StrbDQmqOHBkDfsuegeMgqFyz4Q6eRUCZa32__OSI54aBVS4bt0Bk9BiDdFJ_pgzvUeJvZhXRk9ZT4nlxhibb3f6XlcED9aFK4A0kjCKU8F2ncrmvvVz0575oC_MAnF_YIYnBwez8z8AsiJzASjMlQ_fAZhfx-2LPYEtER9qPDxa9vhcPUI_Yny1PdTC76JU40eVTd34QMX1ahjuKgmDmjveEHb61FLVcubIm24ERpVfljxzlaSVz0vOWL3hzQIHWTpJ_ZmofIHDM41qKtkj9NI4TA5Q6ZGvZ2_Lj4Pw0eTZ-94EDPGinjiVb3zx1GmmUAgEdihKVAljRQbOIVaBOs7SP8ci4GBdgtraIRcDtIG_0hDWDX9BA0J7NqJQW4_aCC_7FXdlLP-RN63-hHiyICmGHijlbDMWHKE4DaK91r1bhCS-5_z9NhZ01fIwLfl2KRI0gJWGY4gfNhODrSZNbziBkM7I9eu3f4JS8KI9gsGD-LtT4qQbdegk61RAN-cNgcql5IVh0fzyCzEhUFQLn3Fz1oc9DUcrwxMkwNdaGM5kDikrRUfnCSpX3_7X16HY_zuhIT_EWWtLxG1VhyFTZXXSeEkzrVdCOebXLpdVLEOVjgAHwVvf0uAdUCEB5j_4GzW9j-kkLBCGJpFa0Qe5VWCmgeF5QxBQEAo-ikDe9af-q5MxflU9VgIAKVlAWjuURFmitOTmkaBLWLf5OKP_SdgmeJer632tMRYUCQp980RP-OMGT2B_zt0Qr4LDUA9FDknm3tgw9rZ5C4jbLJgnxOEMH_wwekM_JAcbWuOPJB0lXJq5WaiknRwoFw5PzcquPcENQB4EYehom6cFh-9Oa_cqpwI8Da5kX5IXU6TlTh0WxBK7tHYmTyBEnGCmC83qAcr2GGeMzyqorSoabIvSQo1amSldVpKsWYM02VUWUI2W3M09im29OQO9smPjNt40d8EvqOKHSZpr9rv0WI_itHljMuZyYYR4ir-M9BL8VByvw3wPfdi_VhT96fB7fQd7_ZzGQN5PZDffYQsIhnuwToop7YIb54iXhLyWRLq0ddHCYoV0DfF0SRiArXIG_Nzjz_T0L57o_58BlZ0CWbrdaX1PAKRZa52Qt-MJIrIUvYwpE9b_siFcmK1UnW9ucoyWUfJLkdtksuVtG-yyTWaDV77CIyNV0ckb6vhxs_kTYZoIjiYhv4TqaiWWi58H9aBPeN5dspeLWpuWiXsTngxRqHGXPYOSGIKJuoslAeV4zefEFxOwrki-Q4dqmy9cXiqjFBWw6Bvb4w2-mKo_YeSf5aVOcaDzRz4nS6ENRTuPD9DUFzOQHi_JeTrDlB7-4KmaESo0q8PnAeIbS6-nxd7BaKnLZ8AA63liCRqGQ9Y6uQjwtPzmxBUSZnjDGIczeXp-C9V7mkdUu5JTOv3kgKOb5RmPlRB-Fv4iyFdDSfzhY8Ves5S4h-aML7aKxQ0qJ8ubTX3_RO5Wojr4jiB1RV3DBtGFkp7P5jopu8UsbMJtx6SZ5rEqeemHjGxJ-88xqs0M_Wzx4l_CGBs_BKoGrc8ThsbriCtum802fIARm0XRRvUhpjxJvV5chJdD4_ZzWC--GvOxKrSN8Vya2479Nj4viF3UXvSLWZp8C01O1XME68wotptolgBWasNlyO76DqhmdIulK9-YfzJAgyTwT3bGA7r8v2ggOlo0JDDplXOtAuu9sFThKvAk4Cm0yScQjb32dqMP2RcoRZSHSIT_ZVGM7gp7pJmVQRlttZnuZLN5kEtdsXL9jdnucY1MMAzZywV85UhZYXC7tWX45bBFP8TX9UO5S4UaAE9BNX4gCz-qZ3YKB8vqqgpzK8uEdmZHCI31u8KbKdxvackMJ1fWGIXOpxU9hVLgiG9hbz4fCVte7poHPKKnCda5luCsw0kb2WtCgCoQxzttOjXnlvifXDUPQXcA8Dkc9KnWCPKw217eku7bCNuVNjqpt15VxQSa5Wrll9qiBC2DXgcO-D1GTK-XT5JHfTNe0ecF4z_oIsDxVLzgcl23KgFkgjOKVp6jRnsYl0GNWu6mmUTYh76trQTNFcDyIhuYCrXjUwKT9tR09aPJvSpiUGd9hRJcZoKCOZagnkhOWpkuCXXrFFcqql8vbaAyhY6kAeqUZ_h7nIIBcgRvEYc1vMTtxKSNniypXWkP6eQU6DOTRi_ovADb_mr5uWr8LPcroLmbqw938kUfzgZMyzduwIpdShIZKSf6uHVGbqXSW_5iyQ__D2CBLHCDtSu-JbOXYJ_pIneFPdy0c9ejQVWHBYhha0CFehXgXp2yGyT4ggiPpUUNPsLa0rQ0BgQ_i4f6Ertyk2TZbrwlH3QaXJLQvDbQkFzX6JTxmOWDbwRmVz9SZNoYaVshmizMyH1FB8LSPJ3t963gvccTWGZsHFCkiHzZToqbaEKJ4zM3Dr6eB59RvgngXdxAEiEHJ4CAde1uq6Hfl03XEfUAqeqbjhzTCo488_dBcRYusvHK_C-gVykahVaks-yqQv2q0sIIs9Ijr2ilT0yAZTtkMNv3OMY5lvbjpe0Kf9nrKh2rwhttrulmKsKFgyAp_gofxdgDBxB4kv8BnxvPuNPfSAwR8zWfKoxa8rP-78_ekgGhoGUUI70OVB_fn-ig3IwpUII92H_Qlc4M4UaCAdqAIA2yHuVQs2aw0ZX5xcH-gQuXBtBRx5LLYc-NncicVc8BlbKOC7B5dNlOOQXLwr1FwCyj_apy1pjr6qt6Hiy9n_3bJEgEGxynoYChu3Wo4qJFjz6fceMHFI3P_w0TihPbwLJvM55_HtE2JDj8oxkGo1_A_xBVp2hHb-EzDBR8HQwsQAwKa9BA1GXD2RyrG5wmoo4OY72AJmC0IZ-w-iyUQSyBKniIfjP-xOiT5ynIpH4qAsEc-p2WQddOVzM_5xjDh1jiI8s4fnk5Zptc1MCZAvhMGujE4zHbfhRrqUXf6DpRDEO2sfiRNRcbTI_9G2RU61vf4coTQsmWjTI6oCCiHEr2qnXBmIo_hKVKTeNLcq-7arl2zQQNtrRONpQzqHAYJo1qyx5PrYrYRqrl33l50nabFKQABAqeXAENgFkF2FBCrxRmhOs6V9hoR-7weUyANFt8dsYDcHxd4Zew_NpVc3xkxZA-xDMwqY5th0fQLjeie_upGNuMdsYm4hiDs3t_HeDGCgT76rUm0P-ina_2vJG4Ghit7PaVABLvn5ZrzVcdPpUAUnfEOPj71oT0TNscTspU_rdolSTxrPGxdpa4jThn191sLhplRjK-GI8bHT41WA8ERiJJfdx9BrwC1MdJB9UXTctA-cShSMl4DAXh0rUqNup0NpDXCuWeqx5z5AZgb8ks_ZJwhblE_Rw4MVeXUCs42rYb1rJm_fKSPc5LTD_l9GK-u4nZYdsb8NWP9vyvFdt2iwT5e4-BxTxSixEmcVuXjO8jnYk9Det6VLEJ930zqhbNJangXS6sE6sV4SxefyEMTxPfPZxSI2013yU_iIFR-2TKvwD7SDUcYADZwijYDJHjCE-Bom4koVxyCNz-hr7U-UNZEHJvLSXNmZwuisU2UP594pDkso0voWrPyIkSagwEj_zqSKBEoUcbx1HNrd1wLqDgIKAFpEuI8ejC-ku5RmrPnX7w5E=<table><tr><td style="font-weight:bold;vertical-align:top;">comment</td><td style="vertical-align:top;">:</td><td><div></div></td></tr><tr><td style="font-weight:bold;vertical-align:top;">domain</td><td style="vertical-align:top;">:</td><td><div></div></td></tr><tr><td style="font-weight:bold;vertical-align:top;">expires</td><td style="vertical-align:top;">:</td><td><div></div></td></tr><tr><td style="font-weight:bold;vertical-align:top;">httponly</td><td style="vertical-align:top;">:</td><td><div></div></td></tr><tr><td style="font-weight:bold;vertical-align:top;">max-age</td><td style="vertical-align:top;">:</td><td><div></div></td></tr><tr><td style="font-weight:bold;vertical-align:top;">path</td><td style="vertical-align:top;">:</td><td><div></div></td></tr><tr><td style="font-weight:bold;vertical-align:top;">secure</td><td style="vertical-align:top;">:</td><td><div></div></td></tr><tr><td style="font-weight:bold;vertical-align:top;">version</td><td style="vertical-align:top;">:</td><td><div></div></td></tr></table></div></td></tr><tr><td style="font-weight:bold;vertical-align:top;">session_id_admin</td><td style="vertical-align:top;">:</td><td><div>127.0.0.1-5e4d5587-8e46-4ab9-bda4-cde90ee24cff<table><tr><td style="font-weight:bold;vertical-align:top;">comment</td><td style="vertical-align:top;">:</td><td><div></div></td></tr><tr><td style="font-weight:bold;vertical-align:top;">domain</td><td style="vertical-align:top;">:</td><td><div></div></td></tr><tr><td style="font-weight:bold;vertical-align:top;">expires</td><td style="vertical-align:top;">:</td><td><div></div></td></tr><tr><td style="font-weight:bold;vertical-align:top;">httponly</td><td style="vertical-align:top;">:</td><td><div></div></td></tr><tr><td style="font-weight:bold;vertical-align:top;">max-age</td><td style="vertical-align:top;">:</td><td><div></div></td></tr><tr><td style="font-weight:bold;vertical-align:top;">path</td><td style="vertical-align:top;">:</td><td><div></div></td></tr><tr><td style="font-weight:bold;vertical-align:top;">secure</td><td style="vertical-align:top;">:</td><td><div></div></td></tr><tr><td style="font-weight:bold;vertical-align:top;">version</td><td style="vertical-align:top;">:</td><td><div></div></td></tr></table></div></td></tr><tr><td style="font-weight:bold;vertical-align:top;">session_id_hackathon</td><td style="vertical-align:top;">:</td><td><div>127.0.0.1-e9d19e57-2c82-4246-95e2-3afb87897355<table><tr><td style="font-weight:bold;vertical-align:top;">comment</td><td style="vertical-align:top;">:</td><td><div></div></td></tr><tr><td style="font-weight:bold;vertical-align:top;">domain</td><td style="vertical-align:top;">:</td><td><div></div></td></tr><tr><td style="font-weight:bold;vertical-align:top;">expires</td><td style="vertical-align:top;">:</td><td><div></div></td></tr><tr><td style="font-weight:bold;vertical-align:top;">httponly</td><td style="vertical-align:top;">:</td><td><div></div></td></tr><tr><td style="font-weight:bold;vertical-align:top;">max-age</td><td style="vertical-align:top;">:</td><td><div></div></td></tr><tr><td style="font-weight:bold;vertical-align:top;">path</td><td style="vertical-align:top;">:</td><td><div></div></td></tr><tr><td style="font-weight:bold;vertical-align:top;">secure</td><td style="vertical-align:top;">:</td><td><div></div></td></tr><tr><td style="font-weight:bold;vertical-align:top;">version</td><td style="vertical-align:top;">:</td><td><div></div></td></tr></table></div></td></tr><tr><td style="font-weight:bold;vertical-align:top;">session_id_hw</td><td style="vertical-align:top;">:</td><td><div>127.0.0.1-23223d0c-fdad-4421-b0fa-bfb22452a98b<table><tr><td style="font-weight:bold;vertical-align:top;">comment</td><td style="vertical-align:top;">:</td><td><div></div></td></tr><tr><td style="font-weight:bold;vertical-align:top;">domain</td><td style="vertical-align:top;">:</td><td><div></div></td></tr><tr><td style="font-weight:bold;vertical-align:top;">expires</td><td style="vertical-align:top;">:</td><td><div></div></td></tr><tr><td style="font-weight:bold;vertical-align:top;">httponly</td><td style="vertical-align:top;">:</td><td><div></div></td></tr><tr><td style="font-weight:bold;vertical-align:top;">max-age</td><td style="vertical-align:top;">:</td><td><div></div></td></tr><tr><td style="font-weight:bold;vertical-align:top;">path</td><td style="vertical-align:top;">:</td><td><div></div></td></tr><tr><td style="font-weight:bold;vertical-align:top;">secure</td><td style="vertical-align:top;">:</td><td><div></div></td></tr><tr><td style="font-weight:bold;vertical-align:top;">version</td><td style="vertical-align:top;">:</td><td><div></div></td></tr></table></div></td></tr><tr><td style="font-weight:bold;vertical-align:top;">session_id_layouttest</td><td style="vertical-align:top;">:</td><td><div>127.0.0.1-9dd550cb-7d25-4599-add6-bbf406414416<table><tr><td style="font-weight:bold;vertical-align:top;">comment</td><td style="vertical-align:top;">:</td><td><div></div></td></tr><tr><td style="font-weight:bold;vertical-align:top;">domain</td><td style="vertical-align:top;">:</td><td><div></div></td></tr><tr><td style="font-weight:bold;vertical-align:top;">expires</td><td style="vertical-align:top;">:</td><td><div></div></td></tr><tr><td style="font-weight:bold;vertical-align:top;">httponly</td><td style="vertical-align:top;">:</td><td><div></div></td></tr><tr><td style="font-weight:bold;vertical-align:top;">max-age</td><td style="vertical-align:top;">:</td><td><div></div></td></tr><tr><td style="font-weight:bold;vertical-align:top;">path</td><td style="vertical-align:top;">:</td><td><div></div></td></tr><tr><td style="font-weight:bold;vertical-align:top;">secure</td><td style="vertical-align:top;">:</td><td><div></div></td></tr><tr><td style="font-weight:bold;vertical-align:top;">version</td><td style="vertical-align:top;">:</td><td><div></div></td></tr></table></div></td></tr><tr><td style="font-weight:bold;vertical-align:top;">session_id_ourhours</td><td style="vertical-align:top;">:</td><td><div>True<table><tr><td style="font-weight:bold;vertical-align:top;">comment</td><td style="vertical-align:top;">:</td><td><div></div></td></tr><tr><td style="font-weight:bold;vertical-align:top;">domain</td><td style="vertical-align:top;">:</td><td><div></div></td></tr><tr><td style="font-weight:bold;vertical-align:top;">expires</td><td style="vertical-align:top;">:</td><td><div></div></td></tr><tr><td style="font-weight:bold;vertical-align:top;">httponly</td><td style="vertical-align:top;">:</td><td><div></div></td></tr><tr><td style="font-weight:bold;vertical-align:top;">max-age</td><td style="vertical-align:top;">:</td><td><div></div></td></tr><tr><td style="font-weight:bold;vertical-align:top;">path</td><td style="vertical-align:top;">:</td><td><div></div></td></tr><tr><td style="font-weight:bold;vertical-align:top;">secure</td><td style="vertical-align:top;">:</td><td><div></div></td></tr><tr><td style="font-weight:bold;vertical-align:top;">version</td><td style="vertical-align:top;">:</td><td><div></div></td></tr></table></div></td></tr><tr><td style="font-weight:bold;vertical-align:top;">session_id_welcome</td><td style="vertical-align:top;">:</td><td><div>127.0.0.1-3404b542-72e6-426d-9bd7-f225ed0f1803<table><tr><td style="font-weight:bold;vertical-align:top;">comment</td><td style="vertical-align:top;">:</td><td><div></div></td></tr><tr><td style="font-weight:bold;vertical-align:top;">domain</td><td style="vertical-align:top;">:</td><td><div></div></td></tr><tr><td style="font-weight:bold;vertical-align:top;">expires</td><td style="vertical-align:top;">:</td><td><div></div></td></tr><tr><td style="font-weight:bold;vertical-align:top;">httponly</td><td style="vertical-align:top;">:</td><td><div></div></td></tr><tr><td style="font-weight:bold;vertical-align:top;">max-age</td><td style="vertical-align:top;">:</td><td><div></div></td></tr><tr><td style="font-weight:bold;vertical-align:top;">path</td><td style="vertical-align:top;">:</td><td><div></div></td></tr><tr><td style="font-weight:bold;vertical-align:top;">secure</td><td style="vertical-align:top;">:</td><td><div></div></td></tr><tr><td style="font-weight:bold;vertical-align:top;">version</td><td style="vertical-align:top;">:</td><td><div></div></td></tr></table></div></td></tr></table></div></td></tr><tr><td style="font-weight:bold;vertical-align:top;">env</td><td style="vertical-align:top;">:</td><td><div><table><tr><td style="font-weight:bold;vertical-align:top;">HTTP_ACCEPT</td><td style="vertical-align:top;">:</td><td><div>text/html,application/xhtml+xml,application/xml;q=0.9,image/webp,*/*;q=0.8</div></td></tr><tr><td style="font-weight:bold;vertical-align:top;">HTTP_ACCEPT_ENCODING</td><td style="vertical-align:top;">:</td><td><div>gzip, deflate, sdch, br</div></td></tr><tr><td style="font-weight:bold;vertical-align:top;">HTTP_ACCEPT_LANGUAGE</td><td style="vertical-align:top;">:</td><td><div>en-US,en;q=0.8</div></td></tr><tr><td style="font-weight:bold;vertical-align:top;">HTTP_CONNECTION</td><td style="vertical-align:top;">:</td><td><div>keep-alive</div></td></tr><tr><td style="font-weight:bold;vertical-align:top;">HTTP_COOKIE</td><td style="vertical-align:top;">:</td><td><div>session_id_layouttest=127.0.0.1-9dd550cb-7d25-4599-add6-bbf406414416; resolution=1349; session_id_hackathon=127.0.0.1-e9d19e57-2c82-4246-95e2-3afb87897355; session_id_hw=127.0.0.1-23223d0c-fdad-4421-b0fa-bfb22452a98b; session_id_welcome=127.0.0.1-3404b542-72e6-426d-9bd7-f225ed0f1803; session_id_admin=127.0.0.1-5e4d5587-8e46-4ab9-bda4-cde90ee24cff; session_data_ourhours=&quot;8f9a7a4bfbfae46e30e315c0a8a64a6a:L6V3cYvWch5lxISGiDCSYUbE45sDW7z5-lldnAoUszblKSLlx8Lo1StrbDQmqOHBkDfsuegeMgqFyz4Q6eRUCZa32__OSI54aBVS4bt0Bk9BiDdFJ_pgzvUeJvZhXRk9ZT4nlxhibb3f6XlcED9aFK4A0kjCKU8F2ncrmvvVz0575oC_MAnF_YIYnBwez8z8AsiJzASjMlQ_fAZhfx-2LPYEtER9qPDxa9vhcPUI_Yny1PdTC76JU40eVTd34QMX1ahjuKgmDmjveEHb61FLVcubIm24ERpVfljxzlaSVz0vOWL3hzQIHWTpJ_ZmofIHDM41qKtkj9NI4TA5Q6ZGvZ2_Lj4Pw0eTZ-94EDPGinjiVb3zx1GmmUAgEdihKVAljRQbOIVaBOs7SP8ci4GBdgtraIRcDtIG_0hDWDX9BA0J7NqJQW4_aCC_7FXdlLP-RN63-hHiyICmGHijlbDMWHKE4DaK91r1bhCS-5_z9NhZ01fIwLfl2KRI0gJWGY4gfNhODrSZNbziBkM7I9eu3f4JS8KI9gsGD-LtT4qQbdegk61RAN-cNgcql5IVh0fzyCzEhUFQLn3Fz1oc9DUcrwxMkwNdaGM5kDikrRUfnCSpX3_7X16HY_zuhIT_EWWtLxG1VhyFTZXXSeEkzrVdCOebXLpdVLEOVjgAHwVvf0uAdUCEB5j_4GzW9j-kkLBCGJpFa0Qe5VWCmgeF5QxBQEAo-ikDe9af-q5MxflU9VgIAKVlAWjuURFmitOTmkaBLWLf5OKP_SdgmeJer632tMRYUCQp980RP-OMGT2B_zt0Qr4LDUA9FDknm3tgw9rZ5C4jbLJgnxOEMH_wwekM_JAcbWuOPJB0lXJq5WaiknRwoFw5PzcquPcENQB4EYehom6cFh-9Oa_cqpwI8Da5kX5IXU6TlTh0WxBK7tHYmTyBEnGCmC83qAcr2GGeMzyqorSoabIvSQo1amSldVpKsWYM02VUWUI2W3M09im29OQO9smPjNt40d8EvqOKHSZpr9rv0WI_itHljMuZyYYR4ir-M9BL8VByvw3wPfdi_VhT96fB7fQd7_ZzGQN5PZDffYQsIhnuwToop7YIb54iXhLyWRLq0ddHCYoV0DfF0SRiArXIG_Nzjz_T0L57o_58BlZ0CWbrdaX1PAKRZa52Qt-MJIrIUvYwpE9b_siFcmK1UnW9ucoyWUfJLkdtksuVtG-yyTWaDV77CIyNV0ckb6vhxs_kTYZoIjiYhv4TqaiWWi58H9aBPeN5dspeLWpuWiXsTngxRqHGXPYOSGIKJuoslAeV4zefEFxOwrki-Q4dqmy9cXiqjFBWw6Bvb4w2-mKo_YeSf5aVOcaDzRz4nS6ENRTuPD9DUFzOQHi_JeTrDlB7-4KmaESo0q8PnAeIbS6-nxd7BaKnLZ8AA63liCRqGQ9Y6uQjwtPzmxBUSZnjDGIczeXp-C9V7mkdUu5JTOv3kgKOb5RmPlRB-Fv4iyFdDSfzhY8Ves5S4h-aML7aKxQ0qJ8ubTX3_RO5Wojr4jiB1RV3DBtGFkp7P5jopu8UsbMJtx6SZ5rEqeemHjGxJ-88xqs0M_Wzx4l_CGBs_BKoGrc8ThsbriCtum802fIARm0XRRvUhpjxJvV5chJdD4_ZzWC--GvOxKrSN8Vya2479Nj4viF3UXvSLWZp8C01O1XME68wotptolgBWasNlyO76DqhmdIulK9-YfzJAgyTwT3bGA7r8v2ggOlo0JDDplXOtAuu9sFThKvAk4Cm0yScQjb32dqMP2RcoRZSHSIT_ZVGM7gp7pJmVQRlttZnuZLN5kEtdsXL9jdnucY1MMAzZywV85UhZYXC7tWX45bBFP8TX9UO5S4UaAE9BNX4gCz-qZ3YKB8vqqgpzK8uEdmZHCI31u8KbKdxvackMJ1fWGIXOpxU9hVLgiG9hbz4fCVte7poHPKKnCda5luCsw0kb2WtCgCoQxzttOjXnlvifXDUPQXcA8Dkc9KnWCPKw217eku7bCNuVNjqpt15VxQSa5Wrll9qiBC2DXgcO-D1GTK-XT5JHfTNe0ecF4z_oIsDxVLzgcl23KgFkgjOKVp6jRnsYl0GNWu6mmUTYh76trQTNFcDyIhuYCrXjUwKT9tR09aPJvSpiUGd9hRJcZoKCOZagnkhOWpkuCXXrFFcqql8vbaAyhY6kAeqUZ_h7nIIBcgRvEYc1vMTtxKSNniypXWkP6eQU6DOTRi_ovADb_mr5uWr8LPcroLmbqw938kUfzgZMyzduwIpdShIZKSf6uHVGbqXSW_5iyQ__D2CBLHCDtSu-JbOXYJ_pIneFPdy0c9ejQVWHBYhha0CFehXgXp2yGyT4ggiPpUUNPsLa0rQ0BgQ_i4f6Ertyk2TZbrwlH3QaXJLQvDbQkFzX6JTxmOWDbwRmVz9SZNoYaVshmizMyH1FB8LSPJ3t963gvccTWGZsHFCkiHzZToqbaEKJ4zM3Dr6eB59RvgngXdxAEiEHJ4CAde1uq6Hfl03XEfUAqeqbjhzTCo488_dBcRYusvHK_C-gVykahVaks-yqQv2q0sIIs9Ijr2ilT0yAZTtkMNv3OMY5lvbjpe0Kf9nrKh2rwhttrulmKsKFgyAp_gofxdgDBxB4kv8BnxvPuNPfSAwR8zWfKoxa8rP-78_ekgGhoGUUI70OVB_fn-ig3IwpUII92H_Qlc4M4UaCAdqAIA2yHuVQs2aw0ZX5xcH-gQuXBtBRx5LLYc-NncicVc8BlbKOC7B5dNlOOQXLwr1FwCyj_apy1pjr6qt6Hiy9n_3bJEgEGxynoYChu3Wo4qJFjz6fceMHFI3P_w0TihPbwLJvM55_HtE2JDj8oxkGo1_A_xBVp2hHb-EzDBR8HQwsQAwKa9BA1GXD2RyrG5wmoo4OY72AJmC0IZ-w-iyUQSyBKniIfjP-xOiT5ynIpH4qAsEc-p2WQddOVzM_5xjDh1jiI8s4fnk5Zptc1MCZAvhMGujE4zHbfhRrqUXf6DpRDEO2sfiRNRcbTI_9G2RU61vf4coTQsmWjTI6oCCiHEr2qnXBmIo_hKVKTeNLcq-7arl2zQQNtrRONpQzqHAYJo1qyx5PrYrYRqrl33l50nabFKQABAqeXAENgFkF2FBCrxRmhOs6V9hoR-7weUyANFt8dsYDcHxd4Zew_NpVc3xkxZA-xDMwqY5th0fQLjeie_upGNuMdsYm4hiDs3t_HeDGCgT76rUm0P-ina_2vJG4Ghit7PaVABLvn5ZrzVcdPpUAUnfEOPj71oT0TNscTspU_rdolSTxrPGxdpa4jThn191sLhplRjK-GI8bHT41WA8ERiJJfdx9BrwC1MdJB9UXTctA-cShSMl4DAXh0rUqNup0NpDXCuWeqx5z5AZgb8ks_ZJwhblE_Rw4MVeXUCs42rYb1rJm_fKSPc5LTD_l9GK-u4nZYdsb8NWP9vyvFdt2iwT5e4-BxTxSixEmcVuXjO8jnYk9Det6VLEJ930zqhbNJangXS6sE6sV4SxefyEMTxPfPZxSI2013yU_iIFR-2TKvwD7SDUcYADZwijYDJHjCE-Bom4koVxyCNz-hr7U-UNZEHJvLSXNmZwuisU2UP594pDkso0voWrPyIkSagwEj_zqSKBEoUcbx1HNrd1wLqDgIKAFpEuI8ejC-ku5RmrPnX7w5E=&quot;; session_id_ourhours=True</div></td></tr><tr><td style="font-weight:bold;vertical-align:top;">HTTP_HOST</td><td style="vertical-align:top;">:</td><td><div>127.0.0.1:8000</div></td></tr><tr><td style="font-weight:bold;vertical-align:top;">HTTP_REFERER</td><td style="vertical-align:top;">:</td><td><div>http://127.0.0.1:8000/ourhours/default/index</div></td></tr><tr><td style="font-weight:bold;vertical-align:top;">HTTP_UPGRADE_INSECURE_REQUESTS</td><td style="vertical-align:top;">:</td><td><div>1</div></td></tr><tr><td style="font-weight:bold;vertical-align:top;">HTTP_USER_AGENT</td><td style="vertical-align:top;">:</td><td><div>Mozilla/5.0 (Windows NT 10.0; Win64; x64) AppleWebKit/537.36 (KHTML, like Gecko) Chrome/55.0.2883.87 Safari/537.36</div></td></tr><tr><td style="font-weight:bold;vertical-align:top;">PATH_INFO</td><td style="vertical-align:top;">:</td><td><div>/ourhours/default/create</div></td></tr><tr><td style="font-weight:bold;vertical-align:top;">QUERY_STRING</td><td style="vertical-align:top;">:</td><td><div></div></td></tr><tr><td style="font-weight:bold;vertical-align:top;">REMOTE_ADDR</td><td style="vertical-align:top;">:</td><td><div>127.0.0.1</div></td></tr><tr><td style="font-weight:bold;vertical-align:top;">REMOTE_PORT</td><td style="vertical-align:top;">:</td><td><div>56759</div></td></tr><tr><td style="font-weight:bold;vertical-align:top;">REQUEST_METHOD</td><td style="vertical-align:top;">:</td><td><div>GET</div></td></tr><tr><td style="font-weight:bold;vertical-align:top;">SCRIPT_NAME</td><td style="vertical-align:top;">:</td><td><div></div></td></tr><tr><td style="font-weight:bold;vertical-align:top;">SERVER_NAME</td><td style="vertical-align:top;">:</td><td><div>DESKTOP-GDD7DCK</div></td></tr><tr><td style="font-weight:bold;vertical-align:top;">SERVER_PORT</td><td style="vertical-align:top;">:</td><td><div>8000</div></td></tr><tr><td style="font-weight:bold;vertical-align:top;">SERVER_PROTOCOL</td><td style="vertical-align:top;">:</td><td><div>HTTP/1.1</div></td></tr><tr><td style="font-weight:bold;vertical-align:top;">SERVER_SOFTWARE</td><td style="vertical-align:top;">:</td><td><div>Rocket 1.2.6</div></td></tr><tr><td style="font-weight:bold;vertical-align:top;">app_folders</td><td style="vertical-align:top;">:</td><td><div>set([&#x27;C:\\\\Users\\\\Wesly\\\\Desktop\\\\UCSC-Hack-2017\\\\applications\\\\welcome\\\\&#x27;, &#x27;C:\\\\Users\\\\Wesly\\\\Desktop\\\\UCSC-Hack-2017\\\\applications\\\\examples\\\\&#x27;, &#x27;C:\\\\Users\\\\Wesly\\\\Desktop\\\\UCSC-Hack-2017\\\\applications\\\\ourhours\\\\&#x27;, &#x27;C:\\\\Users\\\\Wesly\\\\Desktop\\\\UCSC-Hack-2017\\\\applications\\\\admin\\\\&#x27;])</div></td></tr><tr><td style="font-weight:bold;vertical-align:top;">applications_parent</td><td style="vertical-align:top;">:</td><td><div>C:\\Users\\Wesly\\Desktop\\UCSC-Hack-2017</div></td></tr><tr><td style="font-weight:bold;vertical-align:top;">cmd_args</td><td style="vertical-align:top;">:</td><td><div><table></table></div></td></tr><tr><td style="font-weight:bold;vertical-align:top;">cmd_options</td><td style="vertical-align:top;">:</td><td><div>&lt;Values at 0x2ddaeb8: {&#x27;verbose&#x27;: False, &#x27;ip&#x27;: &#x27;127.0.0.1&#x27;, &#x27;debuglevel&#x27;: 30, &#x27;with_scheduler&#x27;: False, &#x27;shutdown_timeout&#x27;: 5, &#x27;taskbar&#x27;: False, &#x27;with_coverage&#x27;: False, &#x27;pid_filename&#x27;: &#x27;httpserver.pid&#x27;, &#x27;maxthreads&#x27;: None, &#x27;softcron&#x27;: False, &#x27;server_name&#x27;: &#x27;DESKTOP-GDD7DCK&#x27;, &#x27;bpython&#x27;: False, &#x27;nogui&#x27;: False, &#x27;port&#x27;: 8000, &#x27;print_errors&#x27;: False, &#x27;extcron&#x27;: False, &#x27;runcron&#x27;: False, &#x27;run_system_tests&#x27;: False, &#x27;test&#x27;: None, &#x27;folder&#x27;: &#x27;C:\\\\Users\\\\Wesly\\\\Desktop\\\\UCSC-Hack-2017&#x27;, &#x27;config&#x27;: &#x27;&#x27;, &#x27;minthreads&#x27;: None, &#x27;shell&#x27;: None, &#x27;run&#x27;: &#x27;&#x27;, &#x27;log_filename&#x27;: &#x27;httpserver.log&#x27;, &#x27;profiler_dir&#x27;: None, &#x27;args&#x27;: [&#x27;&#x27;], &#x27;socket_timeout&#x27;: 5, &#x27;ssl_ca_certificate&#x27;: None, &#x27;scheduler&#x27;: None, &#x27;interfaces&#x27;: None, &#x27;ssl_private_key&#x27;: &#x27;&#x27;, &#x27;gae&#x27;: None, &#x27;password&#x27;: &#x27;******&#x27;, &#x27;request_queue_size&#x27;: 5, &#x27;ssl_certificate&#x27;: &#x27;&#x27;, &#x27;cronjob&#x27;: False, &#x27;numthreads&#x27;: None, &#x27;quiet&#x27;: False, &#x27;import_models&#x27;: False, &#x27;timeout&#x27;: 10, &#x27;plain&#x27;: False, &#x27;nobanner&#x27;: False}&gt;</div></td></tr><tr><td style="font-weight:bold;vertical-align:top;">db_sessions</td><td style="vertical-align:top;">:</td><td><div>set([])</div></td></tr><tr><td style="font-weight:bold;vertical-align:top;">debugging</td><td style="vertical-align:top;">:</td><td><div>True</div></td></tr><tr><td style="font-weight:bold;vertical-align:top;">gluon_parent</td><td style="vertical-align:top;">:</td><td><div>C:\\Users\\Wesly\\Desktop\\UCSC-Hack-2017</div></td></tr><tr><td style="font-weight:bold;vertical-align:top;">http_accept</td><td style="vertical-align:top;">:</td><td><div>text/html,application/xhtml+xml,application/xml;q=0.9,image/webp,*/*;q=0.8</div></td></tr><tr><td style="font-weight:bold;vertical-align:top;">http_accept_encoding</td><td style="vertical-align:top;">:</td><td><div>gzip, deflate, sdch, br</div></td></tr><tr><td style="font-weight:bold;vertical-align:top;">http_accept_language</td><td style="vertical-align:top;">:</td><td><div>en-US,en;q=0.8</div></td></tr><tr><td style="font-weight:bold;vertical-align:top;">http_connection</td><td style="vertical-align:top;">:</td><td><div>keep-alive</div></td></tr><tr><td style="font-weight:bold;vertical-align:top;">http_cookie</td><td style="vertical-align:top;">:</td><td><div>session_id_layouttest=127.0.0.1-9dd550cb-7d25-4599-add6-bbf406414416; resolution=1349; session_id_hackathon=127.0.0.1-e9d19e57-2c82-4246-95e2-3afb87897355; session_id_hw=127.0.0.1-23223d0c-fdad-4421-b0fa-bfb22452a98b; session_id_welcome=127.0.0.1-3404b542-72e6-426d-9bd7-f225ed0f1803; session_id_admin=127.0.0.1-5e4d5587-8e46-4ab9-bda4-cde90ee24cff; session_data_ourhours=&quot;8f9a7a4bfbfae46e30e315c0a8a64a6a:L6V3cYvWch5lxISGiDCSYUbE45sDW7z5-lldnAoUszblKSLlx8Lo1StrbDQmqOHBkDfsuegeMgqFyz4Q6eRUCZa32__OSI54aBVS4bt0Bk9BiDdFJ_pgzvUeJvZhXRk9ZT4nlxhibb3f6XlcED9aFK4A0kjCKU8F2ncrmvvVz0575oC_MAnF_YIYnBwez8z8AsiJzASjMlQ_fAZhfx-2LPYEtER9qPDxa9vhcPUI_Yny1PdTC76JU40eVTd34QMX1ahjuKgmDmjveEHb61FLVcubIm24ERpVfljxzlaSVz0vOWL3hzQIHWTpJ_ZmofIHDM41qKtkj9NI4TA5Q6ZGvZ2_Lj4Pw0eTZ-94EDPGinjiVb3zx1GmmUAgEdihKVAljRQbOIVaBOs7SP8ci4GBdgtraIRcDtIG_0hDWDX9BA0J7NqJQW4_aCC_7FXdlLP-RN63-hHiyICmGHijlbDMWHKE4DaK91r1bhCS-5_z9NhZ01fIwLfl2KRI0gJWGY4gfNhODrSZNbziBkM7I9eu3f4JS8KI9gsGD-LtT4qQbdegk61RAN-cNgcql5IVh0fzyCzEhUFQLn3Fz1oc9DUcrwxMkwNdaGM5kDikrRUfnCSpX3_7X16HY_zuhIT_EWWtLxG1VhyFTZXXSeEkzrVdCOebXLpdVLEOVjgAHwVvf0uAdUCEB5j_4GzW9j-kkLBCGJpFa0Qe5VWCmgeF5QxBQEAo-ikDe9af-q5MxflU9VgIAKVlAWjuURFmitOTmkaBLWLf5OKP_SdgmeJer632tMRYUCQp980RP-OMGT2B_zt0Qr4LDUA9FDknm3tgw9rZ5C4jbLJgnxOEMH_wwekM_JAcbWuOPJB0lXJq5WaiknRwoFw5PzcquPcENQB4EYehom6cFh-9Oa_cqpwI8Da5kX5IXU6TlTh0WxBK7tHYmTyBEnGCmC83qAcr2GGeMzyqorSoabIvSQo1amSldVpKsWYM02VUWUI2W3M09im29OQO9smPjNt40d8EvqOKHSZpr9rv0WI_itHljMuZyYYR4ir-M9BL8VByvw3wPfdi_VhT96fB7fQd7_ZzGQN5PZDffYQsIhnuwToop7YIb54iXhLyWRLq0ddHCYoV0DfF0SRiArXIG_Nzjz_T0L57o_58BlZ0CWbrdaX1PAKRZa52Qt-MJIrIUvYwpE9b_siFcmK1UnW9ucoyWUfJLkdtksuVtG-yyTWaDV77CIyNV0ckb6vhxs_kTYZoIjiYhv4TqaiWWi58H9aBPeN5dspeLWpuWiXsTngxRqHGXPYOSGIKJuoslAeV4zefEFxOwrki-Q4dqmy9cXiqjFBWw6Bvb4w2-mKo_YeSf5aVOcaDzRz4nS6ENRTuPD9DUFzOQHi_JeTrDlB7-4KmaESo0q8PnAeIbS6-nxd7BaKnLZ8AA63liCRqGQ9Y6uQjwtPzmxBUSZnjDGIczeXp-C9V7mkdUu5JTOv3kgKOb5RmPlRB-Fv4iyFdDSfzhY8Ves5S4h-aML7aKxQ0qJ8ubTX3_RO5Wojr4jiB1RV3DBtGFkp7P5jopu8UsbMJtx6SZ5rEqeemHjGxJ-88xqs0M_Wzx4l_CGBs_BKoGrc8ThsbriCtum802fIARm0XRRvUhpjxJvV5chJdD4_ZzWC--GvOxKrSN8Vya2479Nj4viF3UXvSLWZp8C01O1XME68wotptolgBWasNlyO76DqhmdIulK9-YfzJAgyTwT3bGA7r8v2ggOlo0JDDplXOtAuu9sFThKvAk4Cm0yScQjb32dqMP2RcoRZSHSIT_ZVGM7gp7pJmVQRlttZnuZLN5kEtdsXL9jdnucY1MMAzZywV85UhZYXC7tWX45bBFP8TX9UO5S4UaAE9BNX4gCz-qZ3YKB8vqqgpzK8uEdmZHCI31u8KbKdxvackMJ1fWGIXOpxU9hVLgiG9hbz4fCVte7poHPKKnCda5luCsw0kb2WtCgCoQxzttOjXnlvifXDUPQXcA8Dkc9KnWCPKw217eku7bCNuVNjqpt15VxQSa5Wrll9qiBC2DXgcO-D1GTK-XT5JHfTNe0ecF4z_oIsDxVLzgcl23KgFkgjOKVp6jRnsYl0GNWu6mmUTYh76trQTNFcDyIhuYCrXjUwKT9tR09aPJvSpiUGd9hRJcZoKCOZagnkhOWpkuCXXrFFcqql8vbaAyhY6kAeqUZ_h7nIIBcgRvEYc1vMTtxKSNniypXWkP6eQU6DOTRi_ovADb_mr5uWr8LPcroLmbqw938kUfzgZMyzduwIpdShIZKSf6uHVGbqXSW_5iyQ__D2CBLHCDtSu-JbOXYJ_pIneFPdy0c9ejQVWHBYhha0CFehXgXp2yGyT4ggiPpUUNPsLa0rQ0BgQ_i4f6Ertyk2TZbrwlH3QaXJLQvDbQkFzX6JTxmOWDbwRmVz9SZNoYaVshmizMyH1FB8LSPJ3t963gvccTWGZsHFCkiHzZToqbaEKJ4zM3Dr6eB59RvgngXdxAEiEHJ4CAde1uq6Hfl03XEfUAqeqbjhzTCo488_dBcRYusvHK_C-gVykahVaks-yqQv2q0sIIs9Ijr2ilT0yAZTtkMNv3OMY5lvbjpe0Kf9nrKh2rwhttrulmKsKFgyAp_gofxdgDBxB4kv8BnxvPuNPfSAwR8zWfKoxa8rP-78_ekgGhoGUUI70OVB_fn-ig3IwpUII92H_Qlc4M4UaCAdqAIA2yHuVQs2aw0ZX5xcH-gQuXBtBRx5LLYc-NncicVc8BlbKOC7B5dNlOOQXLwr1FwCyj_apy1pjr6qt6Hiy9n_3bJEgEGxynoYChu3Wo4qJFjz6fceMHFI3P_w0TihPbwLJvM55_HtE2JDj8oxkGo1_A_xBVp2hHb-EzDBR8HQwsQAwKa9BA1GXD2RyrG5wmoo4OY72AJmC0IZ-w-iyUQSyBKniIfjP-xOiT5ynIpH4qAsEc-p2WQddOVzM_5xjDh1jiI8s4fnk5Zptc1MCZAvhMGujE4zHbfhRrqUXf6DpRDEO2sfiRNRcbTI_9G2RU61vf4coTQsmWjTI6oCCiHEr2qnXBmIo_hKVKTeNLcq-7arl2zQQNtrRONpQzqHAYJo1qyx5PrYrYRqrl33l50nabFKQABAqeXAENgFkF2FBCrxRmhOs6V9hoR-7weUyANFt8dsYDcHxd4Zew_NpVc3xkxZA-xDMwqY5th0fQLjeie_upGNuMdsYm4hiDs3t_HeDGCgT76rUm0P-ina_2vJG4Ghit7PaVABLvn5ZrzVcdPpUAUnfEOPj71oT0TNscTspU_rdolSTxrPGxdpa4jThn191sLhplRjK-GI8bHT41WA8ERiJJfdx9BrwC1MdJB9UXTctA-cShSMl4DAXh0rUqNup0NpDXCuWeqx5z5AZgb8ks_ZJwhblE_Rw4MVeXUCs42rYb1rJm_fKSPc5LTD_l9GK-u4nZYdsb8NWP9vyvFdt2iwT5e4-BxTxSixEmcVuXjO8jnYk9Det6VLEJ930zqhbNJangXS6sE6sV4SxefyEMTxPfPZxSI2013yU_iIFR-2TKvwD7SDUcYADZwijYDJHjCE-Bom4koVxyCNz-hr7U-UNZEHJvLSXNmZwuisU2UP594pDkso0voWrPyIkSagwEj_zqSKBEoUcbx1HNrd1wLqDgIKAFpEuI8ejC-ku5RmrPnX7w5E=&quot;; session_id_ourhours=True</div></td></tr><tr><td style="font-weight:bold;vertical-align:top;">http_host</td><td style="vertical-align:top;">:</td><td><div>127.0.0.1:8000</div></td></tr><tr><td style="font-weight:bold;vertical-align:top;">http_referer</td><td style="vertical-align:top;">:</td><td><div>http://127.0.0.1:8000/ourhours/default/index</div></td></tr><tr><td style="font-weight:bold;vertical-align:top;">http_upgrade_insecure_requests</td><td style="vertical-align:top;">:</td><td><div>1</div></td></tr><tr><td style="font-weight:bold;vertical-align:top;">http_user_agent</td><td style="vertical-align:top;">:</td><td><div>Mozilla/5.0 (Windows NT 10.0; Win64; x64) AppleWebKit/537.36 (KHTML, like Gecko) Chrome/55.0.2883.87 Safari/537.36</div></td></tr><tr><td style="font-weight:bold;vertical-align:top;">is_jython</td><td style="vertical-align:top;">:</td><td><div>False</div></td></tr><tr><td style="font-weight:bold;vertical-align:top;">is_pypy</td><td style="vertical-align:top;">:</td><td><div>False</div></td></tr><tr><td style="font-weight:bold;vertical-align:top;">is_source</td><td style="vertical-align:top;">:</td><td><div>False</div></td></tr><tr><td style="font-weight:bold;vertical-align:top;">local_hosts</td><td style="vertical-align:top;">:</td><td><div><table><tr><td><div>fe80::81f2:e7ae:7efe:f1e7%23</div></td></tr><tr><td><div>DESKTOP-GDD7DCK</div></td></tr><tr><td><div>::ffff:127.0.0.1</div></td></tr><tr><td><div>::1</div></td></tr><tr><td><div>fe80::5efe:192.168.1.135%21</div></td></tr><tr><td><div>192.168.1.135</div></td></tr><tr><td><div>fe80::e941:c1cf:aca3:e27d%22</div></td></tr><tr><td><div>127.0.0.1</div></td></tr><tr><td><div>192.168.56.1</div></td></tr></table></div></td></tr><tr><td style="font-weight:bold;vertical-align:top;">path_info</td><td style="vertical-align:top;">:</td><td><div>/ourhours/default/create</div></td></tr><tr><td style="font-weight:bold;vertical-align:top;">query_string</td><td style="vertical-align:top;">:</td><td><div></div></td></tr><tr><td style="font-weight:bold;vertical-align:top;">remote_addr</td><td style="vertical-align:top;">:</td><td><div>127.0.0.1</div></td></tr><tr><td style="font-weight:bold;vertical-align:top;">remote_port</td><td style="vertical-align:top;">:</td><td><div>56759</div></td></tr><tr><td style="font-weight:bold;vertical-align:top;">request_method</td><td style="vertical-align:top;">:</td><td><div>GET</div></td></tr><tr><td style="font-weight:bold;vertical-align:top;">request_uri</td><td style="vertical-align:top;">:</td><td><div>/ourhours/default/create</div></td></tr><tr><td style="font-weight:bold;vertical-align:top;">script_name</td><td style="vertical-align:top;">:</td><td><div></div></td></tr><tr><td style="font-weight:bold;vertical-align:top;">server_name</td><td style="vertical-align:top;">:</td><td><div>DESKTOP-GDD7DCK</div></td></tr><tr><td style="font-weight:bold;vertical-align:top;">server_port</td><td style="vertical-align:top;">:</td><td><div>8000</div></td></tr><tr><td style="font-weight:bold;vertical-align:top;">server_protocol</td><td style="vertical-align:top;">:</td><td><div>HTTP/1.1</div></td></tr><tr><td style="font-weight:bold;vertical-align:top;">server_software</td><td style="vertical-align:top;">:</td><td><div>Rocket 1.2.6</div></td></tr><tr><td style="font-weight:bold;vertical-align:top;">web2py_path</td><td style="vertical-align:top;">:</td><td><div>C:\\Users\\Wesly\\Desktop\\UCSC-Hack-2017</div></td></tr><tr><td style="font-weight:bold;vertical-align:top;">web2py_version</td><td style="vertical-align:top;">:</td><td><div>2.14.6-stable+timestamp.2016.05.10.00.21.47</div></td></tr><tr><td style="font-weight:bold;vertical-align:top;">wsgi.errors</td><td style="vertical-align:top;">:</td><td><div>&lt;open file &#x27;&lt;stderr&gt;&#x27;, mode &#x27;w&#x27; at 0x0221D0D0&gt;</div></td></tr><tr><td style="font-weight:bold;vertical-align:top;">wsgi.file_wrapper</td><td style="vertical-align:top;">:</td><td><div>&lt;class wsgiref.util.FileWrapper at 0x0321F148&gt;</div></td></tr><tr><td style="font-weight:bold;vertical-align:top;">wsgi.input</td><td style="vertical-align:top;">:</td><td><div>&lt;socket._fileobject object at 0x080B3230&gt;</div></td></tr><tr><td style="font-weight:bold;vertical-align:top;">wsgi.multiprocess</td><td style="vertical-align:top;">:</td><td><div>False</div></td></tr><tr><td style="font-weight:bold;vertical-align:top;">wsgi.multithread</td><td style="vertical-align:top;">:</td><td><div>True</div></td></tr><tr><td style="font-weight:bold;vertical-align:top;">wsgi.run_once</td><td style="vertical-align:top;">:</td><td><div>False</div></td></tr><tr><td style="font-weight:bold;vertical-align:top;">wsgi.url_scheme</td><td style="vertical-align:top;">:</td><td><div>http</div></td></tr><tr><td style="font-weight:bold;vertical-align:top;">wsgi.version</td><td style="vertical-align:top;">:</td><td><div><table><tr><td><div>1</div></td></tr><tr><td><div>0</div></td></tr></table></div></td></tr><tr><td style="font-weight:bold;vertical-align:top;">wsgi_errors</td><td style="vertical-align:top;">:</td><td><div>&lt;open file &#x27;&lt;stderr&gt;&#x27;, mode &#x27;w&#x27; at 0x0221D0D0&gt;</div></td></tr><tr><td style="font-weight:bold;vertical-align:top;">wsgi_file_wrapper</td><td style="vertical-align:top;">:</td><td><div>&lt;class wsgiref.util.FileWrapper at 0x0321F148&gt;</div></td></tr><tr><td style="font-weight:bold;vertical-align:top;">wsgi_input</td><td style="vertical-align:top;">:</td><td><div>&lt;socket._fileobject object at 0x080B3230&gt;</div></td></tr><tr><td style="font-weight:bold;vertical-align:top;">wsgi_multiprocess</td><td style="vertical-align:top;">:</td><td><div>False</div></td></tr><tr><td style="font-weight:bold;vertical-align:top;">wsgi_multithread</td><td style="vertical-align:top;">:</td><td><div>True</div></td></tr><tr><td style="font-weight:bold;vertical-align:top;">wsgi_run_once</td><td style="vertical-align:top;">:</td><td><div>False</div></td></tr><tr><td style="font-weight:bold;vertical-align:top;">wsgi_url_scheme</td><td style="vertical-align:top;">:</td><td><div>http</div></td></tr><tr><td style="font-weight:bold;vertical-align:top;">wsgi_version</td><td style="vertical-align:top;">:</td><td><div><table><tr><td><div>1</div></td></tr><tr><td><div>0</div></td></tr></table></div></td></tr></table></div></td></tr><tr><td style="font-weight:bold;vertical-align:top;">extension</td><td style="vertical-align:top;">:</td><td><div>html</div></td></tr><tr><td style="font-weight:bold;vertical-align:top;">folder</td><td style="vertical-align:top;">:</td><td><div>C:\\Users\\Wesly\\Desktop\\UCSC-Hack-2017\\applications\\ourhours\\</div></td></tr><tr><td style="font-weight:bold;vertical-align:top;">function</td><td style="vertical-align:top;">:</td><td><div>create</div></td></tr><tr><td style="font-weight:bold;vertical-align:top;">global_settings</td><td style="vertical-align:top;">:</td><td><div><table><tr><td style="font-weight:bold;vertical-align:top;">app_folders</td><td style="vertical-align:top;">:</td><td><div>set([&#x27;C:\\\\Users\\\\Wesly\\\\Desktop\\\\UCSC-Hack-2017\\\\applications\\\\welcome\\\\&#x27;, &#x27;C:\\\\Users\\\\Wesly\\\\Desktop\\\\UCSC-Hack-2017\\\\applications\\\\examples\\\\&#x27;, &#x27;C:\\\\Users\\\\Wesly\\\\Desktop\\\\UCSC-Hack-2017\\\\applications\\\\ourhours\\\\&#x27;, &#x27;C:\\\\Users\\\\Wesly\\\\Desktop\\\\UCSC-Hack-2017\\\\applications\\\\admin\\\\&#x27;])</div></td></tr><tr><td style="font-weight:bold;vertical-align:top;">applications_parent</td><td style="vertical-align:top;">:</td><td><div>C:\\Users\\Wesly\\Desktop\\UCSC-Hack-2017</div></td></tr><tr><td style="font-weight:bold;vertical-align:top;">cmd_args</td><td style="vertical-align:top;">:</td><td><div><table></table></div></td></tr><tr><td style="font-weight:bold;vertical-align:top;">cmd_options</td><td style="vertical-align:top;">:</td><td><div>&lt;Values at 0x2ddaeb8: {&#x27;verbose&#x27;: False, &#x27;ip&#x27;: &#x27;127.0.0.1&#x27;, &#x27;debuglevel&#x27;: 30, &#x27;with_scheduler&#x27;: False, &#x27;shutdown_timeout&#x27;: 5, &#x27;taskbar&#x27;: False, &#x27;with_coverage&#x27;: False, &#x27;pid_filename&#x27;: &#x27;httpserver.pid&#x27;, &#x27;maxthreads&#x27;: None, &#x27;softcron&#x27;: False, &#x27;server_name&#x27;: &#x27;DESKTOP-GDD7DCK&#x27;, &#x27;bpython&#x27;: False, &#x27;nogui&#x27;: False, &#x27;port&#x27;: 8000, &#x27;print_errors&#x27;: False, &#x27;extcron&#x27;: False, &#x27;runcron&#x27;: False, &#x27;run_system_tests&#x27;: False, &#x27;test&#x27;: None, &#x27;folder&#x27;: &#x27;C:\\\\Users\\\\Wesly\\\\Desktop\\\\UCSC-Hack-2017&#x27;, &#x27;config&#x27;: &#x27;&#x27;, &#x27;minthreads&#x27;: None, &#x27;shell&#x27;: None, &#x27;run&#x27;: &#x27;&#x27;, &#x27;log_filename&#x27;: &#x27;httpserver.log&#x27;, &#x27;profiler_dir&#x27;: None, &#x27;args&#x27;: [&#x27;&#x27;], &#x27;socket_timeout&#x27;: 5, &#x27;ssl_ca_certificate&#x27;: None, &#x27;scheduler&#x27;: None, &#x27;interfaces&#x27;: None, &#x27;ssl_private_key&#x27;: &#x27;&#x27;, &#x27;gae&#x27;: None, &#x27;password&#x27;: &#x27;******&#x27;, &#x27;request_queue_size&#x27;: 5, &#x27;ssl_certificate&#x27;: &#x27;&#x27;, &#x27;cronjob&#x27;: False, &#x27;numthreads&#x27;: None, &#x27;quiet&#x27;: False, &#x27;import_models&#x27;: False, &#x27;timeout&#x27;: 10, &#x27;plain&#x27;: False, &#x27;nobanner&#x27;: False}&gt;</div></td></tr><tr><td style="font-weight:bold;vertical-align:top;">db_sessions</td><td style="vertical-align:top;">:</td><td><div>set([])</div></td></tr><tr><td style="font-weight:bold;vertical-align:top;">debugging</td><td style="vertical-align:top;">:</td><td><div>True</div></td></tr><tr><td style="font-weight:bold;vertical-align:top;">gluon_parent</td><td style="vertical-align:top;">:</td><td><div>C:\\Users\\Wesly\\Desktop\\UCSC-Hack-2017</div></td></tr><tr><td style="font-weight:bold;vertical-align:top;">is_jython</td><td style="vertical-align:top;">:</td><td><div>False</div></td></tr><tr><td style="font-weight:bold;vertical-align:top;">is_pypy</td><td style="vertical-align:top;">:</td><td><div>False</div></td></tr><tr><td style="font-weight:bold;vertical-align:top;">is_source</td><td style="vertical-align:top;">:</td><td><div>False</div></td></tr><tr><td style="font-weight:bold;vertical-align:top;">local_hosts</td><td style="vertical-align:top;">:</td><td><div><table><tr><td><div>fe80::81f2:e7ae:7efe:f1e7%23</div></td></tr><tr><td><div>DESKTOP-GDD7DCK</div></td></tr><tr><td><div>::ffff:127.0.0.1</div></td></tr><tr><td><div>::1</div></td></tr><tr><td><div>fe80::5efe:192.168.1.135%21</div></td></tr><tr><td><div>192.168.1.135</div></td></tr><tr><td><div>fe80::e941:c1cf:aca3:e27d%22</div></td></tr><tr><td><div>127.0.0.1</div></td></tr><tr><td><div>192.168.56.1</div></td></tr></table></div></td></tr><tr><td style="font-weight:bold;vertical-align:top;">web2py_version</td><td style="vertical-align:top;">:</td><td><div>2.14.6-stable+timestamp.2016.05.10.00.21.47</div></td></tr></table></div></td></tr><tr><td style="font-weight:bold;vertical-align:top;">is_https</td><td style="vertical-align:top;">:</td><td><div>False</div></td></tr><tr><td style="font-weight:bold;vertical-align:top;">is_local</td><td style="vertical-align:top;">:</td><td><div>True</div></td></tr><tr><td style="font-weight:bold;vertical-align:top;">is_restful</td><td style="vertical-align:top;">:</td><td><div>False</div></td></tr><tr><td style="font-weight:bold;vertical-align:top;">is_scheduler</td><td style="vertical-align:top;">:</td><td><div>False</div></td></tr><tr><td style="font-weight:bold;vertical-align:top;">is_shell</td><td style="vertical-align:top;">:</td><td><div>False</div></td></tr><tr><td style="font-weight:bold;vertical-align:top;">now</td><td style="vertical-align:top;">:</td><td><div>datetime.datetime(2017, 1, 21, 23, 47, 30, 561000)</div></td></tr><tr><td style="font-weight:bold;vertical-align:top;">raw_args</td><td style="vertical-align:top;">:</td><td><div></div></td></tr><tr><td style="font-weight:bold;vertical-align:top;">raw_extension</td><td style="vertical-align:top;">:</td><td><div>None</div></td></tr><tr><td style="font-weight:bold;vertical-align:top;">url</td><td style="vertical-align:top;">:</td><td><div>/ourhours/default/create</div></td></tr><tr><td style="font-weight:bold;vertical-align:top;">utcnow</td><td style="vertical-align:top;">:</td><td><div>datetime.datetime(2017, 1, 22, 7, 47, 30, 561000)</div></td></tr><tr><td style="font-weight:bold;vertical-align:top;">wsgi</td><td style="vertical-align:top;">:</td><td><div>&lt;gluon.main.LazyWSGI object at 0x07566D10&gt;</div></td></tr></table></div>'
tRp58
sS'frames'
p59
(lp60
(dp61
S'file'
p62
S'C:\\Users\\Wesly\\Desktop\\UCSC-Hack-2017\\gluon\\restricted.py'
p63
sS'dump'
p64
(dp65
S'environment'
p66
S"{'A': <class 'gluon.html.A'>, 'ANY_OF': <class 'gluon.validators.ANY_OF'>, 'ASSIGNJS': <function ASSIGNJS>, 'Auth': <class 'gluon.tools.Auth'>, 'B': <class 'gluon.html.B'>, 'BEAUTIFY': <class 'gluon.html.BEAUTIFY'>, 'BODY': <class 'gluon.html.BODY'>, 'BR': <class 'gluon.html.BR'>, 'BUTTON': <class 'gluon.html.BUTTON'>, 'CAT': <class 'gluon.html.CAT'>, ...}"
p67
sS'ccode'
p68
S'<code object <module> at 0795E0F8, file "C:\\User...cations\\ourhours\\controllers/default.py", line 1>'
p69
ssS'lnum'
p70
I227
sS'lines'
p71
(dp72
I224
S'            ccode = code'
p73
sI225
S'        else:'
p74
sI226
S'            ccode = compile2(code, layer)'
p75
sI227
S'        exec ccode in environment'
p76
sI228
S'    except HTTP:'
p77
sI229
S'        raise'
p78
sI230
S'    except RestrictedError:'
p79
sI231
S'        # do not encapsulate (obfuscate) the original RestrictedError'
p80
sI222
S'    try:'
p81
sI223
S'        if isinstance(code, types.CodeType):'
p82
ssS'call'
p83
S"(code='from gluon.tools import Mail\\nimport imaplib\\nimpo...est, db)\\nresponse._vars=response._caller(create)\\n', environment={'A': <class 'gluon.html.A'>, 'ANY_OF': <class 'gluon.validators.ANY_OF'>, 'ASSIGNJS': <function ASSIGNJS>, 'Auth': <class 'gluon.tools.Auth'>, 'B': <class 'gluon.html.B'>, 'BEAUTIFY': <class 'gluon.html.BEAUTIFY'>, 'BODY': <class 'gluon.html.BODY'>, 'BR': <class 'gluon.html.BR'>, 'BUTTON': <class 'gluon.html.BUTTON'>, 'CAT': <class 'gluon.html.CAT'>, ...}, layer=r'C:\\Users\\Wesly\\Desktop\\UCSC-Hack-2017\\applications\\ourhours\\controllers/default.py')"
p84
sS'func'
p85
S'restricted'
p86
sa(dp87
g62
S'C:\\Users\\Wesly\\Desktop\\UCSC-Hack-2017\\applications\\ourhours\\controllers\\default.py'
p88
sg64
(dp89
S'mail'
p90
S'undefined'
p91
ssg70
I6
sg71
(dp92
I2
S'import imaplib'
p93
sI3
S'import email'
p94
sI4
S'from email.header import decode_header'
p95
sI5
S''
sI6
S"mail.settings.server = 'smtp.gmail.com:587'"
p96
sI7
S"mail.settings.sender = 'ourhours1337@gmail.com'"
p97
sI8
S"mail.settings.login = 'ourhours1337@gmail.com:weslysmellsgood'"
p98
sI9
S''
sI10
S'import random'
p99
sI11
S'import string'
p100
ssg83
S'()'
p101
sg85
S'<module>'
p102
sasS'pyver'
p103
S'Python 2.7.9: C:\\Users\\Wesly\\Desktop\\UCSC-Hack-2017\\web2py.exe (prefix: )'
p104
sS'session'
p105
g57
(S's\x80\n\x00\x00<div><table><tr><td style="font-weight:bold;vertical-align:top;">auth</td><td style="vertical-align:top;">:</td><td><div><table><tr><td style="font-weight:bold;vertical-align:top;">expiration</td><td style="vertical-align:top;">:</td><td><div>3600</div></td></tr><tr><td style="font-weight:bold;vertical-align:top;">hmac_key</td><td style="vertical-align:top;">:</td><td><div>c7047707-286e-408d-8699-5271756390e2</div></td></tr><tr><td style="font-weight:bold;vertical-align:top;">last_visit</td><td style="vertical-align:top;">:</td><td><div>datetime.datetime(2017, 1, 21, 22, 52, 59, 99000)</div></td></tr><tr><td style="font-weight:bold;vertical-align:top;">remember_me</td><td style="vertical-align:top;">:</td><td><div>False</div></td></tr><tr><td style="font-weight:bold;vertical-align:top;">user</td><td style="vertical-align:top;">:</td><td><div><table><tr><td style="font-weight:bold;vertical-align:top;">email</td><td style="vertical-align:top;">:</td><td><div>welim@ucsc.edu</div></td></tr><tr><td style="font-weight:bold;vertical-align:top;">first_name</td><td style="vertical-align:top;">:</td><td><div>Wesly</div></td></tr><tr><td style="font-weight:bold;vertical-align:top;">id</td><td style="vertical-align:top;">:</td><td><div>1L</div></td></tr><tr><td style="font-weight:bold;vertical-align:top;">last_name</td><td style="vertical-align:top;">:</td><td><div>Lim</div></td></tr><tr><td style="font-weight:bold;vertical-align:top;">registration_id</td><td style="vertical-align:top;">:</td><td><div></div></td></tr><tr><td style="font-weight:bold;vertical-align:top;">registration_key</td><td style="vertical-align:top;">:</td><td><div></div></td></tr><tr><td style="font-weight:bold;vertical-align:top;">reset_password_key</td><td style="vertical-align:top;">:</td><td><div></div></td></tr><tr><td style="font-weight:bold;vertical-align:top;">username</td><td style="vertical-align:top;">:</td><td><div>welim</div></td></tr></table></div></td></tr><tr><td style="font-weight:bold;vertical-align:top;">user_groups</td><td style="vertical-align:top;">:</td><td><div><table><tr><td style="font-weight:bold;vertical-align:top;">1</td><td style="vertical-align:top;">:</td><td><div>user_1</div></td></tr></table></div></td></tr></table></div></td></tr><tr><td style="font-weight:bold;vertical-align:top;">flash</td><td style="vertical-align:top;">:</td><td><div></div></td></tr><tr><td style="font-weight:bold;vertical-align:top;">last_orderby</td><td style="vertical-align:top;">:</td><td><div>None</div></td></tr><tr><td style="font-weight:bold;vertical-align:top;">last_query</td><td style="vertical-align:top;">:</td><td><div>db.event.id&gt;0</div></td></tr></table></div>'
tRp106
sS'etype'
p107
S"<type 'exceptions.NameError'>"
p108
sS'date'
p109
S'Sat Jan 21 23:47:30 2017'
p110
sS'response'
p111
g57
(S's\xb9\x16\x00\x00<div><table><tr><td style="font-weight:bold;vertical-align:top;">body</td><td style="vertical-align:top;">:</td><td><div>&lt;cStringIO.StringO object at 0x075660E0&gt;</div></td></tr><tr><td style="font-weight:bold;vertical-align:top;">cookies</td><td style="vertical-align:top;">:</td><td><div><table><tr><td style="font-weight:bold;vertical-align:top;">session_id_ourhours</td><td style="vertical-align:top;">:</td><td><div>127.0.0.1-f8372184-f334-49c2-a900-825145301db6<table><tr><td style="font-weight:bold;vertical-align:top;">comment</td><td style="vertical-align:top;">:</td><td><div></div></td></tr><tr><td style="font-weight:bold;vertical-align:top;">domain</td><td style="vertical-align:top;">:</td><td><div></div></td></tr><tr><td style="font-weight:bold;vertical-align:top;">expires</td><td style="vertical-align:top;">:</td><td><div></div></td></tr><tr><td style="font-weight:bold;vertical-align:top;">httponly</td><td style="vertical-align:top;">:</td><td><div></div></td></tr><tr><td style="font-weight:bold;vertical-align:top;">max-age</td><td style="vertical-align:top;">:</td><td><div></div></td></tr><tr><td style="font-weight:bold;vertical-align:top;">path</td><td style="vertical-align:top;">:</td><td><div>/</div></td></tr><tr><td style="font-weight:bold;vertical-align:top;">secure</td><td style="vertical-align:top;">:</td><td><div></div></td></tr><tr><td style="font-weight:bold;vertical-align:top;">version</td><td style="vertical-align:top;">:</td><td><div></div></td></tr></table></div></td></tr></table></div></td></tr><tr><td style="font-weight:bold;vertical-align:top;">delimiters</td><td style="vertical-align:top;">:</td><td><div><table><tr><td><div>{{</div></td></tr><tr><td><div>}}</div></td></tr></table></div></td></tr><tr><td style="font-weight:bold;vertical-align:top;">files</td><td style="vertical-align:top;">:</td><td><div><table></table></div></td></tr><tr><td style="font-weight:bold;vertical-align:top;">flash</td><td style="vertical-align:top;">:</td><td><div></div></td></tr><tr><td style="font-weight:bold;vertical-align:top;">form_label_separator</td><td style="vertical-align:top;">:</td><td><div>: </div></td></tr><tr><td style="font-weight:bold;vertical-align:top;">formstyle</td><td style="vertical-align:top;">:</td><td><div>table3cols</div></td></tr><tr><td style="font-weight:bold;vertical-align:top;">generic_patterns</td><td style="vertical-align:top;">:</td><td><div><table><tr><td><div>*</div></td></tr></table></div></td></tr><tr><td style="font-weight:bold;vertical-align:top;">headers</td><td style="vertical-align:top;">:</td><td><div><table><tr><td style="font-weight:bold;vertical-align:top;">X-Powered-By</td><td style="vertical-align:top;">:</td><td><div>web2py</div></td></tr></table></div></td></tr><tr><td style="font-weight:bold;vertical-align:top;">menu</td><td style="vertical-align:top;">:</td><td><div><table><tr><td><div><table><tr><td><div>Home</div></td></tr><tr><td><div>False</div></td></tr><tr><td><div>/ourhours/default/index</div></td></tr></table></div></td></tr></table></div></td></tr><tr><td style="font-weight:bold;vertical-align:top;">meta</td><td style="vertical-align:top;">:</td><td><div><table></table></div></td></tr><tr><td style="font-weight:bold;vertical-align:top;">models_to_run</td><td style="vertical-align:top;">:</td><td><div><table><tr><td><div>^\\w+\\.py$</div></td></tr><tr><td><div>^default/\\w+\\.py$</div></td></tr><tr><td><div>^default/create/\\w+\\.py$</div></td></tr></table></div></td></tr><tr><td style="font-weight:bold;vertical-align:top;">postprocessing</td><td style="vertical-align:top;">:</td><td><div><table></table></div></td></tr><tr><td style="font-weight:bold;vertical-align:top;">session_client</td><td style="vertical-align:top;">:</td><td><div>127.0.0.1</div></td></tr><tr><td style="font-weight:bold;vertical-align:top;">session_cookie_compression_level</td><td style="vertical-align:top;">:</td><td><div>None</div></td></tr><tr><td style="font-weight:bold;vertical-align:top;">session_cookie_expires</td><td style="vertical-align:top;">:</td><td><div>None</div></td></tr><tr><td style="font-weight:bold;vertical-align:top;">session_data_name</td><td style="vertical-align:top;">:</td><td><div>session_data_ourhours</div></td></tr><tr><td style="font-weight:bold;vertical-align:top;">session_file</td><td style="vertical-align:top;">:</td><td><div>None</div></td></tr><tr><td style="font-weight:bold;vertical-align:top;">session_filename</td><td style="vertical-align:top;">:</td><td><div>C:\\Users\\Wesly\\Desktop\\UCSC-Hack-2017\\applications\\ourhours\\sessions\\127.0.0.1-f8372184-f334-49c2-a900-825145301db6</div></td></tr><tr><td style="font-weight:bold;vertical-align:top;">session_hash</td><td style="vertical-align:top;">:</td><td><div>b547455a1ef2faf2697a8a8155ff17d1</div></td></tr><tr><td style="font-weight:bold;vertical-align:top;">session_id</td><td style="vertical-align:top;">:</td><td><div>True</div></td></tr><tr><td style="font-weight:bold;vertical-align:top;">session_id_name</td><td style="vertical-align:top;">:</td><td><div>session_id_ourhours</div></td></tr><tr><td style="font-weight:bold;vertical-align:top;">session_masterapp</td><td style="vertical-align:top;">:</td><td><div>ourhours</div></td></tr><tr><td style="font-weight:bold;vertical-align:top;">session_new</td><td style="vertical-align:top;">:</td><td><div>True</div></td></tr><tr><td style="font-weight:bold;vertical-align:top;">session_storage_type</td><td style="vertical-align:top;">:</td><td><div>cookie</div></td></tr><tr><td style="font-weight:bold;vertical-align:top;">status</td><td style="vertical-align:top;">:</td><td><div>200</div></td></tr><tr><td style="font-weight:bold;vertical-align:top;">view</td><td style="vertical-align:top;">:</td><td><div>default/create.html</div></td></tr></table></div>'
tRp112
sS'locals'
p113
(dp114
S'toggle_menuclass'
p115
S'<function toggle_menuclass>'
p116
sS'OBJECT'
p117
S"<class 'gluon.html.OBJECT'>"
p118
sS'SQLDB'
p119
S"<class 'pydal.base.DAL'>"
p120
sg105
S"<Storage {'_formkey[event/create]': ['9598c9cb-e...653cb', '8f350b99-6eee-4830-b740-391b337b9174']}>"
p121
sS'LINK'
p122
S"<class 'gluon.html.LINK'>"
p123
sS'BR'
p124
S"<class 'gluon.html.BR'>"
p125
sS'local_import'
p126
S'<function <lambda>>'
p127
sS'OPTGROUP'
p128
S"<class 'gluon.html.OPTGROUP'>"
p129
sS'LI'
p130
S"<class 'gluon.html.LI'>"
p131
sS'PRE'
p132
S"<class 'gluon.html.PRE'>"
p133
sS'IS_INT_IN_RANGE'
p134
S"<class 'gluon.validators.IS_INT_IN_RANGE'>"
p135
sS'IS_LOWER'
p136
S"<class 'gluon.validators.IS_LOWER'>"
p137
sS'IS_STRONG'
p138
S"<class 'gluon.validators.IS_STRONG'>"
p139
sS'cache'
p140
S'<gluon.cache.Cache object>'
p141
sS'IS_IN_DB'
p142
S"<class 'gluon.validators.IS_IN_DB'>"
p143
sS'TAG'
p144
S'<gluon.html.__TAG__ object>'
p145
sS'SQLField'
p146
S"<class 'pydal.objects.Field'>"
p147
sS'BODY'
p148
S"<class 'gluon.html.BODY'>"
p149
sS'IS_DATE_IN_RANGE'
p150
S"<class 'gluon.validators.IS_DATE_IN_RANGE'>"
p151
sS'random'
p152
S"<module 'random' from 'C:\\Users\\Wesly\\Desktop\\UCSC-Hack-2017\\library.zip\\random.pyc'>"
p153
sS'string'
p154
S"<module 'string' from 'C:\\Users\\Wesly\\Desktop\\UCSC-Hack-2017\\library.zip\\string.pyc'>"
p155
sS'URL'
p156
S'<function URL>'
p157
sS'__file__'
p158
S"r'C:\\Users\\Wesly\\Desktop\\UCSC-Hack-2017\\applications\\ourhours\\controllers/default.py'"
p159
sS'db'
p160
S'<DAL uri="sqlite://storage.sqlite">'
p161
sS'auth'
p162
S'<gluon.tools.Auth object>'
p163
sS'P'
S"<class 'gluon.html.P'>"
p164
sS'TFOOT'
p165
S"<class 'gluon.html.TFOOT'>"
p166
sS'XHTML'
p167
S"<class 'gluon.html.XHTML'>"
p168
sS'ON'
p169
S'True'
p170
sS'OL'
p171
S"<class 'gluon.html.OL'>"
p172
sS'TEXTAREA'
p173
S"<class 'gluon.html.TEXTAREA'>"
p174
sS'MENU'
p175
S"<class 'gluon.html.MENU'>"
p176
sS'imaplib'
p177
S"<module 'imaplib' from 'C:\\Users\\Wesly\\Desktop\\UCSC-Hack-2017\\library.zip\\imaplib.pyc'>"
p178
sS'code_feed_reader'
p179
S'<function code_feed_reader>'
p180
sS'LOAD'
p181
S'<function LOAD>'
p182
sS'CODE'
p183
S"<class 'gluon.html.CODE'>"
p184
sS'HTTP'
p185
S"<class 'gluon.http.HTTP'>"
p186
sS'HR'
p187
S"<class 'gluon.html.HR'>"
p188
sS'IS_DATETIME'
p189
S"<class 'gluon.validators.IS_DATETIME'>"
p190
sS'cookie_key'
p191
S"'cb2b0a18-15f4-480e-992f-e6b456f44cec'"
p192
sS'HEAD'
p193
S"<class 'gluon.html.HEAD'>"
p194
sS'LABEL'
p195
S"<class 'gluon.html.LABEL'>"
p196
sS'CLEANUP'
p197
S"<class 'gluon.validators.CLEANUP'>"
p198
sS'INPUT'
p199
S"<class 'gluon.html.INPUT'>"
p200
sS'SELECT'
p201
S"<class 'gluon.html.SELECT'>"
p202
sS'CENTER'
p203
S"<class 'gluon.html.CENTER'>"
p204
sS'Auth'
p205
S"<class 'gluon.tools.Auth'>"
p206
sS'__builtins__'
p207
S"{'ArithmeticError': <type 'exceptions.ArithmeticError'>, 'AssertionError': <type 'exceptions.AssertionError'>, 'AttributeError': <type 'exceptions.AttributeError'>, 'BaseException': <type 'exceptions.BaseException'>, 'BufferError': <type 'exceptions.BufferError'>, 'BytesWarning': <type 'exceptions.BytesWarning'>, 'DeprecationWarning': <type 'exceptions.DeprecationWarning'>, 'EOFError': <type 'exceptions.EOFError'>, 'Ellipsis': Ellipsis, 'EnvironmentError': <type 'exceptions.EnvironmentError'>, ...}"
p208
sS'HTML'
p209
S"<class 'gluon.html.HTML'>"
p210
sS'SQLFORM'
p211
S"<class 'gluon.sqlhtml.SQLFORM'>"
p212
sS'email'
p213
S"<module 'email' from 'C:\\Users\\Wesly\\Desktop\\UCSC-Hack-2017\\library.zip\\email\\__init__.pyc'>"
p214
sS'EM'
p215
S"<class 'gluon.html.EM'>"
p216
sS'redirect'
p217
S'<function redirect>'
p218
sS'FIELDSET'
p219
S"<class 'gluon.html.FIELDSET'>"
p220
sS'IS_EQUAL_TO'
p221
S"<class 'gluon.validators.IS_EQUAL_TO'>"
p222
sS'embed64'
p223
S'<function embed64>'
p224
sS'IS_LIST_OF'
p225
S"<class 'gluon.validators.IS_LIST_OF'>"
p226
sS'__name__'
p227
S"'__restricted__'"
p228
sS'EMBED'
p229
S"<class 'gluon.html.EMBED'>"
p230
sS'FORM'
p231
S"<class 'gluon.html.FORM'>"
p232
sS'H2'
p233
S"<class 'gluon.html.H2'>"
p234
sS'H3'
p235
S"<class 'gluon.html.H3'>"
p236
sS'BUTTON'
p237
S"<class 'gluon.html.BUTTON'>"
p238
sS'H1'
p239
S"<class 'gluon.html.H1'>"
p240
sS'H6'
p241
S"<class 'gluon.html.H6'>"
p242
sS'H4'
p243
S"<class 'gluon.html.H4'>"
p244
sS'H5'
p245
S"<class 'gluon.html.H5'>"
p246
sS'UL'
p247
S"<class 'gluon.html.UL'>"
p248
sS'IS_UPPER'
p249
S"<class 'gluon.validators.IS_UPPER'>"
p250
sS'xmlescape'
p251
S'<function xmlescape>'
p252
sS'IS_TIME'
p253
S"<class 'gluon.validators.IS_TIME'>"
p254
sS'OPTION'
p255
S"<class 'gluon.html.OPTION'>"
p256
sS'TITLE'
p257
S"<class 'gluon.html.TITLE'>"
p258
sS'CRYPT'
p259
S"<class 'gluon.validators.CRYPT'>"
p260
sS'IS_EMPTY_OR'
p261
S"<class 'gluon.validators.IS_EMPTY_OR'>"
p262
sS'MARKMIN'
p263
S"<class 'gluon.html.MARKMIN'>"
p264
sS'web2py_uuid'
p265
S'<function web2py_uuid>'
p266
sS'TH'
p267
S"<class 'gluon.html.TH'>"
p268
sS'STRONG'
p269
S"<class 'gluon.html.STRONG'>"
p270
sS'COL'
p271
S"<class 'gluon.html.COL'>"
p272
sS'SCRIPT'
p273
S"<class 'gluon.html.SCRIPT'>"
p274
sS'group_feed_reader'
p275
S'<function group_feed_reader>'
p276
sS'TABLE'
p277
S"<class 'gluon.html.TABLE'>"
p278
sS'IS_IPV4'
p279
S"<class 'gluon.validators.IS_IPV4'>"
p280
sS'IS_LENGTH'
p281
S"<class 'gluon.validators.IS_LENGTH'>"
p282
sS'IS_IPV6'
p283
S"<class 'gluon.validators.IS_IPV6'>"
p284
sS'XML'
p285
S"<class 'gluon.html.XML'>"
p286
sS'B'
S"<class 'gluon.html.B'>"
p287
sS'IMG'
p288
S"<class 'gluon.html.IMG'>"
p289
sS'SQLTABLE'
p290
S"<class 'gluon.sqlhtml.SQLTABLE'>"
p291
sS'IS_MATCH'
p292
S"<class 'gluon.validators.IS_MATCH'>"
p293
sS'IS_ALPHANUMERIC'
p294
S"<class 'gluon.validators.IS_ALPHANUMERIC'>"
p295
sS'SPAN'
p296
S"<class 'gluon.html.SPAN'>"
p297
sS'IS_JSON'
p298
S"<class 'gluon.validators.IS_JSON'>"
p299
sS'IS_IPADDRESS'
p300
S"<class 'gluon.validators.IS_IPADDRESS'>"
p301
sS'IS_SLUG'
p302
S"<class 'gluon.validators.IS_SLUG'>"
p303
sS'n'
S'4'
sS'BEAUTIFY'
p304
S"<class 'gluon.html.BEAUTIFY'>"
p305
sS'META'
p306
S"<class 'gluon.html.META'>"
p307
sS'IS_DATE'
p308
S"<class 'gluon.validators.IS_DATE'>"
p309
sS'IS_EMAIL'
p310
S"<class 'gluon.validators.IS_EMAIL'>"
p311
sS'IS_NOT_EMPTY'
p312
S"<class 'gluon.validators.IS_NOT_EMPTY'>"
p313
sg56
S"<Storage {'_vars': None, 'function': 'create', '...ktop\\\\UCSC-Hack-2017\\\\applications\\\\ourhours\\\\'}>"
p314
sS'TBODY'
p315
S"<class 'gluon.html.TBODY'>"
p316
sS'CAT'
p317
S"<class 'gluon.html.CAT'>"
p318
sS'Field'
p319
S"<class 'pydal.objects.Field'>"
p320
sS'IS_LIST_OF_EMAILS'
p321
S"<class 'gluon.validators.IS_LIST_OF_EMAILS'>"
p322
sS'Mail'
p323
S"<class 'gluon.tools.Mail'>"
p324
sS'DIV'
p325
S"<class 'gluon.html.DIV'>"
p326
sS'LEGEND'
p327
S"<class 'gluon.html.LEGEND'>"
p328
sS'COLGROUP'
p329
S"<class 'gluon.html.COLGROUP'>"
p330
sS'DAL'
p331
S"<class 'pydal.base.DAL'>"
p332
sS'ASSIGNJS'
p333
S'<function ASSIGNJS>'
p334
sS'TR'
p335
S"<class 'gluon.html.TR'>"
p336
sS'__package__'
p337
S'None'
p338
sS'IFRAME'
p339
S"<class 'gluon.html.IFRAME'>"
p340
sS'TD'
p341
S"<class 'gluon.html.TD'>"
p342
sS'IS_URL'
p343
S"<class 'gluon.validators.IS_URL'>"
p344
sS'A'
S"<class 'gluon.html.A'>"
p345
sS'STYLE'
p346
S"<class 'gluon.html.STYLE'>"
p347
sS'IS_DATETIME_IN_RANGE'
p348
S"<class 'gluon.validators.IS_DATETIME_IN_RANGE'>"
p349
sS'IS_IMAGE'
p350
S"<class 'gluon.validators.IS_IMAGE'>"
p351
sS'I'
S"<class 'gluon.html.I'>"
p352
sS'IS_NOT_IN_DB'
p353
S"<class 'gluon.validators.IS_NOT_IN_DB'>"
p354
sg111
S"<Storage {'body': <cStringIO.StringO object at 0...> at 0x08126E70>, 'view': 'default/create.html'}>"
p355
sS'THEAD'
p356
S"<class 'gluon.html.THEAD'>"
p357
sS'ANY_OF'
p358
S"<class 'gluon.validators.ANY_OF'>"
p359
sS'IS_NULL_OR'
p360
S"<class 'gluon.validators.IS_EMPTY_OR'>"
p361
sS'IS_FLOAT_IN_RANGE'
p362
S"<class 'gluon.validators.IS_FLOAT_IN_RANGE'>"
p363
sS'IS_EXPR'
p364
S"<class 'gluon.validators.IS_EXPR'>"
p365
sS'IS_IN_SET'
p366
S"<class 'gluon.validators.IS_IN_SET'>"
p367
sS'IS_UPLOAD_FILENAME'
p368
S"<class 'gluon.validators.IS_UPLOAD_FILENAME'>"
p369
sS'decode_header'
p370
S'<function decode_header>'
p371
sS'IS_DECIMAL_IN_RANGE'
p372
S"<class 'gluon.validators.IS_DECIMAL_IN_RANGE'>"
p373
sS'TT'
p374
S"<class 'gluon.html.TT'>"
p375
sS'T'
S'<gluon.languages.translator object>'
p376
sssS'traceback'
p377
S'Traceback (most recent call last):\n  File "C:\\Users\\Wesly\\Desktop\\UCSC-Hack-2017\\gluon\\restricted.py", line 227, in restricted\n    exec ccode in environment\n  File "C:\\Users\\Wesly\\Desktop\\UCSC-Hack-2017\\applications\\ourhours\\controllers/default.py", line 6, in <module>\n    mail.settings.server = \'smtp.gmail.com:587\'\nNameError: name \'mail\' is not defined\n'
p378
s.