(dp1
S'output'
p2
S"<type 'exceptions.TypeError'> <generator object <genexpr> at 0x079B5F08> is not JSON serializable"
p3
sS'layer'
p4
S'C:\\Users\\Wesly\\Desktop\\UCSC-Hack-2017\\applications\\ourhours\\controllers/default.py'
p5
sS'code'
p6
S"from gluon.tools import Mail\nimport imaplib\nimport email\nfrom email.header import decode_header\n\nimport random\nimport string\ndef index():\n    groups = db(db.groups).select(db.groups.ALL)\n    return locals()\n\n# @auth.requires_login()\ndef create():\n    form = SQLFORM(db.groups, deletable=True).process()\n    if form.accepted:\n        \n        redirect(URL('index'))\n    return locals()\n\ndef join():\n    groups = db(db.groups).select(db.groups.group_code)\n    form = SQLFORM(db.join_group, deletable=True).process()\n    if form.accepted:\n        for groups in groups:\n            # response.flash = groups.group_code\n            if request.vars.join_code in groups.group_code:\n                response.flash = 'Welcome to the group!'\n                redirect(URL('index'))\n    return locals()\n\n# @auth.requires_login()\ndef ecreate():\n    form = SQLFORM(db.event, deletable=True).process()\n    if form.accepted:\n        redirect(URL('index'))\n    return locals()\n\nimport json\n# @auth.requires_login()\ndef event_page():\n    #currently faulty, returns all events\n    g = db.groups(request.args(0,cast=int)) or redirect(URL('index'))\n    db.event.event_id.default = g.id\n    db.event.event_code.default = g.group_code\n    # event = db(db.event.event_id == g.id).select()\n    event = db(db.event).select(db.event.ALL)\n    json_data = json.dumps([e.event_allDay, e.event_name, e.event_id, e.start, e.end, e.event_description] for e in event)\n\n    return locals()\n\ndef user():\n    return dict(form=auth())\n\ndef download():\n    return response.download(request, db)\n\ndef picture():\n    return response.view(request, db)\n\nresponse._vars=response._caller(event_page)\n"
p7
sS'snapshot'
p8
(dp9
S'exception'
p10
(dp11
S'__hash__'
p12
S"<method-wrapper '__hash__' of exceptions.TypeError object>"
p13
sS'__setattr__'
p14
S"<method-wrapper '__setattr__' of exceptions.TypeError object>"
p15
sS'__reduce_ex__'
p16
S'<built-in method __reduce_ex__ of exceptions.TypeError object>'
p17
sS'__getslice__'
p18
S"<method-wrapper '__getslice__' of exceptions.TypeError object>"
p19
sS'__getitem__'
p20
S"<method-wrapper '__getitem__' of exceptions.TypeError object>"
p21
sS'__setstate__'
p22
S'<built-in method __setstate__ of exceptions.TypeError object>'
p23
sS'__reduce__'
p24
S'<built-in method __reduce__ of exceptions.TypeError object>'
p25
sS'__str__'
p26
S"<method-wrapper '__str__' of exceptions.TypeError object>"
p27
sS'__format__'
p28
S'<built-in method __format__ of exceptions.TypeError object>'
p29
sS'__getattribute__'
p30
S"<method-wrapper '__getattribute__' of exceptions.TypeError object>"
p31
sS'__class__'
p32
S"<type 'exceptions.TypeError'>"
p33
sS'__unicode__'
p34
S'<built-in method __unicode__ of exceptions.TypeError object>'
p35
sS'__delattr__'
p36
S"<method-wrapper '__delattr__' of exceptions.TypeError object>"
p37
sS'__subclasshook__'
p38
S'<built-in method __subclasshook__ of type object>'
p39
sS'__repr__'
p40
S"<method-wrapper '__repr__' of exceptions.TypeError object>"
p41
sS'args'
p42
S"('<generator object <genexpr> at 0x079B5F08> is not JSON serializable',)"
p43
sS'__dict__'
p44
S'{}'
p45
sS'__sizeof__'
p46
S'<built-in method __sizeof__ of exceptions.TypeError object>'
p47
sS'__doc__'
p48
S"'Inappropriate argument type.'"
p49
sS'__init__'
p50
S"<method-wrapper '__init__' of exceptions.TypeError object>"
p51
sS'__new__'
p52
S'<built-in method __new__ of type object>'
p53
ssS'evalue'
p54
S'<generator object <genexpr> at 0x079B5F08> is not JSON serializable'
p55
sS'request'
p56
cgluon.html
XML_unpickle
p57
(S's\x01\x96\x00\x00<div><table><tr><td style="font-weight:bold;vertical-align:top;">ajax</td><td style="vertical-align:top;">:</td><td><div>False</div></td></tr><tr><td style="font-weight:bold;vertical-align:top;">application</td><td style="vertical-align:top;">:</td><td><div>ourhours</div></td></tr><tr><td style="font-weight:bold;vertical-align:top;">args</td><td style="vertical-align:top;">:</td><td><div><table><tr><td><div>21</div></td></tr></table></div></td></tr><tr><td style="font-weight:bold;vertical-align:top;">cid</td><td style="vertical-align:top;">:</td><td><div>None</div></td></tr><tr><td style="font-weight:bold;vertical-align:top;">client</td><td style="vertical-align:top;">:</td><td><div>127.0.0.1</div></td></tr><tr><td style="font-weight:bold;vertical-align:top;">controller</td><td style="vertical-align:top;">:</td><td><div>default</div></td></tr><tr><td style="font-weight:bold;vertical-align:top;">cookies</td><td style="vertical-align:top;">:</td><td><div><table><tr><td style="font-weight:bold;vertical-align:top;">resolution</td><td style="vertical-align:top;">:</td><td><div>1349<table><tr><td style="font-weight:bold;vertical-align:top;">comment</td><td style="vertical-align:top;">:</td><td><div></div></td></tr><tr><td style="font-weight:bold;vertical-align:top;">domain</td><td style="vertical-align:top;">:</td><td><div></div></td></tr><tr><td style="font-weight:bold;vertical-align:top;">expires</td><td style="vertical-align:top;">:</td><td><div></div></td></tr><tr><td style="font-weight:bold;vertical-align:top;">httponly</td><td style="vertical-align:top;">:</td><td><div></div></td></tr><tr><td style="font-weight:bold;vertical-align:top;">max-age</td><td style="vertical-align:top;">:</td><td><div></div></td></tr><tr><td style="font-weight:bold;vertical-align:top;">path</td><td style="vertical-align:top;">:</td><td><div></div></td></tr><tr><td style="font-weight:bold;vertical-align:top;">secure</td><td style="vertical-align:top;">:</td><td><div></div></td></tr><tr><td style="font-weight:bold;vertical-align:top;">version</td><td style="vertical-align:top;">:</td><td><div></div></td></tr></table></div></td></tr><tr><td style="font-weight:bold;vertical-align:top;">session_data_ourhours</td><td style="vertical-align:top;">:</td><td><div>a0a369280f098a53464524fc7581b514:RMcbfal4fuGmBX5FHuboNVJEeiLBniudnMrnbdlHihEN9ug7jFbB0SVWP4JMjhyeUg3_GRS1dzKslpw9Gj_tqin5hWZr4Xtz-Pe3Z3cSoQEEn8AwD-OQqbs7MWu7NOvB8lqh9Y_lIz7X7C7s0MXsBH5j7Mve3K7th3N--vWWvaJtLYi_RrQstOCb09jHDY1LXbSfiZiuJ1wmuEbsI4kwrHuy8F05-xhgW0wdSQCSO1gvxmhxMyYcCWLOIU-I3Gsup1_5rETIQ7x4xPZeN0nfs2TPMbg0Xg69Wtro84ne2SMHOvNPNJUeys8B1pFUUlEYzSPrdf1filj_uy6gN--r9LP1mVCXadcl26Kt25tuQMvXYZ0Uxq9qjcJTLmXMSv0izWcqEohLXwsnDg11g2soDoU4Ir3ekPD-L0-tBgFF6oLxDLJrtnpo_gmzAwWvVIet1XExs5cv0f9I5XIlH1Lpo26lMEh-oz5VYks39HvFE3VW_wGWgec-6hT-spVBJpENP9lnyWkTR9lRmr7T3HezLtqy40ztIhIhflsZPL6yljlOTnueL5okJOSSOb2BsKTys-RBHbMv2qDWrpw-d56DOqJxiwzzNBMCLveLG3JibzrQaCQCCoJhMpMyOHPM4HN1MrjJQaDNDs3TAyK8wnj0jVPxCtXQ50oRsZz1QzaC6OSb_qzFQpcDqHmtViKtz-HhJ48c168P0ifyA57NJsxS19zSJlkv9YJoH_jGE5XlOHxc-M5RkJcDfby2FFOt3mAv8-wnSkuGQXUeDwml2cI7jO_zLsOkp8dyEQvTMuNHo87-Sfj9jLPtd2R61Ad2ImYt3TOj9jvHLRjWKHsxkMfxN0-0K5Yw3rqcDyNJXfN3v9LC902KuHnPQHPqC9rUPs4-b0vbZ9JxPjkblghUQPbv9Ispl_tnKz0IsxKV5Srmo6XPUYPmhPnP8MuAN-1U--9sIdPkoRz9r9hh_azySImN4ZQWc3vfK4SKsv7zOQb7s5CklFMVKXCy-Fi6MpmciOOrDK7KqI1ocpfSguOhGUOfN8Dcv0X44dFL-d8ZzduWn9Y3YScDVNU8IqoVvrHHYC6p6wm4zowgVy9KtOEJmHLPxh5ZLIby4FR49u6Eu3yGQPJwGiur9jXYWG7sjywOPvccFF-KvA_yzFv9cVoiZccz9DYmvOCH3y26w_HwMvQJh3xn4csKUF8Z4iKLtSU0Vj6WSKAI2_wUbcOI9IZzfcJB0sXtBhOMYbT3XuG3Jn9bkbeM-jURBornWOts4lrMrCd1XINg0yU1z7kDlV7iqQV1RGkta3VjCff9GIwv7KjoIH6jFhJ5N4Ywx-JBOkupmPWoxZVQDjLtVlrUDe6lh3pk1OhKC-cfxi6xXXEv5vG9heR_kb19qpqJlkR61hgbW9Sgi6iQK3l7ZLfCulYSXFoOI63N_rmu_HkOzL7npWpnfMyt1aHDTPVOC4sQnHwYl8NtEY-anHfdVI1K34-gEWvlaXZiXS36lq0eUsrfVT7NF20JuCkbMO_PQOqoND4Dxwdte-Krf5ZbCxI5AQxItRkJK_KyGTQOmrLr2SJlDeGjxX3EMi8zzjIhD_shvMZAiHMTC7KcDPS8dJ6OoyIqdQQ_qyYiFLzkVx1OOTUnOW7NXomnwtJIN-s6KeoBd1H5VLkSTzSyZKc4uDfCzaZdf5u5Aph0GTuhzq1u3wn4KI5X2VlwWppG13Lv3f9sCN92-4MoPt8XCpiEpjQ4CBaeWPTlF--XkAyZNv58c__VGRON9UWekRhtMRAMITTKhfca3DIbQW9hQYkxVE3F9Zora5uFERpT1SK-MD7ET2bumuSwoWXyhEH4lpJYhDf2XhUVBitCTshwbOXR9vaS9paG_CupkOZ6wAYSqxWJbapmljZZQGSRpuNreJ33eK2CckfGYO96UdZq4X6jQkJkqW1m4s7qUBxpa80iMROBT6YavaeAsX3opdRWPuSR8J3c0vlQOZQMZbUKqT2KLrZzxeRdkWSuhGUteuGLhnsUu5dWCXTwLXXVUH11YukNLcZPDB5_vYUGhpXbh4HzJmQDI0NKFfgTjYqvf4C6o32uPYSumBjYZ6-k-TiSDknJRC97Xxfh0HizKfbvKchVaaq9wk6JcKwM9LjBh60HN7IthkL_xMQZWoGochihL_1iX5KnogZ4_fWpziQ05ftXxU7eo1wfzWXL6PTbeUHCFaza452oa_MylJ7LQgHYyCW8_dJ4lBD5um0_ptSGcdq7EXdg44u0mwFtqXqdTCEaB-UKKExkyB4_E4Jg70l44cUgZ-2D9p-yz0fF3FasTtF2LT72OEyUfTXr7tAjDcsus0yeLBuv9t7IHxRnTSqCjT9xrReaiJEVb70bPnOMw1OpODZbL24620ZMQn5YCXgfAG39-ujwwa0nC_4sbwWqTEAZuELcA9b9gr_usuI1-X1De5Speq1HVsEarvoUhUocj6Tdxip84oJWKwU1NupH9EZi61MdkUa9ZdacUzczKkA5tLRF1XFViyBkK5OKBzpgrBJ5QB-N0-sD9Xo=<table><tr><td style="font-weight:bold;vertical-align:top;">comment</td><td style="vertical-align:top;">:</td><td><div></div></td></tr><tr><td style="font-weight:bold;vertical-align:top;">domain</td><td style="vertical-align:top;">:</td><td><div></div></td></tr><tr><td style="font-weight:bold;vertical-align:top;">expires</td><td style="vertical-align:top;">:</td><td><div></div></td></tr><tr><td style="font-weight:bold;vertical-align:top;">httponly</td><td style="vertical-align:top;">:</td><td><div></div></td></tr><tr><td style="font-weight:bold;vertical-align:top;">max-age</td><td style="vertical-align:top;">:</td><td><div></div></td></tr><tr><td style="font-weight:bold;vertical-align:top;">path</td><td style="vertical-align:top;">:</td><td><div></div></td></tr><tr><td style="font-weight:bold;vertical-align:top;">secure</td><td style="vertical-align:top;">:</td><td><div></div></td></tr><tr><td style="font-weight:bold;vertical-align:top;">version</td><td style="vertical-align:top;">:</td><td><div></div></td></tr></table></div></td></tr><tr><td style="font-weight:bold;vertical-align:top;">session_id_admin</td><td style="vertical-align:top;">:</td><td><div>127.0.0.1-5e4d5587-8e46-4ab9-bda4-cde90ee24cff<table><tr><td style="font-weight:bold;vertical-align:top;">comment</td><td style="vertical-align:top;">:</td><td><div></div></td></tr><tr><td style="font-weight:bold;vertical-align:top;">domain</td><td style="vertical-align:top;">:</td><td><div></div></td></tr><tr><td style="font-weight:bold;vertical-align:top;">expires</td><td style="vertical-align:top;">:</td><td><div></div></td></tr><tr><td style="font-weight:bold;vertical-align:top;">httponly</td><td style="vertical-align:top;">:</td><td><div></div></td></tr><tr><td style="font-weight:bold;vertical-align:top;">max-age</td><td style="vertical-align:top;">:</td><td><div></div></td></tr><tr><td style="font-weight:bold;vertical-align:top;">path</td><td style="vertical-align:top;">:</td><td><div></div></td></tr><tr><td style="font-weight:bold;vertical-align:top;">secure</td><td style="vertical-align:top;">:</td><td><div></div></td></tr><tr><td style="font-weight:bold;vertical-align:top;">version</td><td style="vertical-align:top;">:</td><td><div></div></td></tr></table></div></td></tr><tr><td style="font-weight:bold;vertical-align:top;">session_id_hackathon</td><td style="vertical-align:top;">:</td><td><div>127.0.0.1-e9d19e57-2c82-4246-95e2-3afb87897355<table><tr><td style="font-weight:bold;vertical-align:top;">comment</td><td style="vertical-align:top;">:</td><td><div></div></td></tr><tr><td style="font-weight:bold;vertical-align:top;">domain</td><td style="vertical-align:top;">:</td><td><div></div></td></tr><tr><td style="font-weight:bold;vertical-align:top;">expires</td><td style="vertical-align:top;">:</td><td><div></div></td></tr><tr><td style="font-weight:bold;vertical-align:top;">httponly</td><td style="vertical-align:top;">:</td><td><div></div></td></tr><tr><td style="font-weight:bold;vertical-align:top;">max-age</td><td style="vertical-align:top;">:</td><td><div></div></td></tr><tr><td style="font-weight:bold;vertical-align:top;">path</td><td style="vertical-align:top;">:</td><td><div></div></td></tr><tr><td style="font-weight:bold;vertical-align:top;">secure</td><td style="vertical-align:top;">:</td><td><div></div></td></tr><tr><td style="font-weight:bold;vertical-align:top;">version</td><td style="vertical-align:top;">:</td><td><div></div></td></tr></table></div></td></tr><tr><td style="font-weight:bold;vertical-align:top;">session_id_hw</td><td style="vertical-align:top;">:</td><td><div>127.0.0.1-23223d0c-fdad-4421-b0fa-bfb22452a98b<table><tr><td style="font-weight:bold;vertical-align:top;">comment</td><td style="vertical-align:top;">:</td><td><div></div></td></tr><tr><td style="font-weight:bold;vertical-align:top;">domain</td><td style="vertical-align:top;">:</td><td><div></div></td></tr><tr><td style="font-weight:bold;vertical-align:top;">expires</td><td style="vertical-align:top;">:</td><td><div></div></td></tr><tr><td style="font-weight:bold;vertical-align:top;">httponly</td><td style="vertical-align:top;">:</td><td><div></div></td></tr><tr><td style="font-weight:bold;vertical-align:top;">max-age</td><td style="vertical-align:top;">:</td><td><div></div></td></tr><tr><td style="font-weight:bold;vertical-align:top;">path</td><td style="vertical-align:top;">:</td><td><div></div></td></tr><tr><td style="font-weight:bold;vertical-align:top;">secure</td><td style="vertical-align:top;">:</td><td><div></div></td></tr><tr><td style="font-weight:bold;vertical-align:top;">version</td><td style="vertical-align:top;">:</td><td><div></div></td></tr></table></div></td></tr><tr><td style="font-weight:bold;vertical-align:top;">session_id_layouttest</td><td style="vertical-align:top;">:</td><td><div>127.0.0.1-9dd550cb-7d25-4599-add6-bbf406414416<table><tr><td style="font-weight:bold;vertical-align:top;">comment</td><td style="vertical-align:top;">:</td><td><div></div></td></tr><tr><td style="font-weight:bold;vertical-align:top;">domain</td><td style="vertical-align:top;">:</td><td><div></div></td></tr><tr><td style="font-weight:bold;vertical-align:top;">expires</td><td style="vertical-align:top;">:</td><td><div></div></td></tr><tr><td style="font-weight:bold;vertical-align:top;">httponly</td><td style="vertical-align:top;">:</td><td><div></div></td></tr><tr><td style="font-weight:bold;vertical-align:top;">max-age</td><td style="vertical-align:top;">:</td><td><div></div></td></tr><tr><td style="font-weight:bold;vertical-align:top;">path</td><td style="vertical-align:top;">:</td><td><div></div></td></tr><tr><td style="font-weight:bold;vertical-align:top;">secure</td><td style="vertical-align:top;">:</td><td><div></div></td></tr><tr><td style="font-weight:bold;vertical-align:top;">version</td><td style="vertical-align:top;">:</td><td><div></div></td></tr></table></div></td></tr><tr><td style="font-weight:bold;vertical-align:top;">session_id_ourhours</td><td style="vertical-align:top;">:</td><td><div>True<table><tr><td style="font-weight:bold;vertical-align:top;">comment</td><td style="vertical-align:top;">:</td><td><div></div></td></tr><tr><td style="font-weight:bold;vertical-align:top;">domain</td><td style="vertical-align:top;">:</td><td><div></div></td></tr><tr><td style="font-weight:bold;vertical-align:top;">expires</td><td style="vertical-align:top;">:</td><td><div></div></td></tr><tr><td style="font-weight:bold;vertical-align:top;">httponly</td><td style="vertical-align:top;">:</td><td><div></div></td></tr><tr><td style="font-weight:bold;vertical-align:top;">max-age</td><td style="vertical-align:top;">:</td><td><div></div></td></tr><tr><td style="font-weight:bold;vertical-align:top;">path</td><td style="vertical-align:top;">:</td><td><div></div></td></tr><tr><td style="font-weight:bold;vertical-align:top;">secure</td><td style="vertical-align:top;">:</td><td><div></div></td></tr><tr><td style="font-weight:bold;vertical-align:top;">version</td><td style="vertical-align:top;">:</td><td><div></div></td></tr></table></div></td></tr><tr><td style="font-weight:bold;vertical-align:top;">session_id_welcome</td><td style="vertical-align:top;">:</td><td><div>127.0.0.1-3404b542-72e6-426d-9bd7-f225ed0f1803<table><tr><td style="font-weight:bold;vertical-align:top;">comment</td><td style="vertical-align:top;">:</td><td><div></div></td></tr><tr><td style="font-weight:bold;vertical-align:top;">domain</td><td style="vertical-align:top;">:</td><td><div></div></td></tr><tr><td style="font-weight:bold;vertical-align:top;">expires</td><td style="vertical-align:top;">:</td><td><div></div></td></tr><tr><td style="font-weight:bold;vertical-align:top;">httponly</td><td style="vertical-align:top;">:</td><td><div></div></td></tr><tr><td style="font-weight:bold;vertical-align:top;">max-age</td><td style="vertical-align:top;">:</td><td><div></div></td></tr><tr><td style="font-weight:bold;vertical-align:top;">path</td><td style="vertical-align:top;">:</td><td><div></div></td></tr><tr><td style="font-weight:bold;vertical-align:top;">secure</td><td style="vertical-align:top;">:</td><td><div></div></td></tr><tr><td style="font-weight:bold;vertical-align:top;">version</td><td style="vertical-align:top;">:</td><td><div></div></td></tr></table></div></td></tr></table></div></td></tr><tr><td style="font-weight:bold;vertical-align:top;">env</td><td style="vertical-align:top;">:</td><td><div><table><tr><td style="font-weight:bold;vertical-align:top;">HTTP_ACCEPT</td><td style="vertical-align:top;">:</td><td><div>text/html,application/xhtml+xml,application/xml;q=0.9,image/webp,*/*;q=0.8</div></td></tr><tr><td style="font-weight:bold;vertical-align:top;">HTTP_ACCEPT_ENCODING</td><td style="vertical-align:top;">:</td><td><div>gzip, deflate, sdch, br</div></td></tr><tr><td style="font-weight:bold;vertical-align:top;">HTTP_ACCEPT_LANGUAGE</td><td style="vertical-align:top;">:</td><td><div>en-US,en;q=0.8</div></td></tr><tr><td style="font-weight:bold;vertical-align:top;">HTTP_CONNECTION</td><td style="vertical-align:top;">:</td><td><div>keep-alive</div></td></tr><tr><td style="font-weight:bold;vertical-align:top;">HTTP_COOKIE</td><td style="vertical-align:top;">:</td><td><div>session_id_layouttest=127.0.0.1-9dd550cb-7d25-4599-add6-bbf406414416; resolution=1349; session_id_hackathon=127.0.0.1-e9d19e57-2c82-4246-95e2-3afb87897355; session_id_hw=127.0.0.1-23223d0c-fdad-4421-b0fa-bfb22452a98b; session_id_welcome=127.0.0.1-3404b542-72e6-426d-9bd7-f225ed0f1803; session_id_admin=127.0.0.1-5e4d5587-8e46-4ab9-bda4-cde90ee24cff; session_data_ourhours=&quot;a0a369280f098a53464524fc7581b514:RMcbfal4fuGmBX5FHuboNVJEeiLBniudnMrnbdlHihEN9ug7jFbB0SVWP4JMjhyeUg3_GRS1dzKslpw9Gj_tqin5hWZr4Xtz-Pe3Z3cSoQEEn8AwD-OQqbs7MWu7NOvB8lqh9Y_lIz7X7C7s0MXsBH5j7Mve3K7th3N--vWWvaJtLYi_RrQstOCb09jHDY1LXbSfiZiuJ1wmuEbsI4kwrHuy8F05-xhgW0wdSQCSO1gvxmhxMyYcCWLOIU-I3Gsup1_5rETIQ7x4xPZeN0nfs2TPMbg0Xg69Wtro84ne2SMHOvNPNJUeys8B1pFUUlEYzSPrdf1filj_uy6gN--r9LP1mVCXadcl26Kt25tuQMvXYZ0Uxq9qjcJTLmXMSv0izWcqEohLXwsnDg11g2soDoU4Ir3ekPD-L0-tBgFF6oLxDLJrtnpo_gmzAwWvVIet1XExs5cv0f9I5XIlH1Lpo26lMEh-oz5VYks39HvFE3VW_wGWgec-6hT-spVBJpENP9lnyWkTR9lRmr7T3HezLtqy40ztIhIhflsZPL6yljlOTnueL5okJOSSOb2BsKTys-RBHbMv2qDWrpw-d56DOqJxiwzzNBMCLveLG3JibzrQaCQCCoJhMpMyOHPM4HN1MrjJQaDNDs3TAyK8wnj0jVPxCtXQ50oRsZz1QzaC6OSb_qzFQpcDqHmtViKtz-HhJ48c168P0ifyA57NJsxS19zSJlkv9YJoH_jGE5XlOHxc-M5RkJcDfby2FFOt3mAv8-wnSkuGQXUeDwml2cI7jO_zLsOkp8dyEQvTMuNHo87-Sfj9jLPtd2R61Ad2ImYt3TOj9jvHLRjWKHsxkMfxN0-0K5Yw3rqcDyNJXfN3v9LC902KuHnPQHPqC9rUPs4-b0vbZ9JxPjkblghUQPbv9Ispl_tnKz0IsxKV5Srmo6XPUYPmhPnP8MuAN-1U--9sIdPkoRz9r9hh_azySImN4ZQWc3vfK4SKsv7zOQb7s5CklFMVKXCy-Fi6MpmciOOrDK7KqI1ocpfSguOhGUOfN8Dcv0X44dFL-d8ZzduWn9Y3YScDVNU8IqoVvrHHYC6p6wm4zowgVy9KtOEJmHLPxh5ZLIby4FR49u6Eu3yGQPJwGiur9jXYWG7sjywOPvccFF-KvA_yzFv9cVoiZccz9DYmvOCH3y26w_HwMvQJh3xn4csKUF8Z4iKLtSU0Vj6WSKAI2_wUbcOI9IZzfcJB0sXtBhOMYbT3XuG3Jn9bkbeM-jURBornWOts4lrMrCd1XINg0yU1z7kDlV7iqQV1RGkta3VjCff9GIwv7KjoIH6jFhJ5N4Ywx-JBOkupmPWoxZVQDjLtVlrUDe6lh3pk1OhKC-cfxi6xXXEv5vG9heR_kb19qpqJlkR61hgbW9Sgi6iQK3l7ZLfCulYSXFoOI63N_rmu_HkOzL7npWpnfMyt1aHDTPVOC4sQnHwYl8NtEY-anHfdVI1K34-gEWvlaXZiXS36lq0eUsrfVT7NF20JuCkbMO_PQOqoND4Dxwdte-Krf5ZbCxI5AQxItRkJK_KyGTQOmrLr2SJlDeGjxX3EMi8zzjIhD_shvMZAiHMTC7KcDPS8dJ6OoyIqdQQ_qyYiFLzkVx1OOTUnOW7NXomnwtJIN-s6KeoBd1H5VLkSTzSyZKc4uDfCzaZdf5u5Aph0GTuhzq1u3wn4KI5X2VlwWppG13Lv3f9sCN92-4MoPt8XCpiEpjQ4CBaeWPTlF--XkAyZNv58c__VGRON9UWekRhtMRAMITTKhfca3DIbQW9hQYkxVE3F9Zora5uFERpT1SK-MD7ET2bumuSwoWXyhEH4lpJYhDf2XhUVBitCTshwbOXR9vaS9paG_CupkOZ6wAYSqxWJbapmljZZQGSRpuNreJ33eK2CckfGYO96UdZq4X6jQkJkqW1m4s7qUBxpa80iMROBT6YavaeAsX3opdRWPuSR8J3c0vlQOZQMZbUKqT2KLrZzxeRdkWSuhGUteuGLhnsUu5dWCXTwLXXVUH11YukNLcZPDB5_vYUGhpXbh4HzJmQDI0NKFfgTjYqvf4C6o32uPYSumBjYZ6-k-TiSDknJRC97Xxfh0HizKfbvKchVaaq9wk6JcKwM9LjBh60HN7IthkL_xMQZWoGochihL_1iX5KnogZ4_fWpziQ05ftXxU7eo1wfzWXL6PTbeUHCFaza452oa_MylJ7LQgHYyCW8_dJ4lBD5um0_ptSGcdq7EXdg44u0mwFtqXqdTCEaB-UKKExkyB4_E4Jg70l44cUgZ-2D9p-yz0fF3FasTtF2LT72OEyUfTXr7tAjDcsus0yeLBuv9t7IHxRnTSqCjT9xrReaiJEVb70bPnOMw1OpODZbL24620ZMQn5YCXgfAG39-ujwwa0nC_4sbwWqTEAZuELcA9b9gr_usuI1-X1De5Speq1HVsEarvoUhUocj6Tdxip84oJWKwU1NupH9EZi61MdkUa9ZdacUzczKkA5tLRF1XFViyBkK5OKBzpgrBJ5QB-N0-sD9Xo=&quot;; session_id_ourhours=True</div></td></tr><tr><td style="font-weight:bold;vertical-align:top;">HTTP_HOST</td><td style="vertical-align:top;">:</td><td><div>127.0.0.1:8000</div></td></tr><tr><td style="font-weight:bold;vertical-align:top;">HTTP_REFERER</td><td style="vertical-align:top;">:</td><td><div>http://127.0.0.1:8000/ourhours/default/index</div></td></tr><tr><td style="font-weight:bold;vertical-align:top;">HTTP_UPGRADE_INSECURE_REQUESTS</td><td style="vertical-align:top;">:</td><td><div>1</div></td></tr><tr><td style="font-weight:bold;vertical-align:top;">HTTP_USER_AGENT</td><td style="vertical-align:top;">:</td><td><div>Mozilla/5.0 (Windows NT 10.0; Win64; x64) AppleWebKit/537.36 (KHTML, like Gecko) Chrome/55.0.2883.87 Safari/537.36</div></td></tr><tr><td style="font-weight:bold;vertical-align:top;">PATH_INFO</td><td style="vertical-align:top;">:</td><td><div>/ourhours/default/event_page/21</div></td></tr><tr><td style="font-weight:bold;vertical-align:top;">QUERY_STRING</td><td style="vertical-align:top;">:</td><td><div></div></td></tr><tr><td style="font-weight:bold;vertical-align:top;">REMOTE_ADDR</td><td style="vertical-align:top;">:</td><td><div>127.0.0.1</div></td></tr><tr><td style="font-weight:bold;vertical-align:top;">REMOTE_PORT</td><td style="vertical-align:top;">:</td><td><div>50588</div></td></tr><tr><td style="font-weight:bold;vertical-align:top;">REQUEST_METHOD</td><td style="vertical-align:top;">:</td><td><div>GET</div></td></tr><tr><td style="font-weight:bold;vertical-align:top;">SCRIPT_NAME</td><td style="vertical-align:top;">:</td><td><div></div></td></tr><tr><td style="font-weight:bold;vertical-align:top;">SERVER_NAME</td><td style="vertical-align:top;">:</td><td><div>DESKTOP-GDD7DCK</div></td></tr><tr><td style="font-weight:bold;vertical-align:top;">SERVER_PORT</td><td style="vertical-align:top;">:</td><td><div>8000</div></td></tr><tr><td style="font-weight:bold;vertical-align:top;">SERVER_PROTOCOL</td><td style="vertical-align:top;">:</td><td><div>HTTP/1.1</div></td></tr><tr><td style="font-weight:bold;vertical-align:top;">SERVER_SOFTWARE</td><td style="vertical-align:top;">:</td><td><div>Rocket 1.2.6</div></td></tr><tr><td style="font-weight:bold;vertical-align:top;">app_folders</td><td style="vertical-align:top;">:</td><td><div>set([&#x27;C:\\\\Users\\\\Wesly\\\\Desktop\\\\UCSC-Hack-2017\\\\applications\\\\welcome\\\\&#x27;, &#x27;C:\\\\Users\\\\Wesly\\\\Desktop\\\\UCSC-Hack-2017\\\\applications\\\\examples\\\\&#x27;, &#x27;C:\\\\Users\\\\Wesly\\\\Desktop\\\\UCSC-Hack-2017\\\\applications\\\\ourhours\\\\&#x27;, &#x27;C:\\\\Users\\\\Wesly\\\\Desktop\\\\UCSC-Hack-2017\\\\applications\\\\admin\\\\&#x27;])</div></td></tr><tr><td style="font-weight:bold;vertical-align:top;">applications_parent</td><td style="vertical-align:top;">:</td><td><div>C:\\Users\\Wesly\\Desktop\\UCSC-Hack-2017</div></td></tr><tr><td style="font-weight:bold;vertical-align:top;">cmd_args</td><td style="vertical-align:top;">:</td><td><div><table></table></div></td></tr><tr><td style="font-weight:bold;vertical-align:top;">cmd_options</td><td style="vertical-align:top;">:</td><td><div>&lt;Values at 0x2ddaeb8: {&#x27;verbose&#x27;: False, &#x27;ip&#x27;: &#x27;127.0.0.1&#x27;, &#x27;debuglevel&#x27;: 30, &#x27;with_scheduler&#x27;: False, &#x27;shutdown_timeout&#x27;: 5, &#x27;taskbar&#x27;: False, &#x27;with_coverage&#x27;: False, &#x27;pid_filename&#x27;: &#x27;httpserver.pid&#x27;, &#x27;maxthreads&#x27;: None, &#x27;softcron&#x27;: False, &#x27;server_name&#x27;: &#x27;DESKTOP-GDD7DCK&#x27;, &#x27;bpython&#x27;: False, &#x27;nogui&#x27;: False, &#x27;port&#x27;: 8000, &#x27;print_errors&#x27;: False, &#x27;extcron&#x27;: False, &#x27;runcron&#x27;: False, &#x27;run_system_tests&#x27;: False, &#x27;test&#x27;: None, &#x27;folder&#x27;: &#x27;C:\\\\Users\\\\Wesly\\\\Desktop\\\\UCSC-Hack-2017&#x27;, &#x27;config&#x27;: &#x27;&#x27;, &#x27;minthreads&#x27;: None, &#x27;shell&#x27;: None, &#x27;run&#x27;: &#x27;&#x27;, &#x27;log_filename&#x27;: &#x27;httpserver.log&#x27;, &#x27;profiler_dir&#x27;: None, &#x27;args&#x27;: [&#x27;&#x27;], &#x27;socket_timeout&#x27;: 5, &#x27;ssl_ca_certificate&#x27;: None, &#x27;scheduler&#x27;: None, &#x27;interfaces&#x27;: None, &#x27;ssl_private_key&#x27;: &#x27;&#x27;, &#x27;gae&#x27;: None, &#x27;password&#x27;: &#x27;******&#x27;, &#x27;request_queue_size&#x27;: 5, &#x27;ssl_certificate&#x27;: &#x27;&#x27;, &#x27;cronjob&#x27;: False, &#x27;numthreads&#x27;: None, &#x27;quiet&#x27;: False, &#x27;import_models&#x27;: False, &#x27;timeout&#x27;: 10, &#x27;plain&#x27;: False, &#x27;nobanner&#x27;: False}&gt;</div></td></tr><tr><td style="font-weight:bold;vertical-align:top;">db_sessions</td><td style="vertical-align:top;">:</td><td><div>set([])</div></td></tr><tr><td style="font-weight:bold;vertical-align:top;">debugging</td><td style="vertical-align:top;">:</td><td><div>True</div></td></tr><tr><td style="font-weight:bold;vertical-align:top;">gluon_parent</td><td style="vertical-align:top;">:</td><td><div>C:\\Users\\Wesly\\Desktop\\UCSC-Hack-2017</div></td></tr><tr><td style="font-weight:bold;vertical-align:top;">http_accept</td><td style="vertical-align:top;">:</td><td><div>text/html,application/xhtml+xml,application/xml;q=0.9,image/webp,*/*;q=0.8</div></td></tr><tr><td style="font-weight:bold;vertical-align:top;">http_accept_encoding</td><td style="vertical-align:top;">:</td><td><div>gzip, deflate, sdch, br</div></td></tr><tr><td style="font-weight:bold;vertical-align:top;">http_accept_language</td><td style="vertical-align:top;">:</td><td><div>en-US,en;q=0.8</div></td></tr><tr><td style="font-weight:bold;vertical-align:top;">http_connection</td><td style="vertical-align:top;">:</td><td><div>keep-alive</div></td></tr><tr><td style="font-weight:bold;vertical-align:top;">http_cookie</td><td style="vertical-align:top;">:</td><td><div>session_id_layouttest=127.0.0.1-9dd550cb-7d25-4599-add6-bbf406414416; resolution=1349; session_id_hackathon=127.0.0.1-e9d19e57-2c82-4246-95e2-3afb87897355; session_id_hw=127.0.0.1-23223d0c-fdad-4421-b0fa-bfb22452a98b; session_id_welcome=127.0.0.1-3404b542-72e6-426d-9bd7-f225ed0f1803; session_id_admin=127.0.0.1-5e4d5587-8e46-4ab9-bda4-cde90ee24cff; session_data_ourhours=&quot;a0a369280f098a53464524fc7581b514:RMcbfal4fuGmBX5FHuboNVJEeiLBniudnMrnbdlHihEN9ug7jFbB0SVWP4JMjhyeUg3_GRS1dzKslpw9Gj_tqin5hWZr4Xtz-Pe3Z3cSoQEEn8AwD-OQqbs7MWu7NOvB8lqh9Y_lIz7X7C7s0MXsBH5j7Mve3K7th3N--vWWvaJtLYi_RrQstOCb09jHDY1LXbSfiZiuJ1wmuEbsI4kwrHuy8F05-xhgW0wdSQCSO1gvxmhxMyYcCWLOIU-I3Gsup1_5rETIQ7x4xPZeN0nfs2TPMbg0Xg69Wtro84ne2SMHOvNPNJUeys8B1pFUUlEYzSPrdf1filj_uy6gN--r9LP1mVCXadcl26Kt25tuQMvXYZ0Uxq9qjcJTLmXMSv0izWcqEohLXwsnDg11g2soDoU4Ir3ekPD-L0-tBgFF6oLxDLJrtnpo_gmzAwWvVIet1XExs5cv0f9I5XIlH1Lpo26lMEh-oz5VYks39HvFE3VW_wGWgec-6hT-spVBJpENP9lnyWkTR9lRmr7T3HezLtqy40ztIhIhflsZPL6yljlOTnueL5okJOSSOb2BsKTys-RBHbMv2qDWrpw-d56DOqJxiwzzNBMCLveLG3JibzrQaCQCCoJhMpMyOHPM4HN1MrjJQaDNDs3TAyK8wnj0jVPxCtXQ50oRsZz1QzaC6OSb_qzFQpcDqHmtViKtz-HhJ48c168P0ifyA57NJsxS19zSJlkv9YJoH_jGE5XlOHxc-M5RkJcDfby2FFOt3mAv8-wnSkuGQXUeDwml2cI7jO_zLsOkp8dyEQvTMuNHo87-Sfj9jLPtd2R61Ad2ImYt3TOj9jvHLRjWKHsxkMfxN0-0K5Yw3rqcDyNJXfN3v9LC902KuHnPQHPqC9rUPs4-b0vbZ9JxPjkblghUQPbv9Ispl_tnKz0IsxKV5Srmo6XPUYPmhPnP8MuAN-1U--9sIdPkoRz9r9hh_azySImN4ZQWc3vfK4SKsv7zOQb7s5CklFMVKXCy-Fi6MpmciOOrDK7KqI1ocpfSguOhGUOfN8Dcv0X44dFL-d8ZzduWn9Y3YScDVNU8IqoVvrHHYC6p6wm4zowgVy9KtOEJmHLPxh5ZLIby4FR49u6Eu3yGQPJwGiur9jXYWG7sjywOPvccFF-KvA_yzFv9cVoiZccz9DYmvOCH3y26w_HwMvQJh3xn4csKUF8Z4iKLtSU0Vj6WSKAI2_wUbcOI9IZzfcJB0sXtBhOMYbT3XuG3Jn9bkbeM-jURBornWOts4lrMrCd1XINg0yU1z7kDlV7iqQV1RGkta3VjCff9GIwv7KjoIH6jFhJ5N4Ywx-JBOkupmPWoxZVQDjLtVlrUDe6lh3pk1OhKC-cfxi6xXXEv5vG9heR_kb19qpqJlkR61hgbW9Sgi6iQK3l7ZLfCulYSXFoOI63N_rmu_HkOzL7npWpnfMyt1aHDTPVOC4sQnHwYl8NtEY-anHfdVI1K34-gEWvlaXZiXS36lq0eUsrfVT7NF20JuCkbMO_PQOqoND4Dxwdte-Krf5ZbCxI5AQxItRkJK_KyGTQOmrLr2SJlDeGjxX3EMi8zzjIhD_shvMZAiHMTC7KcDPS8dJ6OoyIqdQQ_qyYiFLzkVx1OOTUnOW7NXomnwtJIN-s6KeoBd1H5VLkSTzSyZKc4uDfCzaZdf5u5Aph0GTuhzq1u3wn4KI5X2VlwWppG13Lv3f9sCN92-4MoPt8XCpiEpjQ4CBaeWPTlF--XkAyZNv58c__VGRON9UWekRhtMRAMITTKhfca3DIbQW9hQYkxVE3F9Zora5uFERpT1SK-MD7ET2bumuSwoWXyhEH4lpJYhDf2XhUVBitCTshwbOXR9vaS9paG_CupkOZ6wAYSqxWJbapmljZZQGSRpuNreJ33eK2CckfGYO96UdZq4X6jQkJkqW1m4s7qUBxpa80iMROBT6YavaeAsX3opdRWPuSR8J3c0vlQOZQMZbUKqT2KLrZzxeRdkWSuhGUteuGLhnsUu5dWCXTwLXXVUH11YukNLcZPDB5_vYUGhpXbh4HzJmQDI0NKFfgTjYqvf4C6o32uPYSumBjYZ6-k-TiSDknJRC97Xxfh0HizKfbvKchVaaq9wk6JcKwM9LjBh60HN7IthkL_xMQZWoGochihL_1iX5KnogZ4_fWpziQ05ftXxU7eo1wfzWXL6PTbeUHCFaza452oa_MylJ7LQgHYyCW8_dJ4lBD5um0_ptSGcdq7EXdg44u0mwFtqXqdTCEaB-UKKExkyB4_E4Jg70l44cUgZ-2D9p-yz0fF3FasTtF2LT72OEyUfTXr7tAjDcsus0yeLBuv9t7IHxRnTSqCjT9xrReaiJEVb70bPnOMw1OpODZbL24620ZMQn5YCXgfAG39-ujwwa0nC_4sbwWqTEAZuELcA9b9gr_usuI1-X1De5Speq1HVsEarvoUhUocj6Tdxip84oJWKwU1NupH9EZi61MdkUa9ZdacUzczKkA5tLRF1XFViyBkK5OKBzpgrBJ5QB-N0-sD9Xo=&quot;; session_id_ourhours=True</div></td></tr><tr><td style="font-weight:bold;vertical-align:top;">http_host</td><td style="vertical-align:top;">:</td><td><div>127.0.0.1:8000</div></td></tr><tr><td style="font-weight:bold;vertical-align:top;">http_referer</td><td style="vertical-align:top;">:</td><td><div>http://127.0.0.1:8000/ourhours/default/index</div></td></tr><tr><td style="font-weight:bold;vertical-align:top;">http_upgrade_insecure_requests</td><td style="vertical-align:top;">:</td><td><div>1</div></td></tr><tr><td style="font-weight:bold;vertical-align:top;">http_user_agent</td><td style="vertical-align:top;">:</td><td><div>Mozilla/5.0 (Windows NT 10.0; Win64; x64) AppleWebKit/537.36 (KHTML, like Gecko) Chrome/55.0.2883.87 Safari/537.36</div></td></tr><tr><td style="font-weight:bold;vertical-align:top;">is_jython</td><td style="vertical-align:top;">:</td><td><div>False</div></td></tr><tr><td style="font-weight:bold;vertical-align:top;">is_pypy</td><td style="vertical-align:top;">:</td><td><div>False</div></td></tr><tr><td style="font-weight:bold;vertical-align:top;">is_source</td><td style="vertical-align:top;">:</td><td><div>False</div></td></tr><tr><td style="font-weight:bold;vertical-align:top;">local_hosts</td><td style="vertical-align:top;">:</td><td><div><table><tr><td><div>fe80::81f2:e7ae:7efe:f1e7%23</div></td></tr><tr><td><div>DESKTOP-GDD7DCK</div></td></tr><tr><td><div>::ffff:127.0.0.1</div></td></tr><tr><td><div>::1</div></td></tr><tr><td><div>fe80::5efe:192.168.1.135%21</div></td></tr><tr><td><div>192.168.1.135</div></td></tr><tr><td><div>fe80::e941:c1cf:aca3:e27d%22</div></td></tr><tr><td><div>127.0.0.1</div></td></tr><tr><td><div>192.168.56.1</div></td></tr></table></div></td></tr><tr><td style="font-weight:bold;vertical-align:top;">path_info</td><td style="vertical-align:top;">:</td><td><div>/ourhours/default/event_page/21</div></td></tr><tr><td style="font-weight:bold;vertical-align:top;">query_string</td><td style="vertical-align:top;">:</td><td><div></div></td></tr><tr><td style="font-weight:bold;vertical-align:top;">remote_addr</td><td style="vertical-align:top;">:</td><td><div>127.0.0.1</div></td></tr><tr><td style="font-weight:bold;vertical-align:top;">remote_port</td><td style="vertical-align:top;">:</td><td><div>50588</div></td></tr><tr><td style="font-weight:bold;vertical-align:top;">request_method</td><td style="vertical-align:top;">:</td><td><div>GET</div></td></tr><tr><td style="font-weight:bold;vertical-align:top;">request_uri</td><td style="vertical-align:top;">:</td><td><div>/ourhours/default/event_page/21</div></td></tr><tr><td style="font-weight:bold;vertical-align:top;">script_name</td><td style="vertical-align:top;">:</td><td><div></div></td></tr><tr><td style="font-weight:bold;vertical-align:top;">server_name</td><td style="vertical-align:top;">:</td><td><div>DESKTOP-GDD7DCK</div></td></tr><tr><td style="font-weight:bold;vertical-align:top;">server_port</td><td style="vertical-align:top;">:</td><td><div>8000</div></td></tr><tr><td style="font-weight:bold;vertical-align:top;">server_protocol</td><td style="vertical-align:top;">:</td><td><div>HTTP/1.1</div></td></tr><tr><td style="font-weight:bold;vertical-align:top;">server_software</td><td style="vertical-align:top;">:</td><td><div>Rocket 1.2.6</div></td></tr><tr><td style="font-weight:bold;vertical-align:top;">web2py_path</td><td style="vertical-align:top;">:</td><td><div>C:\\Users\\Wesly\\Desktop\\UCSC-Hack-2017</div></td></tr><tr><td style="font-weight:bold;vertical-align:top;">web2py_version</td><td style="vertical-align:top;">:</td><td><div>2.14.6-stable+timestamp.2016.05.10.00.21.47</div></td></tr><tr><td style="font-weight:bold;vertical-align:top;">wsgi.errors</td><td style="vertical-align:top;">:</td><td><div>&lt;open file &#x27;&lt;stderr&gt;&#x27;, mode &#x27;w&#x27; at 0x0221D0D0&gt;</div></td></tr><tr><td style="font-weight:bold;vertical-align:top;">wsgi.file_wrapper</td><td style="vertical-align:top;">:</td><td><div>&lt;class wsgiref.util.FileWrapper at 0x0321F148&gt;</div></td></tr><tr><td style="font-weight:bold;vertical-align:top;">wsgi.input</td><td style="vertical-align:top;">:</td><td><div>&lt;socket._fileobject object at 0x076E3EF0&gt;</div></td></tr><tr><td style="font-weight:bold;vertical-align:top;">wsgi.multiprocess</td><td style="vertical-align:top;">:</td><td><div>False</div></td></tr><tr><td style="font-weight:bold;vertical-align:top;">wsgi.multithread</td><td style="vertical-align:top;">:</td><td><div>True</div></td></tr><tr><td style="font-weight:bold;vertical-align:top;">wsgi.run_once</td><td style="vertical-align:top;">:</td><td><div>False</div></td></tr><tr><td style="font-weight:bold;vertical-align:top;">wsgi.url_scheme</td><td style="vertical-align:top;">:</td><td><div>http</div></td></tr><tr><td style="font-weight:bold;vertical-align:top;">wsgi.version</td><td style="vertical-align:top;">:</td><td><div><table><tr><td><div>1</div></td></tr><tr><td><div>0</div></td></tr></table></div></td></tr><tr><td style="font-weight:bold;vertical-align:top;">wsgi_errors</td><td style="vertical-align:top;">:</td><td><div>&lt;open file &#x27;&lt;stderr&gt;&#x27;, mode &#x27;w&#x27; at 0x0221D0D0&gt;</div></td></tr><tr><td style="font-weight:bold;vertical-align:top;">wsgi_file_wrapper</td><td style="vertical-align:top;">:</td><td><div>&lt;class wsgiref.util.FileWrapper at 0x0321F148&gt;</div></td></tr><tr><td style="font-weight:bold;vertical-align:top;">wsgi_input</td><td style="vertical-align:top;">:</td><td><div>&lt;socket._fileobject object at 0x076E3EF0&gt;</div></td></tr><tr><td style="font-weight:bold;vertical-align:top;">wsgi_multiprocess</td><td style="vertical-align:top;">:</td><td><div>False</div></td></tr><tr><td style="font-weight:bold;vertical-align:top;">wsgi_multithread</td><td style="vertical-align:top;">:</td><td><div>True</div></td></tr><tr><td style="font-weight:bold;vertical-align:top;">wsgi_run_once</td><td style="vertical-align:top;">:</td><td><div>False</div></td></tr><tr><td style="font-weight:bold;vertical-align:top;">wsgi_url_scheme</td><td style="vertical-align:top;">:</td><td><div>http</div></td></tr><tr><td style="font-weight:bold;vertical-align:top;">wsgi_version</td><td style="vertical-align:top;">:</td><td><div><table><tr><td><div>1</div></td></tr><tr><td><div>0</div></td></tr></table></div></td></tr></table></div></td></tr><tr><td style="font-weight:bold;vertical-align:top;">extension</td><td style="vertical-align:top;">:</td><td><div>html</div></td></tr><tr><td style="font-weight:bold;vertical-align:top;">folder</td><td style="vertical-align:top;">:</td><td><div>C:\\Users\\Wesly\\Desktop\\UCSC-Hack-2017\\applications\\ourhours\\</div></td></tr><tr><td style="font-weight:bold;vertical-align:top;">function</td><td style="vertical-align:top;">:</td><td><div>event_page</div></td></tr><tr><td style="font-weight:bold;vertical-align:top;">global_settings</td><td style="vertical-align:top;">:</td><td><div><table><tr><td style="font-weight:bold;vertical-align:top;">app_folders</td><td style="vertical-align:top;">:</td><td><div>set([&#x27;C:\\\\Users\\\\Wesly\\\\Desktop\\\\UCSC-Hack-2017\\\\applications\\\\welcome\\\\&#x27;, &#x27;C:\\\\Users\\\\Wesly\\\\Desktop\\\\UCSC-Hack-2017\\\\applications\\\\examples\\\\&#x27;, &#x27;C:\\\\Users\\\\Wesly\\\\Desktop\\\\UCSC-Hack-2017\\\\applications\\\\ourhours\\\\&#x27;, &#x27;C:\\\\Users\\\\Wesly\\\\Desktop\\\\UCSC-Hack-2017\\\\applications\\\\admin\\\\&#x27;])</div></td></tr><tr><td style="font-weight:bold;vertical-align:top;">applications_parent</td><td style="vertical-align:top;">:</td><td><div>C:\\Users\\Wesly\\Desktop\\UCSC-Hack-2017</div></td></tr><tr><td style="font-weight:bold;vertical-align:top;">cmd_args</td><td style="vertical-align:top;">:</td><td><div><table></table></div></td></tr><tr><td style="font-weight:bold;vertical-align:top;">cmd_options</td><td style="vertical-align:top;">:</td><td><div>&lt;Values at 0x2ddaeb8: {&#x27;verbose&#x27;: False, &#x27;ip&#x27;: &#x27;127.0.0.1&#x27;, &#x27;debuglevel&#x27;: 30, &#x27;with_scheduler&#x27;: False, &#x27;shutdown_timeout&#x27;: 5, &#x27;taskbar&#x27;: False, &#x27;with_coverage&#x27;: False, &#x27;pid_filename&#x27;: &#x27;httpserver.pid&#x27;, &#x27;maxthreads&#x27;: None, &#x27;softcron&#x27;: False, &#x27;server_name&#x27;: &#x27;DESKTOP-GDD7DCK&#x27;, &#x27;bpython&#x27;: False, &#x27;nogui&#x27;: False, &#x27;port&#x27;: 8000, &#x27;print_errors&#x27;: False, &#x27;extcron&#x27;: False, &#x27;runcron&#x27;: False, &#x27;run_system_tests&#x27;: False, &#x27;test&#x27;: None, &#x27;folder&#x27;: &#x27;C:\\\\Users\\\\Wesly\\\\Desktop\\\\UCSC-Hack-2017&#x27;, &#x27;config&#x27;: &#x27;&#x27;, &#x27;minthreads&#x27;: None, &#x27;shell&#x27;: None, &#x27;run&#x27;: &#x27;&#x27;, &#x27;log_filename&#x27;: &#x27;httpserver.log&#x27;, &#x27;profiler_dir&#x27;: None, &#x27;args&#x27;: [&#x27;&#x27;], &#x27;socket_timeout&#x27;: 5, &#x27;ssl_ca_certificate&#x27;: None, &#x27;scheduler&#x27;: None, &#x27;interfaces&#x27;: None, &#x27;ssl_private_key&#x27;: &#x27;&#x27;, &#x27;gae&#x27;: None, &#x27;password&#x27;: &#x27;******&#x27;, &#x27;request_queue_size&#x27;: 5, &#x27;ssl_certificate&#x27;: &#x27;&#x27;, &#x27;cronjob&#x27;: False, &#x27;numthreads&#x27;: None, &#x27;quiet&#x27;: False, &#x27;import_models&#x27;: False, &#x27;timeout&#x27;: 10, &#x27;plain&#x27;: False, &#x27;nobanner&#x27;: False}&gt;</div></td></tr><tr><td style="font-weight:bold;vertical-align:top;">db_sessions</td><td style="vertical-align:top;">:</td><td><div>set([])</div></td></tr><tr><td style="font-weight:bold;vertical-align:top;">debugging</td><td style="vertical-align:top;">:</td><td><div>True</div></td></tr><tr><td style="font-weight:bold;vertical-align:top;">gluon_parent</td><td style="vertical-align:top;">:</td><td><div>C:\\Users\\Wesly\\Desktop\\UCSC-Hack-2017</div></td></tr><tr><td style="font-weight:bold;vertical-align:top;">is_jython</td><td style="vertical-align:top;">:</td><td><div>False</div></td></tr><tr><td style="font-weight:bold;vertical-align:top;">is_pypy</td><td style="vertical-align:top;">:</td><td><div>False</div></td></tr><tr><td style="font-weight:bold;vertical-align:top;">is_source</td><td style="vertical-align:top;">:</td><td><div>False</div></td></tr><tr><td style="font-weight:bold;vertical-align:top;">local_hosts</td><td style="vertical-align:top;">:</td><td><div><table><tr><td><div>fe80::81f2:e7ae:7efe:f1e7%23</div></td></tr><tr><td><div>DESKTOP-GDD7DCK</div></td></tr><tr><td><div>::ffff:127.0.0.1</div></td></tr><tr><td><div>::1</div></td></tr><tr><td><div>fe80::5efe:192.168.1.135%21</div></td></tr><tr><td><div>192.168.1.135</div></td></tr><tr><td><div>fe80::e941:c1cf:aca3:e27d%22</div></td></tr><tr><td><div>127.0.0.1</div></td></tr><tr><td><div>192.168.56.1</div></td></tr></table></div></td></tr><tr><td style="font-weight:bold;vertical-align:top;">web2py_version</td><td style="vertical-align:top;">:</td><td><div>2.14.6-stable+timestamp.2016.05.10.00.21.47</div></td></tr></table></div></td></tr><tr><td style="font-weight:bold;vertical-align:top;">is_https</td><td style="vertical-align:top;">:</td><td><div>False</div></td></tr><tr><td style="font-weight:bold;vertical-align:top;">is_local</td><td style="vertical-align:top;">:</td><td><div>True</div></td></tr><tr><td style="font-weight:bold;vertical-align:top;">is_restful</td><td style="vertical-align:top;">:</td><td><div>False</div></td></tr><tr><td style="font-weight:bold;vertical-align:top;">is_scheduler</td><td style="vertical-align:top;">:</td><td><div>False</div></td></tr><tr><td style="font-weight:bold;vertical-align:top;">is_shell</td><td style="vertical-align:top;">:</td><td><div>False</div></td></tr><tr><td style="font-weight:bold;vertical-align:top;">now</td><td style="vertical-align:top;">:</td><td><div>datetime.datetime(2017, 1, 21, 20, 45, 27, 728000)</div></td></tr><tr><td style="font-weight:bold;vertical-align:top;">raw_args</td><td style="vertical-align:top;">:</td><td><div>21</div></td></tr><tr><td style="font-weight:bold;vertical-align:top;">raw_extension</td><td style="vertical-align:top;">:</td><td><div>None</div></td></tr><tr><td style="font-weight:bold;vertical-align:top;">url</td><td style="vertical-align:top;">:</td><td><div>/ourhours/default/event_page/21</div></td></tr><tr><td style="font-weight:bold;vertical-align:top;">utcnow</td><td style="vertical-align:top;">:</td><td><div>datetime.datetime(2017, 1, 22, 4, 45, 27, 728000)</div></td></tr><tr><td style="font-weight:bold;vertical-align:top;">wsgi</td><td style="vertical-align:top;">:</td><td><div>&lt;gluon.main.LazyWSGI object at 0x087EF770&gt;</div></td></tr></table></div>'
tRp58
sS'frames'
p59
(lp60
(dp61
S'file'
p62
S'C:\\Users\\Wesly\\Desktop\\UCSC-Hack-2017\\gluon\\restricted.py'
p63
sS'dump'
p64
(dp65
S'environment'
p66
S"{'A': <class 'gluon.html.A'>, 'ANY_OF': <class 'gluon.validators.ANY_OF'>, 'ASSIGNJS': <function ASSIGNJS>, 'Auth': <class 'gluon.tools.Auth'>, 'B': <class 'gluon.html.B'>, 'BEAUTIFY': <class 'gluon.html.BEAUTIFY'>, 'BODY': <class 'gluon.html.BODY'>, 'BR': <class 'gluon.html.BR'>, 'BUTTON': <class 'gluon.html.BUTTON'>, 'CAT': <class 'gluon.html.CAT'>, ...}"
p67
sS'ccode'
p68
S'<code object <module> at 07DBBC38, file "C:\\User...cations\\ourhours\\controllers/default.py", line 1>'
p69
ssS'lnum'
p70
I227
sS'lines'
p71
(dp72
I224
S'            ccode = code'
p73
sI225
S'        else:'
p74
sI226
S'            ccode = compile2(code, layer)'
p75
sI227
S'        exec ccode in environment'
p76
sI228
S'    except HTTP:'
p77
sI229
S'        raise'
p78
sI230
S'    except RestrictedError:'
p79
sI231
S'        # do not encapsulate (obfuscate) the original RestrictedError'
p80
sI222
S'    try:'
p81
sI223
S'        if isinstance(code, types.CodeType):'
p82
ssS'call'
p83
S"(code='from gluon.tools import Mail\\nimport imaplib\\nimpo...db)\\n\\nresponse._vars=response._caller(event_page)\\n', environment={'A': <class 'gluon.html.A'>, 'ANY_OF': <class 'gluon.validators.ANY_OF'>, 'ASSIGNJS': <function ASSIGNJS>, 'Auth': <class 'gluon.tools.Auth'>, 'B': <class 'gluon.html.B'>, 'BEAUTIFY': <class 'gluon.html.BEAUTIFY'>, 'BODY': <class 'gluon.html.BODY'>, 'BR': <class 'gluon.html.BR'>, 'BUTTON': <class 'gluon.html.BUTTON'>, 'CAT': <class 'gluon.html.CAT'>, ...}, layer=r'C:\\Users\\Wesly\\Desktop\\UCSC-Hack-2017\\applications\\ourhours\\controllers/default.py')"
p84
sS'func'
p85
S'restricted'
p86
sa(dp87
g62
S'C:\\Users\\Wesly\\Desktop\\UCSC-Hack-2017\\applications\\ourhours\\controllers\\default.py'
p88
sg64
(dp89
sg70
I60
sg71
(dp90
I49
S'    return locals()'
p91
sI50
S''
sI51
S'def user():'
p92
sI52
S'    return dict(form=auth())'
p93
sI53
S''
sI54
S'def download():'
p94
sI55
S'    return response.download(request, db)'
p95
sI56
S''
sI57
S'def picture():'
p96
sI58
S'    return response.view(request, db)'
p97
ssg83
S'()'
p98
sg85
S'<module>'
p99
sa(dp100
g62
S'C:\\Users\\Wesly\\Desktop\\UCSC-Hack-2017\\gluon\\globals.py'
p101
sg64
(dp102
S'self'
p103
S'undefined'
p104
sS'f'
S'<function event_page>'
p105
ssg70
I417
sg71
(dp106
I416
S'        self._vars = None'
p107
sI417
S'        self._caller = lambda f: f()'
p108
sI418
S'        self._view_environment = None'
p109
sI419
S'        self._custom_commit = None'
p110
sI420
S'        self._custom_rollback = None'
p111
sI421
S"        self.generic_patterns = ['*']"
p112
sI412
S"        self.flash = ''            # used by the default view layout"
p113
sI413
S'        self.meta = Storage()      # used by web2py_ajax.html'
p114
sI414
S'        self.menu = []             # used by the default view layout'
p115
sI415
S'        self.files = []            # used by web2py_ajax.html'
p116
ssg83
S'(f=<function event_page>)'
p117
sg85
S'<lambda>'
p118
sa(dp119
g62
S'C:\\Users\\Wesly\\Desktop\\UCSC-Hack-2017\\applications\\ourhours\\controllers\\default.py'
p120
sg64
(dp121
S'e'
g104
sS'global json'
p122
S"<module 'json' from 'C:\\Users\\Wesly\\Desktop\\UCSC-Hack-2017\\library.zip\\json\\__init__.pyc'>"
p123
sS'json.dumps'
p124
S'<function dumps>'
p125
sS'json_data'
p126
g104
sS'event'
p127
S'<Rows (0)>'
p128
ssg70
I47
sg71
(dp129
I42
S"    g = db.groups(request.args(0,cast=int)) or redirect(URL('index'))"
p130
sI43
S'    db.event.event_id.default = g.id'
p131
sI44
S'    db.event.event_code.default = g.group_code'
p132
sI45
S'    # event = db(db.event.event_id == g.id).select()'
p133
sI46
S'    event = db(db.event).select(db.event.ALL)'
p134
sI47
S'    json_data = json.dumps([e.event_allDay, e.event_name, e.event_id, e.start, e.end, e.event_description] for e in event)'
p135
sI48
S''
sI49
S'    return locals()'
p136
sI50
S''
sI51
S'def user():'
p137
ssg83
S'()'
p138
sg85
S'event_page'
p139
sa(dp140
g62
S'C:\\Users\\Wesly\\Desktop\\UCSC-Hack-2017\\json\\__init__.py'
p141
sg64
(dp142
sg70
I243
sg71
(dp143
sg83
S"(obj=<generator object <genexpr>>, skipkeys=False, ensure_ascii=True, check_circular=True, allow_nan=True, cls=None, indent=None, separators=None, encoding='utf-8', default=None, sort_keys=False, **kw={})"
p144
sg85
S'dumps'
p145
sa(dp146
g62
S'C:\\Users\\Wesly\\Desktop\\UCSC-Hack-2017\\json\\encoder.py'
p147
sg64
(dp148
sg70
I207
sg71
(dp149
sg83
S'(self=<json.encoder.JSONEncoder object>, o=<generator object <genexpr>>)'
p150
sg85
S'encode'
p151
sa(dp152
g62
S'C:\\Users\\Wesly\\Desktop\\UCSC-Hack-2017\\json\\encoder.py'
p153
sg64
(dp154
sg70
I270
sg71
(dp155
sg83
S'(self=<json.encoder.JSONEncoder object>, o=<generator object <genexpr>>, _one_shot=True)'
p156
sg85
S'iterencode'
p157
sa(dp158
g62
S'C:\\Users\\Wesly\\Desktop\\UCSC-Hack-2017\\json\\encoder.py'
p159
sg64
(dp160
sg70
I184
sg71
(dp161
sg83
S'(self=<json.encoder.JSONEncoder object>, o=<generator object <genexpr>>)'
p162
sg85
S'default'
p163
sasS'pyver'
p164
S'Python 2.7.9: C:\\Users\\Wesly\\Desktop\\UCSC-Hack-2017\\web2py.exe (prefix: )'
p165
sS'session'
p166
g57
(S's6\x01\x00\x00<div><table><tr><td style="font-weight:bold;vertical-align:top;">last_orderby</td><td style="vertical-align:top;">:</td><td><div>None</div></td></tr><tr><td style="font-weight:bold;vertical-align:top;">last_query</td><td style="vertical-align:top;">:</td><td><div>db.event.id&gt;0</div></td></tr></table></div>'
tRp167
sS'etype'
p168
S"<type 'exceptions.TypeError'>"
p169
sS'date'
p170
S'Sat Jan 21 20:45:28 2017'
p171
sS'response'
p172
g57
(S's\xc1\x16\x00\x00<div><table><tr><td style="font-weight:bold;vertical-align:top;">body</td><td style="vertical-align:top;">:</td><td><div>&lt;cStringIO.StringO object at 0x07CD41A0&gt;</div></td></tr><tr><td style="font-weight:bold;vertical-align:top;">cookies</td><td style="vertical-align:top;">:</td><td><div><table><tr><td style="font-weight:bold;vertical-align:top;">session_id_ourhours</td><td style="vertical-align:top;">:</td><td><div>127.0.0.1-7e796f26-422b-4160-9cff-4ebd05075f35<table><tr><td style="font-weight:bold;vertical-align:top;">comment</td><td style="vertical-align:top;">:</td><td><div></div></td></tr><tr><td style="font-weight:bold;vertical-align:top;">domain</td><td style="vertical-align:top;">:</td><td><div></div></td></tr><tr><td style="font-weight:bold;vertical-align:top;">expires</td><td style="vertical-align:top;">:</td><td><div></div></td></tr><tr><td style="font-weight:bold;vertical-align:top;">httponly</td><td style="vertical-align:top;">:</td><td><div></div></td></tr><tr><td style="font-weight:bold;vertical-align:top;">max-age</td><td style="vertical-align:top;">:</td><td><div></div></td></tr><tr><td style="font-weight:bold;vertical-align:top;">path</td><td style="vertical-align:top;">:</td><td><div>/</div></td></tr><tr><td style="font-weight:bold;vertical-align:top;">secure</td><td style="vertical-align:top;">:</td><td><div></div></td></tr><tr><td style="font-weight:bold;vertical-align:top;">version</td><td style="vertical-align:top;">:</td><td><div></div></td></tr></table></div></td></tr></table></div></td></tr><tr><td style="font-weight:bold;vertical-align:top;">delimiters</td><td style="vertical-align:top;">:</td><td><div><table><tr><td><div>{{</div></td></tr><tr><td><div>}}</div></td></tr></table></div></td></tr><tr><td style="font-weight:bold;vertical-align:top;">files</td><td style="vertical-align:top;">:</td><td><div><table></table></div></td></tr><tr><td style="font-weight:bold;vertical-align:top;">flash</td><td style="vertical-align:top;">:</td><td><div></div></td></tr><tr><td style="font-weight:bold;vertical-align:top;">form_label_separator</td><td style="vertical-align:top;">:</td><td><div>: </div></td></tr><tr><td style="font-weight:bold;vertical-align:top;">formstyle</td><td style="vertical-align:top;">:</td><td><div>table3cols</div></td></tr><tr><td style="font-weight:bold;vertical-align:top;">generic_patterns</td><td style="vertical-align:top;">:</td><td><div><table><tr><td><div>*</div></td></tr></table></div></td></tr><tr><td style="font-weight:bold;vertical-align:top;">headers</td><td style="vertical-align:top;">:</td><td><div><table><tr><td style="font-weight:bold;vertical-align:top;">X-Powered-By</td><td style="vertical-align:top;">:</td><td><div>web2py</div></td></tr></table></div></td></tr><tr><td style="font-weight:bold;vertical-align:top;">menu</td><td style="vertical-align:top;">:</td><td><div><table><tr><td><div><table><tr><td><div>Home</div></td></tr><tr><td><div>False</div></td></tr><tr><td><div>/ourhours/default/index</div></td></tr></table></div></td></tr></table></div></td></tr><tr><td style="font-weight:bold;vertical-align:top;">meta</td><td style="vertical-align:top;">:</td><td><div><table></table></div></td></tr><tr><td style="font-weight:bold;vertical-align:top;">models_to_run</td><td style="vertical-align:top;">:</td><td><div><table><tr><td><div>^\\w+\\.py$</div></td></tr><tr><td><div>^default/\\w+\\.py$</div></td></tr><tr><td><div>^default/event_page/\\w+\\.py$</div></td></tr></table></div></td></tr><tr><td style="font-weight:bold;vertical-align:top;">postprocessing</td><td style="vertical-align:top;">:</td><td><div><table></table></div></td></tr><tr><td style="font-weight:bold;vertical-align:top;">session_client</td><td style="vertical-align:top;">:</td><td><div>127.0.0.1</div></td></tr><tr><td style="font-weight:bold;vertical-align:top;">session_cookie_compression_level</td><td style="vertical-align:top;">:</td><td><div>None</div></td></tr><tr><td style="font-weight:bold;vertical-align:top;">session_cookie_expires</td><td style="vertical-align:top;">:</td><td><div>None</div></td></tr><tr><td style="font-weight:bold;vertical-align:top;">session_data_name</td><td style="vertical-align:top;">:</td><td><div>session_data_ourhours</div></td></tr><tr><td style="font-weight:bold;vertical-align:top;">session_file</td><td style="vertical-align:top;">:</td><td><div>None</div></td></tr><tr><td style="font-weight:bold;vertical-align:top;">session_filename</td><td style="vertical-align:top;">:</td><td><div>C:\\Users\\Wesly\\Desktop\\UCSC-Hack-2017\\applications\\ourhours\\sessions\\127.0.0.1-7e796f26-422b-4160-9cff-4ebd05075f35</div></td></tr><tr><td style="font-weight:bold;vertical-align:top;">session_hash</td><td style="vertical-align:top;">:</td><td><div>165084fbbe66359c831f6ebd66bf2033</div></td></tr><tr><td style="font-weight:bold;vertical-align:top;">session_id</td><td style="vertical-align:top;">:</td><td><div>True</div></td></tr><tr><td style="font-weight:bold;vertical-align:top;">session_id_name</td><td style="vertical-align:top;">:</td><td><div>session_id_ourhours</div></td></tr><tr><td style="font-weight:bold;vertical-align:top;">session_masterapp</td><td style="vertical-align:top;">:</td><td><div>ourhours</div></td></tr><tr><td style="font-weight:bold;vertical-align:top;">session_new</td><td style="vertical-align:top;">:</td><td><div>True</div></td></tr><tr><td style="font-weight:bold;vertical-align:top;">session_storage_type</td><td style="vertical-align:top;">:</td><td><div>cookie</div></td></tr><tr><td style="font-weight:bold;vertical-align:top;">status</td><td style="vertical-align:top;">:</td><td><div>200</div></td></tr><tr><td style="font-weight:bold;vertical-align:top;">view</td><td style="vertical-align:top;">:</td><td><div>default/event_page.html</div></td></tr></table></div>'
tRp173
sS'locals'
p174
(dp175
S'self'
p176
S'<json.encoder.JSONEncoder object>'
p177
sS'o'
S'<generator object <genexpr>>'
p178
sssS'traceback'
p179
S'Traceback (most recent call last):\n  File "C:\\Users\\Wesly\\Desktop\\UCSC-Hack-2017\\gluon\\restricted.py", line 227, in restricted\n    exec ccode in environment\n  File "C:\\Users\\Wesly\\Desktop\\UCSC-Hack-2017\\applications\\ourhours\\controllers/default.py", line 60, in <module>\n  File "C:\\Users\\Wesly\\Desktop\\UCSC-Hack-2017\\gluon\\globals.py", line 417, in <lambda>\n    self._caller = lambda f: f()\n  File "C:\\Users\\Wesly\\Desktop\\UCSC-Hack-2017\\applications\\ourhours\\controllers/default.py", line 47, in event_page\n    json_data = json.dumps([e.event_allDay, e.event_name, e.event_id, e.start, e.end, e.event_description] for e in event)\n  File "json/__init__.py", line 243, in dumps\n  File "json/encoder.py", line 207, in encode\n  File "json/encoder.py", line 270, in iterencode\n  File "json/encoder.py", line 184, in default\nTypeError: <generator object <genexpr> at 0x079B5F08> is not JSON serializable\n'
p180
s.