(dp1
S'output'
p2
S"<type 'exceptions.SyntaxError'> EOL while scanning string literal (default/index.html, line 54)"
p3
sS'layer'
p4
S'C:\\Users\\Wesly\\Desktop\\UCSC-Hack-2017\\applications\\ourhours\\views\\default/index.html'
p5
sS'code'
p6
S'response.write(\'<!DOCTYPE html>\\r\\n<html>\\r\\n  <head>\\r\\n    <meta charset="utf-8">\\r\\n    <meta http-equiv="X-UA-Compatible" content="IE=edge,chrome=1">\\r\\n    <meta name="viewport" content="width=device-width, initial-scale=1.0" />\\r\\n    <meta name="apple-mobile-web-app-capable" content="yes" />\\r\\n    <link href="\', escape=False)\nresponse.write(URL(\'static\',\'css/calendar.css\'))\nresponse.write(\'" rel="stylesheet" type="text/css"/>\\r\\n    <link href="\', escape=False)\nresponse.write(URL(\'static\',\'css/web2py.css\'))\nresponse.write(\'" rel="stylesheet" type="text/css"/>\\r\\n    <link href="\', escape=False)\nresponse.write(URL(\'static\',\'css/stupid.css\'))\nresponse.write(\'" rel="stylesheet" type="text/css"/>\\r\\n    <link href="\', escape=False)\nresponse.write(URL(\'static\',\'css/examples.css\'))\nresponse.write(\'" rel="stylesheet" type="text/css"/>\\r\\n    <link rel="stylesheet" href="https://maxcdn.bootstrapcdn.com/font-awesome/4.5.0/css/font-awesome.min.css">\\r\\n    <link rel="shortcut icon" href="\', escape=False)\nresponse.write(URL(\'static\',\'images/favicon.ico\'))\nresponse.write(\'" type="image/x-icon">\\r\\n    <link rel="apple-touch-icon" href="\', escape=False)\nresponse.write(URL(\'static\',\'images/favicon.png\'))\nresponse.write(\'">\\r\\n    \', escape=False)\nleft_sidebar_enabled = globals().get(\'left_sidebar_enabled\', False)\nright_sidebar_enabled = globals().get(\'right_sidebar_enabled\', False)\nmiddle_column = {0: \'fill\', 1: \'threequarters\', 2: \'half\'}[\n(left_sidebar_enabled and 1 or 0)+(right_sidebar_enabled and 1 or 0)]\nresponse.write(\'\\r\\n    \', escape=False)\nresponse.write(\'<script type="text/javascript"><!--\\r\\n    // These variables are used by the web2py_ajax_init function in web2py_ajax.js (which is loaded below).\\r\\n    var w2p_ajax_confirm_message = "\', escape=False)\nresponse.write(T(\'Are you sure you want to delete this object?\'))\nresponse.write(\'";\\r\\n    var w2p_ajax_date_format = "\', escape=False)\nresponse.write(T(\'%Y-%m-%d\'))\nresponse.write(\'";\\r\\n    var w2p_ajax_datetime_format = "\', escape=False)\nresponse.write(T(\'%Y-%m-%d %H:%M:%S\'))\nresponse.write(\'";\\r\\n    var ajax_error_500 = \\\'\', escape=False)\nresponse.write(T.M(\'An error occured, please [[reload %s]] the page\') % URL(args=request.args, vars=request.get_vars))\nresponse.write("\'\\r\\n    //--></script>\\r\\n", escape=False)\nresponse.files.insert(0,URL(\'static\',\'js/jquery.js\'))\nresponse.files.insert(1,URL(\'static\',\'css/calendar.css\'))\nresponse.files.insert(2,URL(\'static\',\'js/calendar.js\'))\nresponse.files.insert(3,URL(\'static\',\'js/web2py.js\'))\nresponse.include_meta()\nresponse.include_files()\nresponse.write(\'\\r\\n\', escape=False)\nresponse.write(\'\\r\\n  </head>\\r\\n  <body class="black">   \\r\\n    <header class="black padded">      \\r\\n      <div class="container middle max900">\\r\\n        <div class="fill middle">                    \\r\\n          <label class="ham" for="menu"><i class="fa fa-bars padded"></i></label>\\r\\n          <div class="burger accordion">\\r\\n            <input type="checkbox" id="menu"/>\\r\\n            \', escape=False)\nresponse.write(MENU(response.menu,_class=\'menu\'))\nresponse.write(\'\\r\\n          </div>\\r\\n        </div>\\r\\n      </div>\\r\\n    </header>\\r\\n    \', escape=False)\nif response.flash:\n    response.write(\'\\r\\n    <div class="w2p_flash">\\r\\n      \', escape=False)\n    response.write(response.flash)\n    response.write(\'\\r\\n    </div>\\r\\n    \', escape=False)\n    pass\nresponse.write(\'\\r\\n    <main class="white">\\r\\n      <div class="container max900">\\r\\n        \', escape=False)\nif left_sidebar_enabled:\n    response.write(\'\\r\\n        <div class="quarter padded">\', escape=False)\n    response.write(\'</div>\\r\\n        \', escape=False)\n    pass\nresponse.write(\'\\r\\n        <div class="\', escape=False)\nresponse.write(middle_column)\nresponse.write(\' padded">\', escape=False)\nresponse.write(\'\\r\\n\\r\\n\\r\\n<center><h1> OurHours </h1></center>\\r\\n<style>\\r\\n    .boxed {\\r\\n        border: 1px solid black;\\r\\n        padding: 3px;\\r\\n        width: 1050px;\\r\\n    }\\r\\n</style>\\r\\n\\r\\n<a href = "\', escape=False)\nresponse.write(URL(\'create\'))\nresponse.write(\'"><button>\\r\\n    Create Group\\r\\n    </button>\\r\\n<a href = "\', escape=False)\nresponse.write(URL(\'join))\nresponse.write(\'"><button>\\r\\n    Join Group\\r\\n    </button>\\r\\n</a>\\r\\n<br>\\r\\n\', escape=False)\nif len(groups):\n    response.write(\'\\r\\n<table class = "table" id = "posts"><input type="hidden" id="id" name="id" value="" />\\r\\n    \', escape=False)\n    for groups in groups:\n        response.write(\'\\r\\n        <tr class = "boxed">\\r\\n            \', escape=False)\n        if groups.optional_group_photo:\n            response.write(\'\\r\\n                <td><img width="40px" src="\', escape=False)\n            response.write(URL(\'download\', args=groups.group_photo_optional))\n            response.write(\'" /></td>\\r\\n            \', escape=False)\n        else:\n            response.write(\'\\r\\n                <td><img width="40px" src="http://www.drodd.com/images15/question-mark12.png" /></td>\\r\\n            \', escape=False)\n            pass\n        response.write(\'\\r\\n            <td><a href = "\', escape=False)\n        response.write(URL(\'event_page\', args=groups.id))\n        response.write(\'">\\r\\n                <br>&nbsp;&nbsp;&nbsp;&nbsp;\', escape=False)\n        response.write(groups.group_name)\n        response.write(\'\\r\\n            </a></td>\\r\\n            <td> <br>&nbsp;&nbsp;&nbsp;&nbsp;\', escape=False)\n        response.write(groups.group_description)\n        response.write(\' </td>\\r\\n            <br>\\r\\n        </tr>\\r\\n    \', escape=False)\n        pass\n    response.write(\'\\r\\n    \\r\\n</table>\\r\\n\', escape=False)\nelse:\n    response.write(\'\\r\\n<i>You currently do not have any groups. </i>\\r\\n\', escape=False)\n    pass\nresponse.write(\'\\r\\n\\r\\n\', escape=False)\nresponse.write(\'</div>\\r\\n        \', escape=False)\nif right_sidebar_enabled:\n    response.write(\'\\r\\n        <div class="quarter padded">\', escape=False)\n    response.write(\'</div>\\r\\n        \', escape=False)\n    pass\nresponse.write(\'\\r\\n      </div>\\r\\n      <div class="silver center padded">\\r\\n        <a class="fa fa-twitter" href="https://twitter.com/web2py/"></a>\\r\\n        <a class="fa fa-facebook" href="https://www.facebook.com/web2py/"></a>\\r\\n      </div>\\r\\n    </main>\\r\\n    <footer class="black">\\r\\n      <div class="container padded max900">\\r\\n        <div class="fill">\\r\\n          Copyright @ 2016 - Powered by Web2py\\r\\n        </div>\\r\\n      </div>\\r\\n    </footer>\\r\\n  </body>  \\r\\n  <script>\\r\\n    // prevent android horizontal scrolling\\r\\n    window.addEventListener("scroll", function(){window.scroll(0, window.pageYOffset);}, false);\\r\\n  </script>\\r\\n\\r\\n\\r\\n\\r\\n    <script src="https://www.gstatic.com/firebasejs/3.6.6/firebase.js"></script>\\r\\n    <script>\\r\\n      // Initialize Firebase\\r\\n      var config = {\\r\\n        apiKey: "AIzaSyBcdz_Vm6rWJiYnEh9INZTZC9wCKWpvWN8",\\r\\n        authDomain: "ourhours-524b4.firebaseapp.com",\\r\\n        databaseURL: "https://ourhours-524b4.firebaseio.com",\\r\\n        storageBucket: "ourhours-524b4.appspot.com",\\r\\n        messagingSenderId: "228068546769"\\r\\n      };\\r\\n      firebase.initializeApp(config);\\r\\n    </script>\\r\\n\\r\\n    <!-- jQuery -->\\r\\n    <script src="https://cdnjs.cloudflare.com/ajax/libs/jquery/3.1.0/jquery.min.js"></script>\\r\\n\\r\\n    <!-- Firechat -->\\r\\n    <link rel="stylesheet" href="https://cdn.firebase.com/libs/firechat/3.0.1/firechat.min.css" />\\r\\n    <script src="https://cdn.firebase.com/libs/firechat/3.0.1/firechat.min.js"></script>\\r\\n\\r\\n    <script src = "/ourhours/static/js/main.js"></script>\\r\\n    \\r\\n</html>\\r\\n\', escape=False)'
p7
sS'snapshot'
p8
(dp9
S'exception'
p10
(dp11
S'__getslice__'
p12
S"<method-wrapper '__getslice__' of exceptions.SyntaxError object>"
p13
sS'text'
p14
S'"response.write(URL(\'join))\\n"'
p15
sS'__str__'
p16
S"<method-wrapper '__str__' of exceptions.SyntaxError object>"
p17
sS'__reduce__'
p18
S'<built-in method __reduce__ of exceptions.SyntaxError object>'
p19
sS'__dict__'
p20
S'{}'
p21
sS'__sizeof__'
p22
S'<built-in method __sizeof__ of exceptions.SyntaxError object>'
p23
sS'__init__'
p24
S"<method-wrapper '__init__' of exceptions.SyntaxError object>"
p25
sS'__setattr__'
p26
S"<method-wrapper '__setattr__' of exceptions.SyntaxError object>"
p27
sS'__reduce_ex__'
p28
S'<built-in method __reduce_ex__ of exceptions.SyntaxError object>'
p29
sS'__new__'
p30
S'<built-in method __new__ of type object>'
p31
sS'__format__'
p32
S'<built-in method __format__ of exceptions.SyntaxError object>'
p33
sS'__class__'
p34
S"<type 'exceptions.SyntaxError'>"
p35
sS'filename'
p36
S"r'C:\\Users\\Wesly\\Desktop\\UCSC-Hack-2017\\applications\\ourhours\\views\\default/index.html'"
p37
sS'lineno'
p38
S'54'
p39
sS'msg'
p40
S"'EOL while scanning string literal'"
p41
sS'__doc__'
p42
S"'Invalid syntax.'"
p43
sS'__getitem__'
p44
S"<method-wrapper '__getitem__' of exceptions.SyntaxError object>"
p45
sS'__setstate__'
p46
S'<built-in method __setstate__ of exceptions.SyntaxError object>'
p47
sS'__getattribute__'
p48
S"<method-wrapper '__getattribute__' of exceptions.SyntaxError object>"
p49
sS'print_file_and_line'
p50
S'None'
p51
sS'args'
p52
S'(\'EOL while scanning string literal\', (r\'C:\\Users\\Wesly\\Desktop\\UCSC-Hack-2017\\applications\\ourhours\\views\\default/index.html\', 54, 26, "response.write(URL(\'join))\\n"))'
p53
sS'__subclasshook__'
p54
S'<built-in method __subclasshook__ of type object>'
p55
sS'offset'
p56
S'26'
p57
sS'__unicode__'
p58
S'<built-in method __unicode__ of exceptions.SyntaxError object>'
p59
sS'__delattr__'
p60
S"<method-wrapper '__delattr__' of exceptions.SyntaxError object>"
p61
sS'__repr__'
p62
S"<method-wrapper '__repr__' of exceptions.SyntaxError object>"
p63
sS'__hash__'
p64
S"<method-wrapper '__hash__' of exceptions.SyntaxError object>"
p65
ssS'evalue'
p66
S'EOL while scanning string literal (default/index.html, line 54)'
p67
sS'request'
p68
cgluon.html
XML_unpickle
p69
(S'sa\x90\x00\x00<div><table><tr><td style="font-weight:bold;vertical-align:top;">ajax</td><td style="vertical-align:top;">:</td><td><div>False</div></td></tr><tr><td style="font-weight:bold;vertical-align:top;">application</td><td style="vertical-align:top;">:</td><td><div>ourhours</div></td></tr><tr><td style="font-weight:bold;vertical-align:top;">args</td><td style="vertical-align:top;">:</td><td><div><table></table></div></td></tr><tr><td style="font-weight:bold;vertical-align:top;">cid</td><td style="vertical-align:top;">:</td><td><div>None</div></td></tr><tr><td style="font-weight:bold;vertical-align:top;">client</td><td style="vertical-align:top;">:</td><td><div>127.0.0.1</div></td></tr><tr><td style="font-weight:bold;vertical-align:top;">controller</td><td style="vertical-align:top;">:</td><td><div>default</div></td></tr><tr><td style="font-weight:bold;vertical-align:top;">cookies</td><td style="vertical-align:top;">:</td><td><div><table><tr><td style="font-weight:bold;vertical-align:top;">resolution</td><td style="vertical-align:top;">:</td><td><div>1349<table><tr><td style="font-weight:bold;vertical-align:top;">comment</td><td style="vertical-align:top;">:</td><td><div></div></td></tr><tr><td style="font-weight:bold;vertical-align:top;">domain</td><td style="vertical-align:top;">:</td><td><div></div></td></tr><tr><td style="font-weight:bold;vertical-align:top;">expires</td><td style="vertical-align:top;">:</td><td><div></div></td></tr><tr><td style="font-weight:bold;vertical-align:top;">httponly</td><td style="vertical-align:top;">:</td><td><div></div></td></tr><tr><td style="font-weight:bold;vertical-align:top;">max-age</td><td style="vertical-align:top;">:</td><td><div></div></td></tr><tr><td style="font-weight:bold;vertical-align:top;">path</td><td style="vertical-align:top;">:</td><td><div></div></td></tr><tr><td style="font-weight:bold;vertical-align:top;">secure</td><td style="vertical-align:top;">:</td><td><div></div></td></tr><tr><td style="font-weight:bold;vertical-align:top;">version</td><td style="vertical-align:top;">:</td><td><div></div></td></tr></table></div></td></tr><tr><td style="font-weight:bold;vertical-align:top;">session_data_ourhours</td><td style="vertical-align:top;">:</td><td><div>a8378ad6138f6c38087601721ca04832:EszyRN3zOkjgz1yw41wcDvvVJA8Nckdu4buppvPlIYM6YeW9P40AyTmlcam2M1u0jj24t2oLBd7WMDxaf8c8Npor9kdWx3hqTYtfJOsNVfG2r14VaCYDmU6-dO_7yuyKVsJod_Ub1UJ3Q2b-tgh0NKh89vNhD9vhm6UDm1lkmYPyc_6MuVim3tcualDHN2wS3M7D4dSIHGKmLZdkQnkoqgvGvLkMICrCM3fNQUosLZyWPCsmyO1_xTYS4i3Ur7EnZZ-bYbn0_0qT9dqxe_mWJooFZv9B7sxtfhwetGCnvBdwG-ti2D22KSDl0FZnAfPccCC_PGtdvSI8bHCvA6SBH2-88CkNHUujmed-EimdQ2ihwmlFAcmJsS0kkyAovDkunf0a7NuknmKChB-JFUJespcANVHWH3Nzy0N96pYNPx1dm7JYkinDhY3WovKN0Gpl_TyEuxh8qn2BSDjccj6bYBtrxYKpVAlpRB7kfofu4a5qZ4UY_ZUV18gufmgTJLTVmts-fSSGvvInr_wmr7cFa_rLi16R856Jsju0IcxeclHdwq8KljvVGQ540B9wqoK-MhfdkxYqaFrv6pkFzmnclxyDbKEmHDZazSyDoYAevQBzX-MtytEmW_WERH6QQdMCYcYIShQ1mbzlJO6f9F-UdxMBCjdNGNE-PfLzfPwIIWucCqPUxqUpufV5KoM561U6VyXoaWB9kzz5KqCJ0pw-GwlSM1XvhkdEbW8hXt4T69CSDb_xG4hiS1JJSv7r6YP7YHhtn3665usblejaY7FIWBFH5Nzc5EqsRTw6wDtlqmOY-p-aFqJ-vLV_q1aD6o6J4oeOVP84EsmPZ4XrQGO7VWfvQ4JMm2hZXD-SXxy9dIIeUhhPDFD56HYxWIHsQZhSfmiXto2nVOWOeFuCi3IIH1Y8FQx75OIV6FUjIfQySjxXjJ8iUaElG5nX5NAfJLtb-xD_jhrWhwjB8IL5tlh610PvgXM_uphhccG35Gtif6q5E4Nz7F3rqoGU0Iv0tX0oHRffGNQMDHycjfpqlR7nlZNl8DkNfMkjHRHSknvnrVro1bAMFu9B2GaO6_sZLkKE2263JrQHVQ9ANI7weOO8Caca-9XBB1P38f2Y9vNMQY-uAvNYd60Ql0RAg9liyRLK8mTYtFw3HqAS6ldHG4yWuio9k5jkNdxv1PEA_QSoHKikjZMatpd4W2Op-2TRYrsi_VlonJtoZlzXviqeyaFb4OxwfSjXUHDLfL4b0Red1QdpqcjKkNyxyd0t5RmFeKIreoiynXIFkRHWSK_JUhmwA7VXS44E-3c7DG4ZVzi_MhtADphFhS1821NPXjjlPtpLEY4ivqj11ds_LPx28xODOfBQCtN81IVVczQtYDVq115GlaHUL24ozcTEbMFA87igE29oLnp-Xg_HYFNYymHfj0Lmv33Mmq3wUqsl515-O9QY4w9_mawBoFAS4SMi42ixwFKebgCiTXz7EdU51sAy7ZQVuzyb3iQgXMx6cj8FxpYURqC4eduese35WJVL1JCH2kFuGssj_nwaLSIMZdG9_3U4TyCCVOZJQy3di4zwiemlE3RWenJupld3P4glBWpaJL9ZHRjb5OS6nApr7sg4cuZ2lm8KELcjZpjw_ovXuaJSqpMFcy1x4zpS9Az7s3nuPotBsbZ9r-2arYT3GKxLnS1cjnLwdwKGYjOm2X-37DAqKxFeQaKQ7NQgqFuhGz8kdCcj0zJkkJHVGmq4H-V_B52IAQhSbJ3Y9QAtSd4VwEm2ZAGZbpUyI-if6takXvhwXzXazWPcigChA6BiCt14iB-A_pVBBGDwzUblUD24O72rCvVTXsA0Rk_CJ6qWFom1MRbKSW80qxn-k4m6_dFfrREFlR2Lfwfi7xw01yiIH6CUtCyivKzA88l21TSd5lAVBElZAzt80hxblmdffnIc3dgvjXYmclsH_oivrXcfSg-oOg28PJiub7i-wvNZrhXy<table><tr><td style="font-weight:bold;vertical-align:top;">comment</td><td style="vertical-align:top;">:</td><td><div></div></td></tr><tr><td style="font-weight:bold;vertical-align:top;">domain</td><td style="vertical-align:top;">:</td><td><div></div></td></tr><tr><td style="font-weight:bold;vertical-align:top;">expires</td><td style="vertical-align:top;">:</td><td><div></div></td></tr><tr><td style="font-weight:bold;vertical-align:top;">httponly</td><td style="vertical-align:top;">:</td><td><div></div></td></tr><tr><td style="font-weight:bold;vertical-align:top;">max-age</td><td style="vertical-align:top;">:</td><td><div></div></td></tr><tr><td style="font-weight:bold;vertical-align:top;">path</td><td style="vertical-align:top;">:</td><td><div></div></td></tr><tr><td style="font-weight:bold;vertical-align:top;">secure</td><td style="vertical-align:top;">:</td><td><div></div></td></tr><tr><td style="font-weight:bold;vertical-align:top;">version</td><td style="vertical-align:top;">:</td><td><div></div></td></tr></table></div></td></tr><tr><td style="font-weight:bold;vertical-align:top;">session_id_admin</td><td style="vertical-align:top;">:</td><td><div>127.0.0.1-5e4d5587-8e46-4ab9-bda4-cde90ee24cff<table><tr><td style="font-weight:bold;vertical-align:top;">comment</td><td style="vertical-align:top;">:</td><td><div></div></td></tr><tr><td style="font-weight:bold;vertical-align:top;">domain</td><td style="vertical-align:top;">:</td><td><div></div></td></tr><tr><td style="font-weight:bold;vertical-align:top;">expires</td><td style="vertical-align:top;">:</td><td><div></div></td></tr><tr><td style="font-weight:bold;vertical-align:top;">httponly</td><td style="vertical-align:top;">:</td><td><div></div></td></tr><tr><td style="font-weight:bold;vertical-align:top;">max-age</td><td style="vertical-align:top;">:</td><td><div></div></td></tr><tr><td style="font-weight:bold;vertical-align:top;">path</td><td style="vertical-align:top;">:</td><td><div></div></td></tr><tr><td style="font-weight:bold;vertical-align:top;">secure</td><td style="vertical-align:top;">:</td><td><div></div></td></tr><tr><td style="font-weight:bold;vertical-align:top;">version</td><td style="vertical-align:top;">:</td><td><div></div></td></tr></table></div></td></tr><tr><td style="font-weight:bold;vertical-align:top;">session_id_hackathon</td><td style="vertical-align:top;">:</td><td><div>127.0.0.1-e9d19e57-2c82-4246-95e2-3afb87897355<table><tr><td style="font-weight:bold;vertical-align:top;">comment</td><td style="vertical-align:top;">:</td><td><div></div></td></tr><tr><td style="font-weight:bold;vertical-align:top;">domain</td><td style="vertical-align:top;">:</td><td><div></div></td></tr><tr><td style="font-weight:bold;vertical-align:top;">expires</td><td style="vertical-align:top;">:</td><td><div></div></td></tr><tr><td style="font-weight:bold;vertical-align:top;">httponly</td><td style="vertical-align:top;">:</td><td><div></div></td></tr><tr><td style="font-weight:bold;vertical-align:top;">max-age</td><td style="vertical-align:top;">:</td><td><div></div></td></tr><tr><td style="font-weight:bold;vertical-align:top;">path</td><td style="vertical-align:top;">:</td><td><div></div></td></tr><tr><td style="font-weight:bold;vertical-align:top;">secure</td><td style="vertical-align:top;">:</td><td><div></div></td></tr><tr><td style="font-weight:bold;vertical-align:top;">version</td><td style="vertical-align:top;">:</td><td><div></div></td></tr></table></div></td></tr><tr><td style="font-weight:bold;vertical-align:top;">session_id_hw</td><td style="vertical-align:top;">:</td><td><div>127.0.0.1-23223d0c-fdad-4421-b0fa-bfb22452a98b<table><tr><td style="font-weight:bold;vertical-align:top;">comment</td><td style="vertical-align:top;">:</td><td><div></div></td></tr><tr><td style="font-weight:bold;vertical-align:top;">domain</td><td style="vertical-align:top;">:</td><td><div></div></td></tr><tr><td style="font-weight:bold;vertical-align:top;">expires</td><td style="vertical-align:top;">:</td><td><div></div></td></tr><tr><td style="font-weight:bold;vertical-align:top;">httponly</td><td style="vertical-align:top;">:</td><td><div></div></td></tr><tr><td style="font-weight:bold;vertical-align:top;">max-age</td><td style="vertical-align:top;">:</td><td><div></div></td></tr><tr><td style="font-weight:bold;vertical-align:top;">path</td><td style="vertical-align:top;">:</td><td><div></div></td></tr><tr><td style="font-weight:bold;vertical-align:top;">secure</td><td style="vertical-align:top;">:</td><td><div></div></td></tr><tr><td style="font-weight:bold;vertical-align:top;">version</td><td style="vertical-align:top;">:</td><td><div></div></td></tr></table></div></td></tr><tr><td style="font-weight:bold;vertical-align:top;">session_id_layouttest</td><td style="vertical-align:top;">:</td><td><div>127.0.0.1-9dd550cb-7d25-4599-add6-bbf406414416<table><tr><td style="font-weight:bold;vertical-align:top;">comment</td><td style="vertical-align:top;">:</td><td><div></div></td></tr><tr><td style="font-weight:bold;vertical-align:top;">domain</td><td style="vertical-align:top;">:</td><td><div></div></td></tr><tr><td style="font-weight:bold;vertical-align:top;">expires</td><td style="vertical-align:top;">:</td><td><div></div></td></tr><tr><td style="font-weight:bold;vertical-align:top;">httponly</td><td style="vertical-align:top;">:</td><td><div></div></td></tr><tr><td style="font-weight:bold;vertical-align:top;">max-age</td><td style="vertical-align:top;">:</td><td><div></div></td></tr><tr><td style="font-weight:bold;vertical-align:top;">path</td><td style="vertical-align:top;">:</td><td><div></div></td></tr><tr><td style="font-weight:bold;vertical-align:top;">secure</td><td style="vertical-align:top;">:</td><td><div></div></td></tr><tr><td style="font-weight:bold;vertical-align:top;">version</td><td style="vertical-align:top;">:</td><td><div></div></td></tr></table></div></td></tr><tr><td style="font-weight:bold;vertical-align:top;">session_id_ourhours</td><td style="vertical-align:top;">:</td><td><div>True<table><tr><td style="font-weight:bold;vertical-align:top;">comment</td><td style="vertical-align:top;">:</td><td><div></div></td></tr><tr><td style="font-weight:bold;vertical-align:top;">domain</td><td style="vertical-align:top;">:</td><td><div></div></td></tr><tr><td style="font-weight:bold;vertical-align:top;">expires</td><td style="vertical-align:top;">:</td><td><div></div></td></tr><tr><td style="font-weight:bold;vertical-align:top;">httponly</td><td style="vertical-align:top;">:</td><td><div></div></td></tr><tr><td style="font-weight:bold;vertical-align:top;">max-age</td><td style="vertical-align:top;">:</td><td><div></div></td></tr><tr><td style="font-weight:bold;vertical-align:top;">path</td><td style="vertical-align:top;">:</td><td><div></div></td></tr><tr><td style="font-weight:bold;vertical-align:top;">secure</td><td style="vertical-align:top;">:</td><td><div></div></td></tr><tr><td style="font-weight:bold;vertical-align:top;">version</td><td style="vertical-align:top;">:</td><td><div></div></td></tr></table></div></td></tr><tr><td style="font-weight:bold;vertical-align:top;">session_id_welcome</td><td style="vertical-align:top;">:</td><td><div>127.0.0.1-3404b542-72e6-426d-9bd7-f225ed0f1803<table><tr><td style="font-weight:bold;vertical-align:top;">comment</td><td style="vertical-align:top;">:</td><td><div></div></td></tr><tr><td style="font-weight:bold;vertical-align:top;">domain</td><td style="vertical-align:top;">:</td><td><div></div></td></tr><tr><td style="font-weight:bold;vertical-align:top;">expires</td><td style="vertical-align:top;">:</td><td><div></div></td></tr><tr><td style="font-weight:bold;vertical-align:top;">httponly</td><td style="vertical-align:top;">:</td><td><div></div></td></tr><tr><td style="font-weight:bold;vertical-align:top;">max-age</td><td style="vertical-align:top;">:</td><td><div></div></td></tr><tr><td style="font-weight:bold;vertical-align:top;">path</td><td style="vertical-align:top;">:</td><td><div></div></td></tr><tr><td style="font-weight:bold;vertical-align:top;">secure</td><td style="vertical-align:top;">:</td><td><div></div></td></tr><tr><td style="font-weight:bold;vertical-align:top;">version</td><td style="vertical-align:top;">:</td><td><div></div></td></tr></table></div></td></tr></table></div></td></tr><tr><td style="font-weight:bold;vertical-align:top;">env</td><td style="vertical-align:top;">:</td><td><div><table><tr><td style="font-weight:bold;vertical-align:top;">HTTP_ACCEPT</td><td style="vertical-align:top;">:</td><td><div>text/html,application/xhtml+xml,application/xml;q=0.9,image/webp,*/*;q=0.8</div></td></tr><tr><td style="font-weight:bold;vertical-align:top;">HTTP_ACCEPT_ENCODING</td><td style="vertical-align:top;">:</td><td><div>gzip, deflate, sdch, br</div></td></tr><tr><td style="font-weight:bold;vertical-align:top;">HTTP_ACCEPT_LANGUAGE</td><td style="vertical-align:top;">:</td><td><div>en-US,en;q=0.8</div></td></tr><tr><td style="font-weight:bold;vertical-align:top;">HTTP_CACHE_CONTROL</td><td style="vertical-align:top;">:</td><td><div>max-age=0</div></td></tr><tr><td style="font-weight:bold;vertical-align:top;">HTTP_CONNECTION</td><td style="vertical-align:top;">:</td><td><div>keep-alive</div></td></tr><tr><td style="font-weight:bold;vertical-align:top;">HTTP_COOKIE</td><td style="vertical-align:top;">:</td><td><div>session_id_layouttest=127.0.0.1-9dd550cb-7d25-4599-add6-bbf406414416; resolution=1349; session_id_hackathon=127.0.0.1-e9d19e57-2c82-4246-95e2-3afb87897355; session_id_hw=127.0.0.1-23223d0c-fdad-4421-b0fa-bfb22452a98b; session_id_welcome=127.0.0.1-3404b542-72e6-426d-9bd7-f225ed0f1803; session_id_admin=127.0.0.1-5e4d5587-8e46-4ab9-bda4-cde90ee24cff; session_data_ourhours=&quot;a8378ad6138f6c38087601721ca04832:EszyRN3zOkjgz1yw41wcDvvVJA8Nckdu4buppvPlIYM6YeW9P40AyTmlcam2M1u0jj24t2oLBd7WMDxaf8c8Npor9kdWx3hqTYtfJOsNVfG2r14VaCYDmU6-dO_7yuyKVsJod_Ub1UJ3Q2b-tgh0NKh89vNhD9vhm6UDm1lkmYPyc_6MuVim3tcualDHN2wS3M7D4dSIHGKmLZdkQnkoqgvGvLkMICrCM3fNQUosLZyWPCsmyO1_xTYS4i3Ur7EnZZ-bYbn0_0qT9dqxe_mWJooFZv9B7sxtfhwetGCnvBdwG-ti2D22KSDl0FZnAfPccCC_PGtdvSI8bHCvA6SBH2-88CkNHUujmed-EimdQ2ihwmlFAcmJsS0kkyAovDkunf0a7NuknmKChB-JFUJespcANVHWH3Nzy0N96pYNPx1dm7JYkinDhY3WovKN0Gpl_TyEuxh8qn2BSDjccj6bYBtrxYKpVAlpRB7kfofu4a5qZ4UY_ZUV18gufmgTJLTVmts-fSSGvvInr_wmr7cFa_rLi16R856Jsju0IcxeclHdwq8KljvVGQ540B9wqoK-MhfdkxYqaFrv6pkFzmnclxyDbKEmHDZazSyDoYAevQBzX-MtytEmW_WERH6QQdMCYcYIShQ1mbzlJO6f9F-UdxMBCjdNGNE-PfLzfPwIIWucCqPUxqUpufV5KoM561U6VyXoaWB9kzz5KqCJ0pw-GwlSM1XvhkdEbW8hXt4T69CSDb_xG4hiS1JJSv7r6YP7YHhtn3665usblejaY7FIWBFH5Nzc5EqsRTw6wDtlqmOY-p-aFqJ-vLV_q1aD6o6J4oeOVP84EsmPZ4XrQGO7VWfvQ4JMm2hZXD-SXxy9dIIeUhhPDFD56HYxWIHsQZhSfmiXto2nVOWOeFuCi3IIH1Y8FQx75OIV6FUjIfQySjxXjJ8iUaElG5nX5NAfJLtb-xD_jhrWhwjB8IL5tlh610PvgXM_uphhccG35Gtif6q5E4Nz7F3rqoGU0Iv0tX0oHRffGNQMDHycjfpqlR7nlZNl8DkNfMkjHRHSknvnrVro1bAMFu9B2GaO6_sZLkKE2263JrQHVQ9ANI7weOO8Caca-9XBB1P38f2Y9vNMQY-uAvNYd60Ql0RAg9liyRLK8mTYtFw3HqAS6ldHG4yWuio9k5jkNdxv1PEA_QSoHKikjZMatpd4W2Op-2TRYrsi_VlonJtoZlzXviqeyaFb4OxwfSjXUHDLfL4b0Red1QdpqcjKkNyxyd0t5RmFeKIreoiynXIFkRHWSK_JUhmwA7VXS44E-3c7DG4ZVzi_MhtADphFhS1821NPXjjlPtpLEY4ivqj11ds_LPx28xODOfBQCtN81IVVczQtYDVq115GlaHUL24ozcTEbMFA87igE29oLnp-Xg_HYFNYymHfj0Lmv33Mmq3wUqsl515-O9QY4w9_mawBoFAS4SMi42ixwFKebgCiTXz7EdU51sAy7ZQVuzyb3iQgXMx6cj8FxpYURqC4eduese35WJVL1JCH2kFuGssj_nwaLSIMZdG9_3U4TyCCVOZJQy3di4zwiemlE3RWenJupld3P4glBWpaJL9ZHRjb5OS6nApr7sg4cuZ2lm8KELcjZpjw_ovXuaJSqpMFcy1x4zpS9Az7s3nuPotBsbZ9r-2arYT3GKxLnS1cjnLwdwKGYjOm2X-37DAqKxFeQaKQ7NQgqFuhGz8kdCcj0zJkkJHVGmq4H-V_B52IAQhSbJ3Y9QAtSd4VwEm2ZAGZbpUyI-if6takXvhwXzXazWPcigChA6BiCt14iB-A_pVBBGDwzUblUD24O72rCvVTXsA0Rk_CJ6qWFom1MRbKSW80qxn-k4m6_dFfrREFlR2Lfwfi7xw01yiIH6CUtCyivKzA88l21TSd5lAVBElZAzt80hxblmdffnIc3dgvjXYmclsH_oivrXcfSg-oOg28PJiub7i-wvNZrhXy&quot;; session_id_ourhours=True</div></td></tr><tr><td style="font-weight:bold;vertical-align:top;">HTTP_HOST</td><td style="vertical-align:top;">:</td><td><div>127.0.0.1:8000</div></td></tr><tr><td style="font-weight:bold;vertical-align:top;">HTTP_REFERER</td><td style="vertical-align:top;">:</td><td><div>http://127.0.0.1:8000/ourhours/default/create</div></td></tr><tr><td style="font-weight:bold;vertical-align:top;">HTTP_UPGRADE_INSECURE_REQUESTS</td><td style="vertical-align:top;">:</td><td><div>1</div></td></tr><tr><td style="font-weight:bold;vertical-align:top;">HTTP_USER_AGENT</td><td style="vertical-align:top;">:</td><td><div>Mozilla/5.0 (Windows NT 10.0; Win64; x64) AppleWebKit/537.36 (KHTML, like Gecko) Chrome/55.0.2883.87 Safari/537.36</div></td></tr><tr><td style="font-weight:bold;vertical-align:top;">PATH_INFO</td><td style="vertical-align:top;">:</td><td><div>/ourhours/default/index</div></td></tr><tr><td style="font-weight:bold;vertical-align:top;">QUERY_STRING</td><td style="vertical-align:top;">:</td><td><div></div></td></tr><tr><td style="font-weight:bold;vertical-align:top;">REMOTE_ADDR</td><td style="vertical-align:top;">:</td><td><div>127.0.0.1</div></td></tr><tr><td style="font-weight:bold;vertical-align:top;">REMOTE_PORT</td><td style="vertical-align:top;">:</td><td><div>61694</div></td></tr><tr><td style="font-weight:bold;vertical-align:top;">REQUEST_METHOD</td><td style="vertical-align:top;">:</td><td><div>GET</div></td></tr><tr><td style="font-weight:bold;vertical-align:top;">SCRIPT_NAME</td><td style="vertical-align:top;">:</td><td><div></div></td></tr><tr><td style="font-weight:bold;vertical-align:top;">SERVER_NAME</td><td style="vertical-align:top;">:</td><td><div>DESKTOP-GDD7DCK</div></td></tr><tr><td style="font-weight:bold;vertical-align:top;">SERVER_PORT</td><td style="vertical-align:top;">:</td><td><div>8000</div></td></tr><tr><td style="font-weight:bold;vertical-align:top;">SERVER_PROTOCOL</td><td style="vertical-align:top;">:</td><td><div>HTTP/1.1</div></td></tr><tr><td style="font-weight:bold;vertical-align:top;">SERVER_SOFTWARE</td><td style="vertical-align:top;">:</td><td><div>Rocket 1.2.6</div></td></tr><tr><td style="font-weight:bold;vertical-align:top;">app_folders</td><td style="vertical-align:top;">:</td><td><div>set([&#x27;C:\\\\Users\\\\Wesly\\\\Desktop\\\\UCSC-Hack-2017\\\\applications\\\\welcome\\\\&#x27;, &#x27;C:\\\\Users\\\\Wesly\\\\Desktop\\\\UCSC-Hack-2017\\\\applications\\\\examples\\\\&#x27;, &#x27;C:\\\\Users\\\\Wesly\\\\Desktop\\\\UCSC-Hack-2017\\\\applications\\\\ourhours\\\\&#x27;, &#x27;C:\\\\Users\\\\Wesly\\\\Desktop\\\\UCSC-Hack-2017\\\\applications\\\\admin\\\\&#x27;])</div></td></tr><tr><td style="font-weight:bold;vertical-align:top;">applications_parent</td><td style="vertical-align:top;">:</td><td><div>C:\\Users\\Wesly\\Desktop\\UCSC-Hack-2017</div></td></tr><tr><td style="font-weight:bold;vertical-align:top;">cmd_args</td><td style="vertical-align:top;">:</td><td><div><table></table></div></td></tr><tr><td style="font-weight:bold;vertical-align:top;">cmd_options</td><td style="vertical-align:top;">:</td><td><div>&lt;Values at 0x2ddaeb8: {&#x27;verbose&#x27;: False, &#x27;ip&#x27;: &#x27;127.0.0.1&#x27;, &#x27;debuglevel&#x27;: 30, &#x27;with_scheduler&#x27;: False, &#x27;shutdown_timeout&#x27;: 5, &#x27;taskbar&#x27;: False, &#x27;with_coverage&#x27;: False, &#x27;pid_filename&#x27;: &#x27;httpserver.pid&#x27;, &#x27;maxthreads&#x27;: None, &#x27;softcron&#x27;: False, &#x27;server_name&#x27;: &#x27;DESKTOP-GDD7DCK&#x27;, &#x27;bpython&#x27;: False, &#x27;nogui&#x27;: False, &#x27;port&#x27;: 8000, &#x27;print_errors&#x27;: False, &#x27;extcron&#x27;: False, &#x27;runcron&#x27;: False, &#x27;run_system_tests&#x27;: False, &#x27;test&#x27;: None, &#x27;folder&#x27;: &#x27;C:\\\\Users\\\\Wesly\\\\Desktop\\\\UCSC-Hack-2017&#x27;, &#x27;config&#x27;: &#x27;&#x27;, &#x27;minthreads&#x27;: None, &#x27;shell&#x27;: None, &#x27;run&#x27;: &#x27;&#x27;, &#x27;log_filename&#x27;: &#x27;httpserver.log&#x27;, &#x27;profiler_dir&#x27;: None, &#x27;args&#x27;: [&#x27;&#x27;], &#x27;socket_timeout&#x27;: 5, &#x27;ssl_ca_certificate&#x27;: None, &#x27;scheduler&#x27;: None, &#x27;interfaces&#x27;: None, &#x27;ssl_private_key&#x27;: &#x27;&#x27;, &#x27;gae&#x27;: None, &#x27;password&#x27;: &#x27;******&#x27;, &#x27;request_queue_size&#x27;: 5, &#x27;ssl_certificate&#x27;: &#x27;&#x27;, &#x27;cronjob&#x27;: False, &#x27;numthreads&#x27;: None, &#x27;quiet&#x27;: False, &#x27;import_models&#x27;: False, &#x27;timeout&#x27;: 10, &#x27;plain&#x27;: False, &#x27;nobanner&#x27;: False}&gt;</div></td></tr><tr><td style="font-weight:bold;vertical-align:top;">db_sessions</td><td style="vertical-align:top;">:</td><td><div>set([])</div></td></tr><tr><td style="font-weight:bold;vertical-align:top;">debugging</td><td style="vertical-align:top;">:</td><td><div>True</div></td></tr><tr><td style="font-weight:bold;vertical-align:top;">gluon_parent</td><td style="vertical-align:top;">:</td><td><div>C:\\Users\\Wesly\\Desktop\\UCSC-Hack-2017</div></td></tr><tr><td style="font-weight:bold;vertical-align:top;">http_accept</td><td style="vertical-align:top;">:</td><td><div>text/html,application/xhtml+xml,application/xml;q=0.9,image/webp,*/*;q=0.8</div></td></tr><tr><td style="font-weight:bold;vertical-align:top;">http_accept_encoding</td><td style="vertical-align:top;">:</td><td><div>gzip, deflate, sdch, br</div></td></tr><tr><td style="font-weight:bold;vertical-align:top;">http_accept_language</td><td style="vertical-align:top;">:</td><td><div>en-US,en;q=0.8</div></td></tr><tr><td style="font-weight:bold;vertical-align:top;">http_cache_control</td><td style="vertical-align:top;">:</td><td><div>max-age=0</div></td></tr><tr><td style="font-weight:bold;vertical-align:top;">http_connection</td><td style="vertical-align:top;">:</td><td><div>keep-alive</div></td></tr><tr><td style="font-weight:bold;vertical-align:top;">http_cookie</td><td style="vertical-align:top;">:</td><td><div>session_id_layouttest=127.0.0.1-9dd550cb-7d25-4599-add6-bbf406414416; resolution=1349; session_id_hackathon=127.0.0.1-e9d19e57-2c82-4246-95e2-3afb87897355; session_id_hw=127.0.0.1-23223d0c-fdad-4421-b0fa-bfb22452a98b; session_id_welcome=127.0.0.1-3404b542-72e6-426d-9bd7-f225ed0f1803; session_id_admin=127.0.0.1-5e4d5587-8e46-4ab9-bda4-cde90ee24cff; session_data_ourhours=&quot;a8378ad6138f6c38087601721ca04832:EszyRN3zOkjgz1yw41wcDvvVJA8Nckdu4buppvPlIYM6YeW9P40AyTmlcam2M1u0jj24t2oLBd7WMDxaf8c8Npor9kdWx3hqTYtfJOsNVfG2r14VaCYDmU6-dO_7yuyKVsJod_Ub1UJ3Q2b-tgh0NKh89vNhD9vhm6UDm1lkmYPyc_6MuVim3tcualDHN2wS3M7D4dSIHGKmLZdkQnkoqgvGvLkMICrCM3fNQUosLZyWPCsmyO1_xTYS4i3Ur7EnZZ-bYbn0_0qT9dqxe_mWJooFZv9B7sxtfhwetGCnvBdwG-ti2D22KSDl0FZnAfPccCC_PGtdvSI8bHCvA6SBH2-88CkNHUujmed-EimdQ2ihwmlFAcmJsS0kkyAovDkunf0a7NuknmKChB-JFUJespcANVHWH3Nzy0N96pYNPx1dm7JYkinDhY3WovKN0Gpl_TyEuxh8qn2BSDjccj6bYBtrxYKpVAlpRB7kfofu4a5qZ4UY_ZUV18gufmgTJLTVmts-fSSGvvInr_wmr7cFa_rLi16R856Jsju0IcxeclHdwq8KljvVGQ540B9wqoK-MhfdkxYqaFrv6pkFzmnclxyDbKEmHDZazSyDoYAevQBzX-MtytEmW_WERH6QQdMCYcYIShQ1mbzlJO6f9F-UdxMBCjdNGNE-PfLzfPwIIWucCqPUxqUpufV5KoM561U6VyXoaWB9kzz5KqCJ0pw-GwlSM1XvhkdEbW8hXt4T69CSDb_xG4hiS1JJSv7r6YP7YHhtn3665usblejaY7FIWBFH5Nzc5EqsRTw6wDtlqmOY-p-aFqJ-vLV_q1aD6o6J4oeOVP84EsmPZ4XrQGO7VWfvQ4JMm2hZXD-SXxy9dIIeUhhPDFD56HYxWIHsQZhSfmiXto2nVOWOeFuCi3IIH1Y8FQx75OIV6FUjIfQySjxXjJ8iUaElG5nX5NAfJLtb-xD_jhrWhwjB8IL5tlh610PvgXM_uphhccG35Gtif6q5E4Nz7F3rqoGU0Iv0tX0oHRffGNQMDHycjfpqlR7nlZNl8DkNfMkjHRHSknvnrVro1bAMFu9B2GaO6_sZLkKE2263JrQHVQ9ANI7weOO8Caca-9XBB1P38f2Y9vNMQY-uAvNYd60Ql0RAg9liyRLK8mTYtFw3HqAS6ldHG4yWuio9k5jkNdxv1PEA_QSoHKikjZMatpd4W2Op-2TRYrsi_VlonJtoZlzXviqeyaFb4OxwfSjXUHDLfL4b0Red1QdpqcjKkNyxyd0t5RmFeKIreoiynXIFkRHWSK_JUhmwA7VXS44E-3c7DG4ZVzi_MhtADphFhS1821NPXjjlPtpLEY4ivqj11ds_LPx28xODOfBQCtN81IVVczQtYDVq115GlaHUL24ozcTEbMFA87igE29oLnp-Xg_HYFNYymHfj0Lmv33Mmq3wUqsl515-O9QY4w9_mawBoFAS4SMi42ixwFKebgCiTXz7EdU51sAy7ZQVuzyb3iQgXMx6cj8FxpYURqC4eduese35WJVL1JCH2kFuGssj_nwaLSIMZdG9_3U4TyCCVOZJQy3di4zwiemlE3RWenJupld3P4glBWpaJL9ZHRjb5OS6nApr7sg4cuZ2lm8KELcjZpjw_ovXuaJSqpMFcy1x4zpS9Az7s3nuPotBsbZ9r-2arYT3GKxLnS1cjnLwdwKGYjOm2X-37DAqKxFeQaKQ7NQgqFuhGz8kdCcj0zJkkJHVGmq4H-V_B52IAQhSbJ3Y9QAtSd4VwEm2ZAGZbpUyI-if6takXvhwXzXazWPcigChA6BiCt14iB-A_pVBBGDwzUblUD24O72rCvVTXsA0Rk_CJ6qWFom1MRbKSW80qxn-k4m6_dFfrREFlR2Lfwfi7xw01yiIH6CUtCyivKzA88l21TSd5lAVBElZAzt80hxblmdffnIc3dgvjXYmclsH_oivrXcfSg-oOg28PJiub7i-wvNZrhXy&quot;; session_id_ourhours=True</div></td></tr><tr><td style="font-weight:bold;vertical-align:top;">http_host</td><td style="vertical-align:top;">:</td><td><div>127.0.0.1:8000</div></td></tr><tr><td style="font-weight:bold;vertical-align:top;">http_referer</td><td style="vertical-align:top;">:</td><td><div>http://127.0.0.1:8000/ourhours/default/create</div></td></tr><tr><td style="font-weight:bold;vertical-align:top;">http_upgrade_insecure_requests</td><td style="vertical-align:top;">:</td><td><div>1</div></td></tr><tr><td style="font-weight:bold;vertical-align:top;">http_user_agent</td><td style="vertical-align:top;">:</td><td><div>Mozilla/5.0 (Windows NT 10.0; Win64; x64) AppleWebKit/537.36 (KHTML, like Gecko) Chrome/55.0.2883.87 Safari/537.36</div></td></tr><tr><td style="font-weight:bold;vertical-align:top;">is_jython</td><td style="vertical-align:top;">:</td><td><div>False</div></td></tr><tr><td style="font-weight:bold;vertical-align:top;">is_pypy</td><td style="vertical-align:top;">:</td><td><div>False</div></td></tr><tr><td style="font-weight:bold;vertical-align:top;">is_source</td><td style="vertical-align:top;">:</td><td><div>False</div></td></tr><tr><td style="font-weight:bold;vertical-align:top;">local_hosts</td><td style="vertical-align:top;">:</td><td><div><table><tr><td><div>fe80::81f2:e7ae:7efe:f1e7%23</div></td></tr><tr><td><div>DESKTOP-GDD7DCK</div></td></tr><tr><td><div>::ffff:127.0.0.1</div></td></tr><tr><td><div>::1</div></td></tr><tr><td><div>fe80::5efe:192.168.1.135%21</div></td></tr><tr><td><div>192.168.1.135</div></td></tr><tr><td><div>fe80::e941:c1cf:aca3:e27d%22</div></td></tr><tr><td><div>127.0.0.1</div></td></tr><tr><td><div>192.168.56.1</div></td></tr></table></div></td></tr><tr><td style="font-weight:bold;vertical-align:top;">path_info</td><td style="vertical-align:top;">:</td><td><div>/ourhours/default/index</div></td></tr><tr><td style="font-weight:bold;vertical-align:top;">query_string</td><td style="vertical-align:top;">:</td><td><div></div></td></tr><tr><td style="font-weight:bold;vertical-align:top;">remote_addr</td><td style="vertical-align:top;">:</td><td><div>127.0.0.1</div></td></tr><tr><td style="font-weight:bold;vertical-align:top;">remote_port</td><td style="vertical-align:top;">:</td><td><div>61694</div></td></tr><tr><td style="font-weight:bold;vertical-align:top;">request_method</td><td style="vertical-align:top;">:</td><td><div>GET</div></td></tr><tr><td style="font-weight:bold;vertical-align:top;">request_uri</td><td style="vertical-align:top;">:</td><td><div>/ourhours/default/index</div></td></tr><tr><td style="font-weight:bold;vertical-align:top;">script_name</td><td style="vertical-align:top;">:</td><td><div></div></td></tr><tr><td style="font-weight:bold;vertical-align:top;">server_name</td><td style="vertical-align:top;">:</td><td><div>DESKTOP-GDD7DCK</div></td></tr><tr><td style="font-weight:bold;vertical-align:top;">server_port</td><td style="vertical-align:top;">:</td><td><div>8000</div></td></tr><tr><td style="font-weight:bold;vertical-align:top;">server_protocol</td><td style="vertical-align:top;">:</td><td><div>HTTP/1.1</div></td></tr><tr><td style="font-weight:bold;vertical-align:top;">server_software</td><td style="vertical-align:top;">:</td><td><div>Rocket 1.2.6</div></td></tr><tr><td style="font-weight:bold;vertical-align:top;">web2py_path</td><td style="vertical-align:top;">:</td><td><div>C:\\Users\\Wesly\\Desktop\\UCSC-Hack-2017</div></td></tr><tr><td style="font-weight:bold;vertical-align:top;">web2py_version</td><td style="vertical-align:top;">:</td><td><div>2.14.6-stable+timestamp.2016.05.10.00.21.47</div></td></tr><tr><td style="font-weight:bold;vertical-align:top;">wsgi.errors</td><td style="vertical-align:top;">:</td><td><div>&lt;open file &#x27;&lt;stderr&gt;&#x27;, mode &#x27;w&#x27; at 0x0221D0D0&gt;</div></td></tr><tr><td style="font-weight:bold;vertical-align:top;">wsgi.file_wrapper</td><td style="vertical-align:top;">:</td><td><div>&lt;class wsgiref.util.FileWrapper at 0x0321F148&gt;</div></td></tr><tr><td style="font-weight:bold;vertical-align:top;">wsgi.input</td><td style="vertical-align:top;">:</td><td><div>&lt;socket._fileobject object at 0x076D7F70&gt;</div></td></tr><tr><td style="font-weight:bold;vertical-align:top;">wsgi.multiprocess</td><td style="vertical-align:top;">:</td><td><div>False</div></td></tr><tr><td style="font-weight:bold;vertical-align:top;">wsgi.multithread</td><td style="vertical-align:top;">:</td><td><div>True</div></td></tr><tr><td style="font-weight:bold;vertical-align:top;">wsgi.run_once</td><td style="vertical-align:top;">:</td><td><div>False</div></td></tr><tr><td style="font-weight:bold;vertical-align:top;">wsgi.url_scheme</td><td style="vertical-align:top;">:</td><td><div>http</div></td></tr><tr><td style="font-weight:bold;vertical-align:top;">wsgi.version</td><td style="vertical-align:top;">:</td><td><div><table><tr><td><div>1</div></td></tr><tr><td><div>0</div></td></tr></table></div></td></tr><tr><td style="font-weight:bold;vertical-align:top;">wsgi_errors</td><td style="vertical-align:top;">:</td><td><div>&lt;open file &#x27;&lt;stderr&gt;&#x27;, mode &#x27;w&#x27; at 0x0221D0D0&gt;</div></td></tr><tr><td style="font-weight:bold;vertical-align:top;">wsgi_file_wrapper</td><td style="vertical-align:top;">:</td><td><div>&lt;class wsgiref.util.FileWrapper at 0x0321F148&gt;</div></td></tr><tr><td style="font-weight:bold;vertical-align:top;">wsgi_input</td><td style="vertical-align:top;">:</td><td><div>&lt;socket._fileobject object at 0x076D7F70&gt;</div></td></tr><tr><td style="font-weight:bold;vertical-align:top;">wsgi_multiprocess</td><td style="vertical-align:top;">:</td><td><div>False</div></td></tr><tr><td style="font-weight:bold;vertical-align:top;">wsgi_multithread</td><td style="vertical-align:top;">:</td><td><div>True</div></td></tr><tr><td style="font-weight:bold;vertical-align:top;">wsgi_run_once</td><td style="vertical-align:top;">:</td><td><div>False</div></td></tr><tr><td style="font-weight:bold;vertical-align:top;">wsgi_url_scheme</td><td style="vertical-align:top;">:</td><td><div>http</div></td></tr><tr><td style="font-weight:bold;vertical-align:top;">wsgi_version</td><td style="vertical-align:top;">:</td><td><div><table><tr><td><div>1</div></td></tr><tr><td><div>0</div></td></tr></table></div></td></tr></table></div></td></tr><tr><td style="font-weight:bold;vertical-align:top;">extension</td><td style="vertical-align:top;">:</td><td><div>html</div></td></tr><tr><td style="font-weight:bold;vertical-align:top;">folder</td><td style="vertical-align:top;">:</td><td><div>C:\\Users\\Wesly\\Desktop\\UCSC-Hack-2017\\applications\\ourhours\\</div></td></tr><tr><td style="font-weight:bold;vertical-align:top;">function</td><td style="vertical-align:top;">:</td><td><div>index</div></td></tr><tr><td style="font-weight:bold;vertical-align:top;">global_settings</td><td style="vertical-align:top;">:</td><td><div><table><tr><td style="font-weight:bold;vertical-align:top;">app_folders</td><td style="vertical-align:top;">:</td><td><div>set([&#x27;C:\\\\Users\\\\Wesly\\\\Desktop\\\\UCSC-Hack-2017\\\\applications\\\\welcome\\\\&#x27;, &#x27;C:\\\\Users\\\\Wesly\\\\Desktop\\\\UCSC-Hack-2017\\\\applications\\\\examples\\\\&#x27;, &#x27;C:\\\\Users\\\\Wesly\\\\Desktop\\\\UCSC-Hack-2017\\\\applications\\\\ourhours\\\\&#x27;, &#x27;C:\\\\Users\\\\Wesly\\\\Desktop\\\\UCSC-Hack-2017\\\\applications\\\\admin\\\\&#x27;])</div></td></tr><tr><td style="font-weight:bold;vertical-align:top;">applications_parent</td><td style="vertical-align:top;">:</td><td><div>C:\\Users\\Wesly\\Desktop\\UCSC-Hack-2017</div></td></tr><tr><td style="font-weight:bold;vertical-align:top;">cmd_args</td><td style="vertical-align:top;">:</td><td><div><table></table></div></td></tr><tr><td style="font-weight:bold;vertical-align:top;">cmd_options</td><td style="vertical-align:top;">:</td><td><div>&lt;Values at 0x2ddaeb8: {&#x27;verbose&#x27;: False, &#x27;ip&#x27;: &#x27;127.0.0.1&#x27;, &#x27;debuglevel&#x27;: 30, &#x27;with_scheduler&#x27;: False, &#x27;shutdown_timeout&#x27;: 5, &#x27;taskbar&#x27;: False, &#x27;with_coverage&#x27;: False, &#x27;pid_filename&#x27;: &#x27;httpserver.pid&#x27;, &#x27;maxthreads&#x27;: None, &#x27;softcron&#x27;: False, &#x27;server_name&#x27;: &#x27;DESKTOP-GDD7DCK&#x27;, &#x27;bpython&#x27;: False, &#x27;nogui&#x27;: False, &#x27;port&#x27;: 8000, &#x27;print_errors&#x27;: False, &#x27;extcron&#x27;: False, &#x27;runcron&#x27;: False, &#x27;run_system_tests&#x27;: False, &#x27;test&#x27;: None, &#x27;folder&#x27;: &#x27;C:\\\\Users\\\\Wesly\\\\Desktop\\\\UCSC-Hack-2017&#x27;, &#x27;config&#x27;: &#x27;&#x27;, &#x27;minthreads&#x27;: None, &#x27;shell&#x27;: None, &#x27;run&#x27;: &#x27;&#x27;, &#x27;log_filename&#x27;: &#x27;httpserver.log&#x27;, &#x27;profiler_dir&#x27;: None, &#x27;args&#x27;: [&#x27;&#x27;], &#x27;socket_timeout&#x27;: 5, &#x27;ssl_ca_certificate&#x27;: None, &#x27;scheduler&#x27;: None, &#x27;interfaces&#x27;: None, &#x27;ssl_private_key&#x27;: &#x27;&#x27;, &#x27;gae&#x27;: None, &#x27;password&#x27;: &#x27;******&#x27;, &#x27;request_queue_size&#x27;: 5, &#x27;ssl_certificate&#x27;: &#x27;&#x27;, &#x27;cronjob&#x27;: False, &#x27;numthreads&#x27;: None, &#x27;quiet&#x27;: False, &#x27;import_models&#x27;: False, &#x27;timeout&#x27;: 10, &#x27;plain&#x27;: False, &#x27;nobanner&#x27;: False}&gt;</div></td></tr><tr><td style="font-weight:bold;vertical-align:top;">db_sessions</td><td style="vertical-align:top;">:</td><td><div>set([])</div></td></tr><tr><td style="font-weight:bold;vertical-align:top;">debugging</td><td style="vertical-align:top;">:</td><td><div>True</div></td></tr><tr><td style="font-weight:bold;vertical-align:top;">gluon_parent</td><td style="vertical-align:top;">:</td><td><div>C:\\Users\\Wesly\\Desktop\\UCSC-Hack-2017</div></td></tr><tr><td style="font-weight:bold;vertical-align:top;">is_jython</td><td style="vertical-align:top;">:</td><td><div>False</div></td></tr><tr><td style="font-weight:bold;vertical-align:top;">is_pypy</td><td style="vertical-align:top;">:</td><td><div>False</div></td></tr><tr><td style="font-weight:bold;vertical-align:top;">is_source</td><td style="vertical-align:top;">:</td><td><div>False</div></td></tr><tr><td style="font-weight:bold;vertical-align:top;">local_hosts</td><td style="vertical-align:top;">:</td><td><div><table><tr><td><div>fe80::81f2:e7ae:7efe:f1e7%23</div></td></tr><tr><td><div>DESKTOP-GDD7DCK</div></td></tr><tr><td><div>::ffff:127.0.0.1</div></td></tr><tr><td><div>::1</div></td></tr><tr><td><div>fe80::5efe:192.168.1.135%21</div></td></tr><tr><td><div>192.168.1.135</div></td></tr><tr><td><div>fe80::e941:c1cf:aca3:e27d%22</div></td></tr><tr><td><div>127.0.0.1</div></td></tr><tr><td><div>192.168.56.1</div></td></tr></table></div></td></tr><tr><td style="font-weight:bold;vertical-align:top;">web2py_version</td><td style="vertical-align:top;">:</td><td><div>2.14.6-stable+timestamp.2016.05.10.00.21.47</div></td></tr></table></div></td></tr><tr><td style="font-weight:bold;vertical-align:top;">is_https</td><td style="vertical-align:top;">:</td><td><div>False</div></td></tr><tr><td style="font-weight:bold;vertical-align:top;">is_local</td><td style="vertical-align:top;">:</td><td><div>True</div></td></tr><tr><td style="font-weight:bold;vertical-align:top;">is_restful</td><td style="vertical-align:top;">:</td><td><div>False</div></td></tr><tr><td style="font-weight:bold;vertical-align:top;">is_scheduler</td><td style="vertical-align:top;">:</td><td><div>False</div></td></tr><tr><td style="font-weight:bold;vertical-align:top;">is_shell</td><td style="vertical-align:top;">:</td><td><div>False</div></td></tr><tr><td style="font-weight:bold;vertical-align:top;">now</td><td style="vertical-align:top;">:</td><td><div>datetime.datetime(2017, 1, 21, 17, 33, 51, 728000)</div></td></tr><tr><td style="font-weight:bold;vertical-align:top;">raw_args</td><td style="vertical-align:top;">:</td><td><div></div></td></tr><tr><td style="font-weight:bold;vertical-align:top;">raw_extension</td><td style="vertical-align:top;">:</td><td><div>None</div></td></tr><tr><td style="font-weight:bold;vertical-align:top;">url</td><td style="vertical-align:top;">:</td><td><div>/ourhours/default/index</div></td></tr><tr><td style="font-weight:bold;vertical-align:top;">utcnow</td><td style="vertical-align:top;">:</td><td><div>datetime.datetime(2017, 1, 22, 1, 33, 51, 728000)</div></td></tr><tr><td style="font-weight:bold;vertical-align:top;">wsgi</td><td style="vertical-align:top;">:</td><td><div>&lt;gluon.main.LazyWSGI object at 0x08123570&gt;</div></td></tr></table></div>'
tRp70
sS'frames'
p71
(lp72
(dp73
S'file'
p74
S'C:\\Users\\Wesly\\Desktop\\UCSC-Hack-2017\\gluon\\restricted.py'
p75
sS'dump'
p76
(dp77
S'code'
p78
S'r"response.write(\'<!DOCTYPE html>\\r\\n<html>\\r\\n  <...></script>\\r\\n    \\r\\n</html>\\r\\n\', escape=False)"'
p79
sS'layer'
p80
S"r'C:\\Users\\Wesly\\Desktop\\UCSC-Hack-2017\\applications\\ourhours\\views\\default/index.html'"
p81
sS'global compile2'
p82
S'<function compile2>'
p83
sS'ccode'
p84
S'undefined'
p85
ssS'lnum'
p86
I226
sS'lines'
p87
(dp88
I224
S'            ccode = code'
p89
sI225
S'        else:'
p90
sI226
S'            ccode = compile2(code, layer)'
p91
sI227
S'        exec ccode in environment'
p92
sI228
S'    except HTTP:'
p93
sI229
S'        raise'
p94
sI230
S'    except RestrictedError:'
p95
sI221
S"    environment['__name__'] = '__restricted__'"
p96
sI222
S'    try:'
p97
sI223
S'        if isinstance(code, types.CodeType):'
p98
ssS'call'
p99
S'(code=r"response.write(\'<!DOCTYPE html>\\r\\n<html>\\r\\n  <...></script>\\r\\n    \\r\\n</html>\\r\\n\', escape=False)", environment={\'A\': <class \'gluon.html.A\'>, \'ANY_OF\': <class \'gluon.validators.ANY_OF\'>, \'ASSIGNJS\': <function ASSIGNJS>, \'Auth\': <class \'gluon.tools.Auth\'>, \'B\': <class \'gluon.html.B\'>, \'BEAUTIFY\': <class \'gluon.html.BEAUTIFY\'>, \'BODY\': <class \'gluon.html.BODY\'>, \'BR\': <class \'gluon.html.BR\'>, \'BUTTON\': <class \'gluon.html.BUTTON\'>, \'CAT\': <class \'gluon.html.CAT\'>, ...}, layer=r\'C:\\Users\\Wesly\\Desktop\\UCSC-Hack-2017\\applications\\ourhours\\views\\default/index.html\')'
p100
sS'func'
p101
S'restricted'
p102
sa(dp103
g74
S'C:\\Users\\Wesly\\Desktop\\UCSC-Hack-2017\\gluon\\restricted.py'
p104
sg76
(dp105
S'builtincompile'
p106
S'<built-in function compile>'
p107
sS'code'
p108
S'r"response.write(\'<!DOCTYPE html>\\r\\n<html>\\r\\n  <...></script>\\r\\n    \\r\\n</html>\\r\\n\', escape=False)"'
p109
sS'code.rstrip'
p110
S'<built-in method rstrip of str object>'
p111
sS').replace'
p112
g85
sS'layer'
p113
S"r'C:\\Users\\Wesly\\Desktop\\UCSC-Hack-2017\\applications\\ourhours\\views\\default/index.html'"
p114
ssg86
I209
sg87
(dp115
I204
S'def compile2(code, layer):'
p116
sI205
S'    """'
p117
sI206
S"    The ``+'\\\\n'`` is necessary else compile fails when code ends in a comment."
p118
sI207
S'    """'
p119
sI208
S''
sI209
S"    return compile(code.rstrip().replace('\\r\\n', '\\n') + '\\n', layer, 'exec')"
p120
sI210
S''
sI211
S''
sI212
S"def restricted(code, environment=None, layer='Unknown'):"
p121
sI213
S'    """'
p122
ssg99
S'(code=r"response.write(\'<!DOCTYPE html>\\r\\n<html>\\r\\n  <...></script>\\r\\n    \\r\\n</html>\\r\\n\', escape=False)", layer=r\'C:\\Users\\Wesly\\Desktop\\UCSC-Hack-2017\\applications\\ourhours\\views\\default/index.html\')'
p123
sg101
S'compile2'
p124
sasS'pyver'
p125
S'Python 2.7.9: C:\\Users\\Wesly\\Desktop\\UCSC-Hack-2017\\web2py.exe (prefix: )'
p126
sS'session'
p127
g69
(S's7\x01\x00\x00<div><table><tr><td style="font-weight:bold;vertical-align:top;">last_orderby</td><td style="vertical-align:top;">:</td><td><div>None</div></td></tr><tr><td style="font-weight:bold;vertical-align:top;">last_query</td><td style="vertical-align:top;">:</td><td><div>db.groups.id&gt;0</div></td></tr></table></div>'
tRp128
sS'etype'
p129
S"<type 'exceptions.SyntaxError'>"
p130
sS'date'
p131
S'Sat Jan 21 17:33:51 2017'
p132
sS'response'
p133
g69
(S's\xb7\x16\x00\x00<div><table><tr><td style="font-weight:bold;vertical-align:top;">body</td><td style="vertical-align:top;">:</td><td><div>&lt;cStringIO.StringO object at 0x08123760&gt;</div></td></tr><tr><td style="font-weight:bold;vertical-align:top;">cookies</td><td style="vertical-align:top;">:</td><td><div><table><tr><td style="font-weight:bold;vertical-align:top;">session_id_ourhours</td><td style="vertical-align:top;">:</td><td><div>127.0.0.1-82506876-50e5-4feb-9648-80850bece3ec<table><tr><td style="font-weight:bold;vertical-align:top;">comment</td><td style="vertical-align:top;">:</td><td><div></div></td></tr><tr><td style="font-weight:bold;vertical-align:top;">domain</td><td style="vertical-align:top;">:</td><td><div></div></td></tr><tr><td style="font-weight:bold;vertical-align:top;">expires</td><td style="vertical-align:top;">:</td><td><div></div></td></tr><tr><td style="font-weight:bold;vertical-align:top;">httponly</td><td style="vertical-align:top;">:</td><td><div></div></td></tr><tr><td style="font-weight:bold;vertical-align:top;">max-age</td><td style="vertical-align:top;">:</td><td><div></div></td></tr><tr><td style="font-weight:bold;vertical-align:top;">path</td><td style="vertical-align:top;">:</td><td><div>/</div></td></tr><tr><td style="font-weight:bold;vertical-align:top;">secure</td><td style="vertical-align:top;">:</td><td><div></div></td></tr><tr><td style="font-weight:bold;vertical-align:top;">version</td><td style="vertical-align:top;">:</td><td><div></div></td></tr></table></div></td></tr></table></div></td></tr><tr><td style="font-weight:bold;vertical-align:top;">delimiters</td><td style="vertical-align:top;">:</td><td><div><table><tr><td><div>{{</div></td></tr><tr><td><div>}}</div></td></tr></table></div></td></tr><tr><td style="font-weight:bold;vertical-align:top;">files</td><td style="vertical-align:top;">:</td><td><div><table></table></div></td></tr><tr><td style="font-weight:bold;vertical-align:top;">flash</td><td style="vertical-align:top;">:</td><td><div></div></td></tr><tr><td style="font-weight:bold;vertical-align:top;">form_label_separator</td><td style="vertical-align:top;">:</td><td><div>: </div></td></tr><tr><td style="font-weight:bold;vertical-align:top;">formstyle</td><td style="vertical-align:top;">:</td><td><div>table3cols</div></td></tr><tr><td style="font-weight:bold;vertical-align:top;">generic_patterns</td><td style="vertical-align:top;">:</td><td><div><table><tr><td><div>*</div></td></tr></table></div></td></tr><tr><td style="font-weight:bold;vertical-align:top;">headers</td><td style="vertical-align:top;">:</td><td><div><table><tr><td style="font-weight:bold;vertical-align:top;">X-Powered-By</td><td style="vertical-align:top;">:</td><td><div>web2py</div></td></tr></table></div></td></tr><tr><td style="font-weight:bold;vertical-align:top;">menu</td><td style="vertical-align:top;">:</td><td><div><table><tr><td><div><table><tr><td><div>Home</div></td></tr><tr><td><div>False</div></td></tr><tr><td><div>/ourhours/default/index</div></td></tr></table></div></td></tr></table></div></td></tr><tr><td style="font-weight:bold;vertical-align:top;">meta</td><td style="vertical-align:top;">:</td><td><div><table></table></div></td></tr><tr><td style="font-weight:bold;vertical-align:top;">models_to_run</td><td style="vertical-align:top;">:</td><td><div><table><tr><td><div>^\\w+\\.py$</div></td></tr><tr><td><div>^default/\\w+\\.py$</div></td></tr><tr><td><div>^default/index/\\w+\\.py$</div></td></tr></table></div></td></tr><tr><td style="font-weight:bold;vertical-align:top;">postprocessing</td><td style="vertical-align:top;">:</td><td><div><table></table></div></td></tr><tr><td style="font-weight:bold;vertical-align:top;">session_client</td><td style="vertical-align:top;">:</td><td><div>127.0.0.1</div></td></tr><tr><td style="font-weight:bold;vertical-align:top;">session_cookie_compression_level</td><td style="vertical-align:top;">:</td><td><div>None</div></td></tr><tr><td style="font-weight:bold;vertical-align:top;">session_cookie_expires</td><td style="vertical-align:top;">:</td><td><div>None</div></td></tr><tr><td style="font-weight:bold;vertical-align:top;">session_data_name</td><td style="vertical-align:top;">:</td><td><div>session_data_ourhours</div></td></tr><tr><td style="font-weight:bold;vertical-align:top;">session_file</td><td style="vertical-align:top;">:</td><td><div>None</div></td></tr><tr><td style="font-weight:bold;vertical-align:top;">session_filename</td><td style="vertical-align:top;">:</td><td><div>C:\\Users\\Wesly\\Desktop\\UCSC-Hack-2017\\applications\\ourhours\\sessions\\127.0.0.1-82506876-50e5-4feb-9648-80850bece3ec</div></td></tr><tr><td style="font-weight:bold;vertical-align:top;">session_hash</td><td style="vertical-align:top;">:</td><td><div>26844e3144137b265be7680d828ffa42</div></td></tr><tr><td style="font-weight:bold;vertical-align:top;">session_id</td><td style="vertical-align:top;">:</td><td><div>True</div></td></tr><tr><td style="font-weight:bold;vertical-align:top;">session_id_name</td><td style="vertical-align:top;">:</td><td><div>session_id_ourhours</div></td></tr><tr><td style="font-weight:bold;vertical-align:top;">session_masterapp</td><td style="vertical-align:top;">:</td><td><div>ourhours</div></td></tr><tr><td style="font-weight:bold;vertical-align:top;">session_new</td><td style="vertical-align:top;">:</td><td><div>True</div></td></tr><tr><td style="font-weight:bold;vertical-align:top;">session_storage_type</td><td style="vertical-align:top;">:</td><td><div>cookie</div></td></tr><tr><td style="font-weight:bold;vertical-align:top;">status</td><td style="vertical-align:top;">:</td><td><div>200</div></td></tr><tr><td style="font-weight:bold;vertical-align:top;">view</td><td style="vertical-align:top;">:</td><td><div>default/index.html</div></td></tr></table></div>'
tRp134
sS'locals'
p135
(dp136
g4
S"r'C:\\Users\\Wesly\\Desktop\\UCSC-Hack-2017\\applications\\ourhours\\views\\default/index.html'"
p137
sg6
S'r"response.write(\'<!DOCTYPE html>\\r\\n<html>\\r\\n  <...></script>\\r\\n    \\r\\n</html>\\r\\n\', escape=False)"'
p138
sssS'traceback'
p139
S'Traceback (most recent call last):\n  File "C:\\Users\\Wesly\\Desktop\\UCSC-Hack-2017\\gluon\\restricted.py", line 226, in restricted\n    ccode = compile2(code, layer)\n  File "C:\\Users\\Wesly\\Desktop\\UCSC-Hack-2017\\gluon\\restricted.py", line 209, in compile2\n    return compile(code.rstrip().replace(\'\\r\\n\', \'\\n\') + \'\\n\', layer, \'exec\')\n  File "C:\\Users\\Wesly\\Desktop\\UCSC-Hack-2017\\applications\\ourhours\\views\\default/index.html", line 54\n    response.write(URL(\'join))\n                             ^\nSyntaxError: EOL while scanning string literal\n'
p140
s.