(dp1
S'output'
p2
S"<type 'exceptions.AttributeError'> 'Rows' object has no attribute 'event_name'"
p3
sS'layer'
p4
S'C:\\Users\\Wesly\\Desktop\\UCSC-Hack-2017\\applications\\ourhours\\views\\default/event_page.html'
p5
sS'code'
p6
S'response.write(\'<!-- \', escape=False)\nresponse.write(\'<!DOCTYPE html>\\r\\n<html>\\r\\n  <head>\\r\\n    <meta charset="utf-8">\\r\\n    <meta http-equiv="X-UA-Compatible" content="IE=edge,chrome=1">\\r\\n    <meta name="viewport" content="width=device-width, initial-scale=1.0" />\\r\\n    <meta name="apple-mobile-web-app-capable" content="yes" />\\r\\n    <link href="\', escape=False)\nresponse.write(URL(\'static\',\'css/calendar.css\'))\nresponse.write(\'" rel="stylesheet" type="text/css"/>\\r\\n    <link href="\', escape=False)\nresponse.write(URL(\'static\',\'css/web2py.css\'))\nresponse.write(\'" rel="stylesheet" type="text/css"/>\\r\\n    <link href="\', escape=False)\nresponse.write(URL(\'static\',\'css/stupid.css\'))\nresponse.write(\'" rel="stylesheet" type="text/css"/>\\r\\n    <link href="\', escape=False)\nresponse.write(URL(\'static\',\'css/examples.css\'))\nresponse.write(\'" rel="stylesheet" type="text/css"/>\\r\\n    <link rel="stylesheet" href="https://maxcdn.bootstrapcdn.com/font-awesome/4.5.0/css/font-awesome.min.css">\\r\\n    <link rel="shortcut icon" href="\', escape=False)\nresponse.write(URL(\'static\',\'images/favicon.ico\'))\nresponse.write(\'" type="image/x-icon">\\r\\n    <link rel="apple-touch-icon" href="\', escape=False)\nresponse.write(URL(\'static\',\'images/favicon.png\'))\nresponse.write(\'">\\r\\n    \', escape=False)\nleft_sidebar_enabled = globals().get(\'left_sidebar_enabled\', False)\nright_sidebar_enabled = globals().get(\'right_sidebar_enabled\', False)\nmiddle_column = {0: \'fill\', 1: \'threequarters\', 2: \'half\'}[\n(left_sidebar_enabled and 1 or 0)+(right_sidebar_enabled and 1 or 0)]\nresponse.write(\'\\r\\n    \', escape=False)\nresponse.write(\'<script type="text/javascript"><!--\\r\\n    // These variables are used by the web2py_ajax_init function in web2py_ajax.js (which is loaded below).\\r\\n    var w2p_ajax_confirm_message = "\', escape=False)\nresponse.write(T(\'Are you sure you want to delete this object?\'))\nresponse.write(\'";\\r\\n    var w2p_ajax_date_format = "\', escape=False)\nresponse.write(T(\'%Y-%m-%d\'))\nresponse.write(\'";\\r\\n    var w2p_ajax_datetime_format = "\', escape=False)\nresponse.write(T(\'%Y-%m-%d %H:%M:%S\'))\nresponse.write(\'";\\r\\n    var ajax_error_500 = \\\'\', escape=False)\nresponse.write(T.M(\'An error occured, please [[reload %s]] the page\') % URL(args=request.args, vars=request.get_vars))\nresponse.write("\'\\r\\n    //--></script>\\r\\n", escape=False)\nresponse.files.insert(0,URL(\'static\',\'js/jquery.js\'))\nresponse.files.insert(1,URL(\'static\',\'css/calendar.css\'))\nresponse.files.insert(2,URL(\'static\',\'js/calendar.js\'))\nresponse.files.insert(3,URL(\'static\',\'js/web2py.js\'))\nresponse.include_meta()\nresponse.include_files()\nresponse.write(\'\\r\\n\', escape=False)\nresponse.write(\'\\r\\n  </head>\\r\\n  <body class="black">   \\r\\n    <header class="black padded">      \\r\\n      <div class="container middle max900">\\r\\n        <div class="fill middle">                    \\r\\n          <label class="ham" for="menu"><i class="fa fa-bars padded"></i></label>\\r\\n          <div class="burger accordion">\\r\\n            <input type="checkbox" id="menu"/>\\r\\n            \', escape=False)\nresponse.write(MENU(response.menu,_class=\'menu\'))\nresponse.write(\'\\r\\n          </div>\\r\\n        </div>\\r\\n      </div>\\r\\n    </header>\\r\\n    \', escape=False)\nif response.flash:\n    response.write(\'\\r\\n    <div class="w2p_flash">\\r\\n      \', escape=False)\n    response.write(response.flash)\n    response.write(\'\\r\\n    </div>\\r\\n    \', escape=False)\n    pass\nresponse.write(\'\\r\\n    <main class="white">\\r\\n      <div class="container max900">\\r\\n        \', escape=False)\nif left_sidebar_enabled:\n    response.write(\'\\r\\n        <div class="quarter padded">\', escape=False)\n    response.write(\'</div>\\r\\n        \', escape=False)\n    pass\nresponse.write(\'\\r\\n        <div class="\', escape=False)\nresponse.write(middle_column)\nresponse.write(\' padded">\', escape=False)\nresponse.write(\' -->\\r\\n<a href = "\', escape=False)\nresponse.write(URL(\'ecreate\'))\nresponse.write(\'"><button>\\r\\n    Create Event\\r\\n    </button>\\r\\n</a>\\r\\n<br>\\r\\n\', escape=False)\nif len(event):\n    response.write(\'\\r\\n\', escape=False)\n    for event in event:\n        response.write(\'\\r\\n    <tr>\\r\\n        <a href>\\r\\n            <td> \', escape=False)\n        response.write(event.event_name)\n        response.write(\'</td>\\r\\n        </a>\\r\\n        <br>\\r\\n    </tr>\\r\\n\', escape=False)\n        pass\n    response.write(\'\\r\\n\', escape=False)\n    pass\nresponse.write(\'\\r\\n\\r\\n<head>\\r\\n    <meta charset="utf-8" />\\r\\n    <meta name="viewport" content="width=device-width, initial-scale=1.0">\\r\\n    <title>Wesly\\\'s Phat Calendar</title>\\r\\n    <link href="https://maxcdn.bootstrapcdn.com/bootstrap/3.3.6/css/bootstrap.min.css" type="text/css" rel="stylesheet" />\\r\\n    <link href="https://cdnjs.cloudflare.com/ajax/libs/fullcalendar/2.6.1/fullcalendar.min.css" type="text/css" rel="stylesheet" />\\r\\n</head>\\r\\n<body>\\r\\n    <div class="container">\\r\\n        <div class="row">\\r\\n            <div class="col-xs-12">\\r\\n                <br />\\r\\n                <div id="bootstrapModalFullCalendar"></div>\\r\\n            </div>\\r\\n        </div>\\r\\n    </div>\\r\\n\\r\\n    <div id="fullCalModal" class="modal fade">\\r\\n        <div class="modal-dialog">\\r\\n            <div class="modal-content">\\r\\n                <div class="modal-header">\\r\\n                    <button type="button" class="close" data-dismiss="modal"><span aria-hidden="true">\\xc3\\x97</span> <span class="sr-only">close</span></button>\\r\\n                    <h4 id="modalTitle" class="modal-title"></h4>\\r\\n                </div>\\r\\n                <div id="modalBody" class="modal-body"></div>\\r\\n                <div class="modal-footer">\\r\\n                    <a class="btn btn-primary" id="eventUrl" target="_blank">Attending</a>\\r\\n                    <button type="button" class="btn btn-default" data-dismiss="modal">Close</button>\\r\\n                    \\r\\n                </div>\\r\\n            </div>\\r\\n        </div>\\r\\n    </div>\\r\\n\\r\\n    <script src="https://code.jquery.com/jquery.js"></script>\\r\\n    <script src="https://cdnjs.cloudflare.com/ajax/libs/moment.js/2.8.2/moment.min.js"></script>\\r\\n    <script src="https://cdnjs.cloudflare.com/ajax/libs/fullcalendar/2.6.1/fullcalendar.min.js"></script>\\r\\n    <script src="https://maxcdn.bootstrapcdn.com/bootstrap/3.3.6/js/bootstrap.min.js"></script>\\r\\n\\r\\n    <script>\\r\\n        $(document).ready(function() {\\r\\n            $(\\\'#bootstrapModalFullCalendar\\\').fullCalendar({\\r\\n                header: {\\r\\n                    left: \\\'today\\\',\\r\\n                    center: \\\'prev title next\\\',\\r\\n                    right: \\\'month agendaWeek agendaDay\\\'\\r\\n                },\\r\\n                eventClick:  function(event, jsEvent, view) {\\r\\n                    $(\\\'#modalTitle\\\').html(event.title);\\r\\n                    $(\\\'#modalBody\\\').html(event.description);\\r\\n                    $(\\\'#eventUrl\\\').attr(\\\'href\\\',event.url);\\r\\n                    $(\\\'#fullCalModal\\\').modal();\\r\\n                    return false;\\r\\n                },\\r\\n                \\r\\n                events:\\r\\n                [\\r\\n                   {\\r\\n                      "title":"#\', escape=False)\nresponse.write(event.event_name)\nresponse.write(\'",\\r\\n                      "allday":"false",\\r\\n                      "description":"<p>This is just a fake description for the Free Pizza.</p><p>Nothing to see!</p>",\\r\\n                      "start":moment().subtract(\\\'days\\\',14),\\r\\n                      "end":moment().subtract(\\\'days\\\',14),\\r\\n                      "url":"http://www.youtube.com/",\\r\\n                       backgroundColor: \\\'#f44842\\\'    \\r\\n                   }\\r\\n                ]\\r\\n                \\r\\n            });\\r\\n        });\\r\\n    </script>\\r\\n</body>\\r\\n\\r\\n\', escape=False)\nresponse.write(\'</div>\\r\\n        \', escape=False)\nif right_sidebar_enabled:\n    response.write(\'\\r\\n        <div class="quarter padded">\', escape=False)\n    response.write(\'</div>\\r\\n        \', escape=False)\n    pass\nresponse.write(\'\\r\\n      </div>\\r\\n      <div class="silver center padded">\\r\\n        <a class="fa fa-twitter" href="https://twitter.com/web2py/"></a>\\r\\n        <a class="fa fa-facebook" href="https://www.facebook.com/web2py/"></a>\\r\\n      </div>\\r\\n    </main>\\r\\n    <footer class="black">\\r\\n      <div class="container padded max900">\\r\\n        <div class="fill">\\r\\n          Copyright @ 2016 - Powered by Web2py\\r\\n        </div>\\r\\n      </div>\\r\\n    </footer>\\r\\n  </body>  \\r\\n  <script>\\r\\n    // prevent android horizontal scrolling\\r\\n    window.addEventListener("scroll", function(){window.scroll(0, window.pageYOffset);}, false);\\r\\n  </script>\\r\\n\\r\\n\\r\\n\\r\\n    <script src="https://www.gstatic.com/firebasejs/3.6.6/firebase.js"></script>\\r\\n    <script>\\r\\n      // Initialize Firebase\\r\\n      var config = {\\r\\n        apiKey: "AIzaSyBcdz_Vm6rWJiYnEh9INZTZC9wCKWpvWN8",\\r\\n        authDomain: "ourhours-524b4.firebaseapp.com",\\r\\n        databaseURL: "https://ourhours-524b4.firebaseio.com",\\r\\n        storageBucket: "ourhours-524b4.appspot.com",\\r\\n        messagingSenderId: "228068546769"\\r\\n      };\\r\\n      firebase.initializeApp(config);\\r\\n    </script>\\r\\n\\r\\n    <!-- jQuery -->\\r\\n    <script src="https://cdnjs.cloudflare.com/ajax/libs/jquery/3.1.0/jquery.min.js"></script>\\r\\n\\r\\n    <!-- Firechat -->\\r\\n    <link rel="stylesheet" href="https://cdn.firebase.com/libs/firechat/3.0.1/firechat.min.css" />\\r\\n    <script src="https://cdn.firebase.com/libs/firechat/3.0.1/firechat.min.js"></script>\\r\\n\\r\\n    <script src = "/ourhours/static/js/main.js"></script>\\r\\n    \\r\\n</html>\\r\\n\', escape=False)'
p7
sS'snapshot'
p8
(dp9
S'exception'
p10
(dp11
S'__hash__'
p12
S"<method-wrapper '__hash__' of exceptions.AttributeError object>"
p13
sS'__setattr__'
p14
S"<method-wrapper '__setattr__' of exceptions.AttributeError object>"
p15
sS'__reduce_ex__'
p16
S'<built-in method __reduce_ex__ of exceptions.AttributeError object>'
p17
sS'__getslice__'
p18
S"<method-wrapper '__getslice__' of exceptions.AttributeError object>"
p19
sS'__getitem__'
p20
S"<method-wrapper '__getitem__' of exceptions.AttributeError object>"
p21
sS'__setstate__'
p22
S'<built-in method __setstate__ of exceptions.AttributeError object>'
p23
sS'__reduce__'
p24
S'<built-in method __reduce__ of exceptions.AttributeError object>'
p25
sS'__str__'
p26
S"<method-wrapper '__str__' of exceptions.AttributeError object>"
p27
sS'__format__'
p28
S'<built-in method __format__ of exceptions.AttributeError object>'
p29
sS'__getattribute__'
p30
S"<method-wrapper '__getattribute__' of exceptions.AttributeError object>"
p31
sS'__class__'
p32
S"<type 'exceptions.AttributeError'>"
p33
sS'__unicode__'
p34
S'<built-in method __unicode__ of exceptions.AttributeError object>'
p35
sS'__delattr__'
p36
S"<method-wrapper '__delattr__' of exceptions.AttributeError object>"
p37
sS'__subclasshook__'
p38
S'<built-in method __subclasshook__ of type object>'
p39
sS'__repr__'
p40
S"<method-wrapper '__repr__' of exceptions.AttributeError object>"
p41
sS'args'
p42
S'("\'Rows\' object has no attribute \'event_name\'",)'
p43
sS'__dict__'
p44
S'{}'
p45
sS'__sizeof__'
p46
S'<built-in method __sizeof__ of exceptions.AttributeError object>'
p47
sS'__doc__'
p48
S"'Attribute not found.'"
p49
sS'__init__'
p50
S"<method-wrapper '__init__' of exceptions.AttributeError object>"
p51
sS'__new__'
p52
S'<built-in method __new__ of type object>'
p53
ssS'evalue'
p54
S"'Rows' object has no attribute 'event_name'"
p55
sS'request'
p56
cgluon.html
XML_unpickle
p57
(S's~\x8f\x00\x00<div><table><tr><td style="font-weight:bold;vertical-align:top;">ajax</td><td style="vertical-align:top;">:</td><td><div>False</div></td></tr><tr><td style="font-weight:bold;vertical-align:top;">application</td><td style="vertical-align:top;">:</td><td><div>ourhours</div></td></tr><tr><td style="font-weight:bold;vertical-align:top;">args</td><td style="vertical-align:top;">:</td><td><div><table><tr><td><div>15</div></td></tr></table></div></td></tr><tr><td style="font-weight:bold;vertical-align:top;">cid</td><td style="vertical-align:top;">:</td><td><div>None</div></td></tr><tr><td style="font-weight:bold;vertical-align:top;">client</td><td style="vertical-align:top;">:</td><td><div>127.0.0.1</div></td></tr><tr><td style="font-weight:bold;vertical-align:top;">controller</td><td style="vertical-align:top;">:</td><td><div>default</div></td></tr><tr><td style="font-weight:bold;vertical-align:top;">cookies</td><td style="vertical-align:top;">:</td><td><div><table><tr><td style="font-weight:bold;vertical-align:top;">resolution</td><td style="vertical-align:top;">:</td><td><div>1349<table><tr><td style="font-weight:bold;vertical-align:top;">comment</td><td style="vertical-align:top;">:</td><td><div></div></td></tr><tr><td style="font-weight:bold;vertical-align:top;">domain</td><td style="vertical-align:top;">:</td><td><div></div></td></tr><tr><td style="font-weight:bold;vertical-align:top;">expires</td><td style="vertical-align:top;">:</td><td><div></div></td></tr><tr><td style="font-weight:bold;vertical-align:top;">httponly</td><td style="vertical-align:top;">:</td><td><div></div></td></tr><tr><td style="font-weight:bold;vertical-align:top;">max-age</td><td style="vertical-align:top;">:</td><td><div></div></td></tr><tr><td style="font-weight:bold;vertical-align:top;">path</td><td style="vertical-align:top;">:</td><td><div></div></td></tr><tr><td style="font-weight:bold;vertical-align:top;">secure</td><td style="vertical-align:top;">:</td><td><div></div></td></tr><tr><td style="font-weight:bold;vertical-align:top;">version</td><td style="vertical-align:top;">:</td><td><div></div></td></tr></table></div></td></tr><tr><td style="font-weight:bold;vertical-align:top;">session_data_ourhours</td><td style="vertical-align:top;">:</td><td><div>afb1c1cbf6a26379ca5aa5b24aea1f4b:6KWLinPRbsOUbNFbVWuTtP6apSuBq_0YxSmKPBXr18UrLTLiA1T17VNRYJ_G_LwS57o5GmLUug3_rFepC-0248EIGaTZMSIKEJ-GGETL_9kgIFDKmJxGf21x3Ip9BxokGkArGy1MD1Bg5qXUC4bKjl63HJ7tTgNZAuv4fKNhH3sXzgVjh3X4H5HfdbQwSWlmO7sIHMIhY4-nXprOzgzj1OLNtdiH7WLPThqJxuaczxYgLQP4ZvaQGdUxCe_q9wn8AjsWn9wwfCSjgGW2vgUyfSguarEK2VssSORDpBdMe6bWt55dlghE0YY2kYojOrC1jLBES4C238GP71-rAditPexGVvhOBvand2UNEobIs8_4zz53x5QJWF8sjEXNFaG89cYIMLCEKkueSvhj5M1KS2JBvyNqLrY27S5FJTJDkMyJBq87UurNH_0PtkZmvv1pQe3pXgS5dKLAgjHjDwutcdJTwYWAhZCfFAhEmyP99M071tBHTKNjVn0TUQOwG7-VmaQsLD24leHqBHsQcN_rCrwKeTCwqYrzuE0vwdYHfDmIAndppk5zvWNqMQHHcX2-xjK4KdDoA4TuplgVQgUoJbQBK1XP0Bb8NokCctNm5PQATJg9KEVPyjFarzMZgHfTIkVGUFIF2anZBMtgu97VhwJ7S9sXuL8xFeAWfD5SqBeusvmBXgTrEeHYBxkOh00_YH9AFAJoredTbu1kfVVQzI8lL_VfZbvupybwVMtCRmVBmaYf1i-Wk9hgO0iGsiyZ9YIW4_GfHGbSgN0W2Ek3peVmKJQxiF3HJtdL9oaeVlrSepEy9zjI7yxOa001LfgRxpelHsbUspFy7lJFcFe4WX1AIh6ovtkWLdpBwKGuRE88GYBVztY6Tl4fGVXC7NO4jzWujA1ULiEbU43_4Awi7minC3FxuDO18O1vzkgzSmVCvIzYPcfgYKG7fWx71sx58dEvLJ2ph0WHosQBBw5VKQKA3IHoQjWtg5LULRphrP6ZwIk8tz1CFRnWXl6jwAvgoS_d_ToOqSP2Y6qruQcr3KXqziCHIa5aNvp5Cxa-6k8ITISNw01H-VTqy_NJXWAQ5aeXadK8ziU2DdXyUMtxZLizdEJevUNCdH-7yRur2X1laEplj9LORu-mwfqUnunVMHZGFWJVgirCc99tdFeIgjdlJaUsBXZIkxSxoVPcUWKVRdMmwsi74J5FN-HP7qZuqeh1s_zgEjYK3D3DxvG5vGqTo4c20ZhqQWyKEFdFUamnSp-kL1D8Sif_Yrf-BF3hBpXLD1FuPwK30wbptgHi6eXGK2xWHxsJlbD0cdS1wmH_V5O_cmWnWkTlJf3Ziwqd-8tCkHRdc9funw-U42luDMsUzvd8jD4XwNrS9vGo3lVe9-ek_LpOsUgMs4sVHqICGkuQh7S9e5eb-0xoqgSBUxA60g1JJ29HgA5zPP73nxUEhV9DstX09x9UweLP6qXTKLOLGyS1wPbWvDHgTV44tixFQK5-Tc1-3cw5v27hOPpSfOOJN3sw_rAAfxLpTj3KtHqPUnbkmUBKAZVFgORz62VkHOOYVw410tLxeaY-18TuPA8XyKZ1RzdOX8kw5Og2Fv_XKzadKjjqpJQjaz8C10ULilg0OcmuOGTAMa-wqRymaMVOlkDOPmXdJNHxBIF5y97hlA5gJCW37cq4QR4xyzVj_pYm2zx0MXxxNkAGgba1nwGPhlidJmmWXlsCmq44RFeYlO10PA_uw_4z_aFiKjhpaUmUOZoWWNLHgReqa2fAFlseaw9I0Mp-KgoHXMa3ltj4ycddRZUPogdC3Shxcr4cATRhp5NHFV7nxZrtSYju2ExqlYYfUUlmzX6cuLqnG4lF6QjmkmA6DqdSNlIyK_ax_cFNutOeUa_3fi26f7MQEUok6toqy7W6zJYw8mEHWNlsBghvwPjNG7LnA91-Ewp39XS3SallHZLtSD1kngRE98l0PSMwu7rya3evmaJd<table><tr><td style="font-weight:bold;vertical-align:top;">comment</td><td style="vertical-align:top;">:</td><td><div></div></td></tr><tr><td style="font-weight:bold;vertical-align:top;">domain</td><td style="vertical-align:top;">:</td><td><div></div></td></tr><tr><td style="font-weight:bold;vertical-align:top;">expires</td><td style="vertical-align:top;">:</td><td><div></div></td></tr><tr><td style="font-weight:bold;vertical-align:top;">httponly</td><td style="vertical-align:top;">:</td><td><div></div></td></tr><tr><td style="font-weight:bold;vertical-align:top;">max-age</td><td style="vertical-align:top;">:</td><td><div></div></td></tr><tr><td style="font-weight:bold;vertical-align:top;">path</td><td style="vertical-align:top;">:</td><td><div></div></td></tr><tr><td style="font-weight:bold;vertical-align:top;">secure</td><td style="vertical-align:top;">:</td><td><div></div></td></tr><tr><td style="font-weight:bold;vertical-align:top;">version</td><td style="vertical-align:top;">:</td><td><div></div></td></tr></table></div></td></tr><tr><td style="font-weight:bold;vertical-align:top;">session_id_admin</td><td style="vertical-align:top;">:</td><td><div>127.0.0.1-5e4d5587-8e46-4ab9-bda4-cde90ee24cff<table><tr><td style="font-weight:bold;vertical-align:top;">comment</td><td style="vertical-align:top;">:</td><td><div></div></td></tr><tr><td style="font-weight:bold;vertical-align:top;">domain</td><td style="vertical-align:top;">:</td><td><div></div></td></tr><tr><td style="font-weight:bold;vertical-align:top;">expires</td><td style="vertical-align:top;">:</td><td><div></div></td></tr><tr><td style="font-weight:bold;vertical-align:top;">httponly</td><td style="vertical-align:top;">:</td><td><div></div></td></tr><tr><td style="font-weight:bold;vertical-align:top;">max-age</td><td style="vertical-align:top;">:</td><td><div></div></td></tr><tr><td style="font-weight:bold;vertical-align:top;">path</td><td style="vertical-align:top;">:</td><td><div></div></td></tr><tr><td style="font-weight:bold;vertical-align:top;">secure</td><td style="vertical-align:top;">:</td><td><div></div></td></tr><tr><td style="font-weight:bold;vertical-align:top;">version</td><td style="vertical-align:top;">:</td><td><div></div></td></tr></table></div></td></tr><tr><td style="font-weight:bold;vertical-align:top;">session_id_hackathon</td><td style="vertical-align:top;">:</td><td><div>127.0.0.1-e9d19e57-2c82-4246-95e2-3afb87897355<table><tr><td style="font-weight:bold;vertical-align:top;">comment</td><td style="vertical-align:top;">:</td><td><div></div></td></tr><tr><td style="font-weight:bold;vertical-align:top;">domain</td><td style="vertical-align:top;">:</td><td><div></div></td></tr><tr><td style="font-weight:bold;vertical-align:top;">expires</td><td style="vertical-align:top;">:</td><td><div></div></td></tr><tr><td style="font-weight:bold;vertical-align:top;">httponly</td><td style="vertical-align:top;">:</td><td><div></div></td></tr><tr><td style="font-weight:bold;vertical-align:top;">max-age</td><td style="vertical-align:top;">:</td><td><div></div></td></tr><tr><td style="font-weight:bold;vertical-align:top;">path</td><td style="vertical-align:top;">:</td><td><div></div></td></tr><tr><td style="font-weight:bold;vertical-align:top;">secure</td><td style="vertical-align:top;">:</td><td><div></div></td></tr><tr><td style="font-weight:bold;vertical-align:top;">version</td><td style="vertical-align:top;">:</td><td><div></div></td></tr></table></div></td></tr><tr><td style="font-weight:bold;vertical-align:top;">session_id_hw</td><td style="vertical-align:top;">:</td><td><div>127.0.0.1-23223d0c-fdad-4421-b0fa-bfb22452a98b<table><tr><td style="font-weight:bold;vertical-align:top;">comment</td><td style="vertical-align:top;">:</td><td><div></div></td></tr><tr><td style="font-weight:bold;vertical-align:top;">domain</td><td style="vertical-align:top;">:</td><td><div></div></td></tr><tr><td style="font-weight:bold;vertical-align:top;">expires</td><td style="vertical-align:top;">:</td><td><div></div></td></tr><tr><td style="font-weight:bold;vertical-align:top;">httponly</td><td style="vertical-align:top;">:</td><td><div></div></td></tr><tr><td style="font-weight:bold;vertical-align:top;">max-age</td><td style="vertical-align:top;">:</td><td><div></div></td></tr><tr><td style="font-weight:bold;vertical-align:top;">path</td><td style="vertical-align:top;">:</td><td><div></div></td></tr><tr><td style="font-weight:bold;vertical-align:top;">secure</td><td style="vertical-align:top;">:</td><td><div></div></td></tr><tr><td style="font-weight:bold;vertical-align:top;">version</td><td style="vertical-align:top;">:</td><td><div></div></td></tr></table></div></td></tr><tr><td style="font-weight:bold;vertical-align:top;">session_id_layouttest</td><td style="vertical-align:top;">:</td><td><div>127.0.0.1-9dd550cb-7d25-4599-add6-bbf406414416<table><tr><td style="font-weight:bold;vertical-align:top;">comment</td><td style="vertical-align:top;">:</td><td><div></div></td></tr><tr><td style="font-weight:bold;vertical-align:top;">domain</td><td style="vertical-align:top;">:</td><td><div></div></td></tr><tr><td style="font-weight:bold;vertical-align:top;">expires</td><td style="vertical-align:top;">:</td><td><div></div></td></tr><tr><td style="font-weight:bold;vertical-align:top;">httponly</td><td style="vertical-align:top;">:</td><td><div></div></td></tr><tr><td style="font-weight:bold;vertical-align:top;">max-age</td><td style="vertical-align:top;">:</td><td><div></div></td></tr><tr><td style="font-weight:bold;vertical-align:top;">path</td><td style="vertical-align:top;">:</td><td><div></div></td></tr><tr><td style="font-weight:bold;vertical-align:top;">secure</td><td style="vertical-align:top;">:</td><td><div></div></td></tr><tr><td style="font-weight:bold;vertical-align:top;">version</td><td style="vertical-align:top;">:</td><td><div></div></td></tr></table></div></td></tr><tr><td style="font-weight:bold;vertical-align:top;">session_id_ourhours</td><td style="vertical-align:top;">:</td><td><div>True<table><tr><td style="font-weight:bold;vertical-align:top;">comment</td><td style="vertical-align:top;">:</td><td><div></div></td></tr><tr><td style="font-weight:bold;vertical-align:top;">domain</td><td style="vertical-align:top;">:</td><td><div></div></td></tr><tr><td style="font-weight:bold;vertical-align:top;">expires</td><td style="vertical-align:top;">:</td><td><div></div></td></tr><tr><td style="font-weight:bold;vertical-align:top;">httponly</td><td style="vertical-align:top;">:</td><td><div></div></td></tr><tr><td style="font-weight:bold;vertical-align:top;">max-age</td><td style="vertical-align:top;">:</td><td><div></div></td></tr><tr><td style="font-weight:bold;vertical-align:top;">path</td><td style="vertical-align:top;">:</td><td><div></div></td></tr><tr><td style="font-weight:bold;vertical-align:top;">secure</td><td style="vertical-align:top;">:</td><td><div></div></td></tr><tr><td style="font-weight:bold;vertical-align:top;">version</td><td style="vertical-align:top;">:</td><td><div></div></td></tr></table></div></td></tr><tr><td style="font-weight:bold;vertical-align:top;">session_id_welcome</td><td style="vertical-align:top;">:</td><td><div>127.0.0.1-27aab160-fe24-4282-a33a-46f674a52c7a<table><tr><td style="font-weight:bold;vertical-align:top;">comment</td><td style="vertical-align:top;">:</td><td><div></div></td></tr><tr><td style="font-weight:bold;vertical-align:top;">domain</td><td style="vertical-align:top;">:</td><td><div></div></td></tr><tr><td style="font-weight:bold;vertical-align:top;">expires</td><td style="vertical-align:top;">:</td><td><div></div></td></tr><tr><td style="font-weight:bold;vertical-align:top;">httponly</td><td style="vertical-align:top;">:</td><td><div></div></td></tr><tr><td style="font-weight:bold;vertical-align:top;">max-age</td><td style="vertical-align:top;">:</td><td><div></div></td></tr><tr><td style="font-weight:bold;vertical-align:top;">path</td><td style="vertical-align:top;">:</td><td><div></div></td></tr><tr><td style="font-weight:bold;vertical-align:top;">secure</td><td style="vertical-align:top;">:</td><td><div></div></td></tr><tr><td style="font-weight:bold;vertical-align:top;">version</td><td style="vertical-align:top;">:</td><td><div></div></td></tr></table></div></td></tr></table></div></td></tr><tr><td style="font-weight:bold;vertical-align:top;">env</td><td style="vertical-align:top;">:</td><td><div><table><tr><td style="font-weight:bold;vertical-align:top;">HTTP_ACCEPT</td><td style="vertical-align:top;">:</td><td><div>text/html,application/xhtml+xml,application/xml;q=0.9,image/webp,*/*;q=0.8</div></td></tr><tr><td style="font-weight:bold;vertical-align:top;">HTTP_ACCEPT_ENCODING</td><td style="vertical-align:top;">:</td><td><div>gzip, deflate, sdch, br</div></td></tr><tr><td style="font-weight:bold;vertical-align:top;">HTTP_ACCEPT_LANGUAGE</td><td style="vertical-align:top;">:</td><td><div>en-US,en;q=0.8</div></td></tr><tr><td style="font-weight:bold;vertical-align:top;">HTTP_CONNECTION</td><td style="vertical-align:top;">:</td><td><div>keep-alive</div></td></tr><tr><td style="font-weight:bold;vertical-align:top;">HTTP_COOKIE</td><td style="vertical-align:top;">:</td><td><div>session_id_layouttest=127.0.0.1-9dd550cb-7d25-4599-add6-bbf406414416; resolution=1349; session_id_hackathon=127.0.0.1-e9d19e57-2c82-4246-95e2-3afb87897355; session_id_hw=127.0.0.1-23223d0c-fdad-4421-b0fa-bfb22452a98b; session_id_welcome=127.0.0.1-27aab160-fe24-4282-a33a-46f674a52c7a; session_id_admin=127.0.0.1-5e4d5587-8e46-4ab9-bda4-cde90ee24cff; session_data_ourhours=&quot;afb1c1cbf6a26379ca5aa5b24aea1f4b:6KWLinPRbsOUbNFbVWuTtP6apSuBq_0YxSmKPBXr18UrLTLiA1T17VNRYJ_G_LwS57o5GmLUug3_rFepC-0248EIGaTZMSIKEJ-GGETL_9kgIFDKmJxGf21x3Ip9BxokGkArGy1MD1Bg5qXUC4bKjl63HJ7tTgNZAuv4fKNhH3sXzgVjh3X4H5HfdbQwSWlmO7sIHMIhY4-nXprOzgzj1OLNtdiH7WLPThqJxuaczxYgLQP4ZvaQGdUxCe_q9wn8AjsWn9wwfCSjgGW2vgUyfSguarEK2VssSORDpBdMe6bWt55dlghE0YY2kYojOrC1jLBES4C238GP71-rAditPexGVvhOBvand2UNEobIs8_4zz53x5QJWF8sjEXNFaG89cYIMLCEKkueSvhj5M1KS2JBvyNqLrY27S5FJTJDkMyJBq87UurNH_0PtkZmvv1pQe3pXgS5dKLAgjHjDwutcdJTwYWAhZCfFAhEmyP99M071tBHTKNjVn0TUQOwG7-VmaQsLD24leHqBHsQcN_rCrwKeTCwqYrzuE0vwdYHfDmIAndppk5zvWNqMQHHcX2-xjK4KdDoA4TuplgVQgUoJbQBK1XP0Bb8NokCctNm5PQATJg9KEVPyjFarzMZgHfTIkVGUFIF2anZBMtgu97VhwJ7S9sXuL8xFeAWfD5SqBeusvmBXgTrEeHYBxkOh00_YH9AFAJoredTbu1kfVVQzI8lL_VfZbvupybwVMtCRmVBmaYf1i-Wk9hgO0iGsiyZ9YIW4_GfHGbSgN0W2Ek3peVmKJQxiF3HJtdL9oaeVlrSepEy9zjI7yxOa001LfgRxpelHsbUspFy7lJFcFe4WX1AIh6ovtkWLdpBwKGuRE88GYBVztY6Tl4fGVXC7NO4jzWujA1ULiEbU43_4Awi7minC3FxuDO18O1vzkgzSmVCvIzYPcfgYKG7fWx71sx58dEvLJ2ph0WHosQBBw5VKQKA3IHoQjWtg5LULRphrP6ZwIk8tz1CFRnWXl6jwAvgoS_d_ToOqSP2Y6qruQcr3KXqziCHIa5aNvp5Cxa-6k8ITISNw01H-VTqy_NJXWAQ5aeXadK8ziU2DdXyUMtxZLizdEJevUNCdH-7yRur2X1laEplj9LORu-mwfqUnunVMHZGFWJVgirCc99tdFeIgjdlJaUsBXZIkxSxoVPcUWKVRdMmwsi74J5FN-HP7qZuqeh1s_zgEjYK3D3DxvG5vGqTo4c20ZhqQWyKEFdFUamnSp-kL1D8Sif_Yrf-BF3hBpXLD1FuPwK30wbptgHi6eXGK2xWHxsJlbD0cdS1wmH_V5O_cmWnWkTlJf3Ziwqd-8tCkHRdc9funw-U42luDMsUzvd8jD4XwNrS9vGo3lVe9-ek_LpOsUgMs4sVHqICGkuQh7S9e5eb-0xoqgSBUxA60g1JJ29HgA5zPP73nxUEhV9DstX09x9UweLP6qXTKLOLGyS1wPbWvDHgTV44tixFQK5-Tc1-3cw5v27hOPpSfOOJN3sw_rAAfxLpTj3KtHqPUnbkmUBKAZVFgORz62VkHOOYVw410tLxeaY-18TuPA8XyKZ1RzdOX8kw5Og2Fv_XKzadKjjqpJQjaz8C10ULilg0OcmuOGTAMa-wqRymaMVOlkDOPmXdJNHxBIF5y97hlA5gJCW37cq4QR4xyzVj_pYm2zx0MXxxNkAGgba1nwGPhlidJmmWXlsCmq44RFeYlO10PA_uw_4z_aFiKjhpaUmUOZoWWNLHgReqa2fAFlseaw9I0Mp-KgoHXMa3ltj4ycddRZUPogdC3Shxcr4cATRhp5NHFV7nxZrtSYju2ExqlYYfUUlmzX6cuLqnG4lF6QjmkmA6DqdSNlIyK_ax_cFNutOeUa_3fi26f7MQEUok6toqy7W6zJYw8mEHWNlsBghvwPjNG7LnA91-Ewp39XS3SallHZLtSD1kngRE98l0PSMwu7rya3evmaJd&quot;; session_id_ourhours=True</div></td></tr><tr><td style="font-weight:bold;vertical-align:top;">HTTP_HOST</td><td style="vertical-align:top;">:</td><td><div>127.0.0.1:8000</div></td></tr><tr><td style="font-weight:bold;vertical-align:top;">HTTP_REFERER</td><td style="vertical-align:top;">:</td><td><div>http://127.0.0.1:8000/ourhours/default/index</div></td></tr><tr><td style="font-weight:bold;vertical-align:top;">HTTP_UPGRADE_INSECURE_REQUESTS</td><td style="vertical-align:top;">:</td><td><div>1</div></td></tr><tr><td style="font-weight:bold;vertical-align:top;">HTTP_USER_AGENT</td><td style="vertical-align:top;">:</td><td><div>Mozilla/5.0 (Windows NT 10.0; Win64; x64) AppleWebKit/537.36 (KHTML, like Gecko) Chrome/55.0.2883.87 Safari/537.36</div></td></tr><tr><td style="font-weight:bold;vertical-align:top;">PATH_INFO</td><td style="vertical-align:top;">:</td><td><div>/ourhours/default/event_page/15</div></td></tr><tr><td style="font-weight:bold;vertical-align:top;">QUERY_STRING</td><td style="vertical-align:top;">:</td><td><div></div></td></tr><tr><td style="font-weight:bold;vertical-align:top;">REMOTE_ADDR</td><td style="vertical-align:top;">:</td><td><div>127.0.0.1</div></td></tr><tr><td style="font-weight:bold;vertical-align:top;">REMOTE_PORT</td><td style="vertical-align:top;">:</td><td><div>57899</div></td></tr><tr><td style="font-weight:bold;vertical-align:top;">REQUEST_METHOD</td><td style="vertical-align:top;">:</td><td><div>GET</div></td></tr><tr><td style="font-weight:bold;vertical-align:top;">SCRIPT_NAME</td><td style="vertical-align:top;">:</td><td><div></div></td></tr><tr><td style="font-weight:bold;vertical-align:top;">SERVER_NAME</td><td style="vertical-align:top;">:</td><td><div>DESKTOP-GDD7DCK</div></td></tr><tr><td style="font-weight:bold;vertical-align:top;">SERVER_PORT</td><td style="vertical-align:top;">:</td><td><div>8000</div></td></tr><tr><td style="font-weight:bold;vertical-align:top;">SERVER_PROTOCOL</td><td style="vertical-align:top;">:</td><td><div>HTTP/1.1</div></td></tr><tr><td style="font-weight:bold;vertical-align:top;">SERVER_SOFTWARE</td><td style="vertical-align:top;">:</td><td><div>Rocket 1.2.6</div></td></tr><tr><td style="font-weight:bold;vertical-align:top;">app_folders</td><td style="vertical-align:top;">:</td><td><div>set([&#x27;C:\\\\Users\\\\Wesly\\\\Desktop\\\\UCSC-Hack-2017\\\\applications\\\\welcome\\\\&#x27;, &#x27;C:\\\\Users\\\\Wesly\\\\Desktop\\\\UCSC-Hack-2017\\\\applications\\\\examples\\\\&#x27;, &#x27;C:\\\\Users\\\\Wesly\\\\Desktop\\\\UCSC-Hack-2017\\\\applications\\\\ourhours\\\\&#x27;, &#x27;C:\\\\Users\\\\Wesly\\\\Desktop\\\\UCSC-Hack-2017\\\\applications\\\\admin\\\\&#x27;])</div></td></tr><tr><td style="font-weight:bold;vertical-align:top;">applications_parent</td><td style="vertical-align:top;">:</td><td><div>C:\\Users\\Wesly\\Desktop\\UCSC-Hack-2017</div></td></tr><tr><td style="font-weight:bold;vertical-align:top;">cmd_args</td><td style="vertical-align:top;">:</td><td><div><table></table></div></td></tr><tr><td style="font-weight:bold;vertical-align:top;">cmd_options</td><td style="vertical-align:top;">:</td><td><div>&lt;Values at 0x2ddaeb8: {&#x27;verbose&#x27;: False, &#x27;ip&#x27;: &#x27;127.0.0.1&#x27;, &#x27;debuglevel&#x27;: 30, &#x27;with_scheduler&#x27;: False, &#x27;shutdown_timeout&#x27;: 5, &#x27;taskbar&#x27;: False, &#x27;with_coverage&#x27;: False, &#x27;pid_filename&#x27;: &#x27;httpserver.pid&#x27;, &#x27;maxthreads&#x27;: None, &#x27;softcron&#x27;: False, &#x27;server_name&#x27;: &#x27;DESKTOP-GDD7DCK&#x27;, &#x27;bpython&#x27;: False, &#x27;nogui&#x27;: False, &#x27;port&#x27;: 8000, &#x27;print_errors&#x27;: False, &#x27;extcron&#x27;: False, &#x27;runcron&#x27;: False, &#x27;run_system_tests&#x27;: False, &#x27;test&#x27;: None, &#x27;folder&#x27;: &#x27;C:\\\\Users\\\\Wesly\\\\Desktop\\\\UCSC-Hack-2017&#x27;, &#x27;config&#x27;: &#x27;&#x27;, &#x27;minthreads&#x27;: None, &#x27;shell&#x27;: None, &#x27;run&#x27;: &#x27;&#x27;, &#x27;log_filename&#x27;: &#x27;httpserver.log&#x27;, &#x27;profiler_dir&#x27;: None, &#x27;args&#x27;: [&#x27;&#x27;], &#x27;socket_timeout&#x27;: 5, &#x27;ssl_ca_certificate&#x27;: None, &#x27;scheduler&#x27;: None, &#x27;interfaces&#x27;: None, &#x27;ssl_private_key&#x27;: &#x27;&#x27;, &#x27;gae&#x27;: None, &#x27;password&#x27;: &#x27;******&#x27;, &#x27;request_queue_size&#x27;: 5, &#x27;ssl_certificate&#x27;: &#x27;&#x27;, &#x27;cronjob&#x27;: False, &#x27;numthreads&#x27;: None, &#x27;quiet&#x27;: False, &#x27;import_models&#x27;: False, &#x27;timeout&#x27;: 10, &#x27;plain&#x27;: False, &#x27;nobanner&#x27;: False}&gt;</div></td></tr><tr><td style="font-weight:bold;vertical-align:top;">db_sessions</td><td style="vertical-align:top;">:</td><td><div>set([])</div></td></tr><tr><td style="font-weight:bold;vertical-align:top;">debugging</td><td style="vertical-align:top;">:</td><td><div>True</div></td></tr><tr><td style="font-weight:bold;vertical-align:top;">gluon_parent</td><td style="vertical-align:top;">:</td><td><div>C:\\Users\\Wesly\\Desktop\\UCSC-Hack-2017</div></td></tr><tr><td style="font-weight:bold;vertical-align:top;">http_accept</td><td style="vertical-align:top;">:</td><td><div>text/html,application/xhtml+xml,application/xml;q=0.9,image/webp,*/*;q=0.8</div></td></tr><tr><td style="font-weight:bold;vertical-align:top;">http_accept_encoding</td><td style="vertical-align:top;">:</td><td><div>gzip, deflate, sdch, br</div></td></tr><tr><td style="font-weight:bold;vertical-align:top;">http_accept_language</td><td style="vertical-align:top;">:</td><td><div>en-US,en;q=0.8</div></td></tr><tr><td style="font-weight:bold;vertical-align:top;">http_connection</td><td style="vertical-align:top;">:</td><td><div>keep-alive</div></td></tr><tr><td style="font-weight:bold;vertical-align:top;">http_cookie</td><td style="vertical-align:top;">:</td><td><div>session_id_layouttest=127.0.0.1-9dd550cb-7d25-4599-add6-bbf406414416; resolution=1349; session_id_hackathon=127.0.0.1-e9d19e57-2c82-4246-95e2-3afb87897355; session_id_hw=127.0.0.1-23223d0c-fdad-4421-b0fa-bfb22452a98b; session_id_welcome=127.0.0.1-27aab160-fe24-4282-a33a-46f674a52c7a; session_id_admin=127.0.0.1-5e4d5587-8e46-4ab9-bda4-cde90ee24cff; session_data_ourhours=&quot;afb1c1cbf6a26379ca5aa5b24aea1f4b:6KWLinPRbsOUbNFbVWuTtP6apSuBq_0YxSmKPBXr18UrLTLiA1T17VNRYJ_G_LwS57o5GmLUug3_rFepC-0248EIGaTZMSIKEJ-GGETL_9kgIFDKmJxGf21x3Ip9BxokGkArGy1MD1Bg5qXUC4bKjl63HJ7tTgNZAuv4fKNhH3sXzgVjh3X4H5HfdbQwSWlmO7sIHMIhY4-nXprOzgzj1OLNtdiH7WLPThqJxuaczxYgLQP4ZvaQGdUxCe_q9wn8AjsWn9wwfCSjgGW2vgUyfSguarEK2VssSORDpBdMe6bWt55dlghE0YY2kYojOrC1jLBES4C238GP71-rAditPexGVvhOBvand2UNEobIs8_4zz53x5QJWF8sjEXNFaG89cYIMLCEKkueSvhj5M1KS2JBvyNqLrY27S5FJTJDkMyJBq87UurNH_0PtkZmvv1pQe3pXgS5dKLAgjHjDwutcdJTwYWAhZCfFAhEmyP99M071tBHTKNjVn0TUQOwG7-VmaQsLD24leHqBHsQcN_rCrwKeTCwqYrzuE0vwdYHfDmIAndppk5zvWNqMQHHcX2-xjK4KdDoA4TuplgVQgUoJbQBK1XP0Bb8NokCctNm5PQATJg9KEVPyjFarzMZgHfTIkVGUFIF2anZBMtgu97VhwJ7S9sXuL8xFeAWfD5SqBeusvmBXgTrEeHYBxkOh00_YH9AFAJoredTbu1kfVVQzI8lL_VfZbvupybwVMtCRmVBmaYf1i-Wk9hgO0iGsiyZ9YIW4_GfHGbSgN0W2Ek3peVmKJQxiF3HJtdL9oaeVlrSepEy9zjI7yxOa001LfgRxpelHsbUspFy7lJFcFe4WX1AIh6ovtkWLdpBwKGuRE88GYBVztY6Tl4fGVXC7NO4jzWujA1ULiEbU43_4Awi7minC3FxuDO18O1vzkgzSmVCvIzYPcfgYKG7fWx71sx58dEvLJ2ph0WHosQBBw5VKQKA3IHoQjWtg5LULRphrP6ZwIk8tz1CFRnWXl6jwAvgoS_d_ToOqSP2Y6qruQcr3KXqziCHIa5aNvp5Cxa-6k8ITISNw01H-VTqy_NJXWAQ5aeXadK8ziU2DdXyUMtxZLizdEJevUNCdH-7yRur2X1laEplj9LORu-mwfqUnunVMHZGFWJVgirCc99tdFeIgjdlJaUsBXZIkxSxoVPcUWKVRdMmwsi74J5FN-HP7qZuqeh1s_zgEjYK3D3DxvG5vGqTo4c20ZhqQWyKEFdFUamnSp-kL1D8Sif_Yrf-BF3hBpXLD1FuPwK30wbptgHi6eXGK2xWHxsJlbD0cdS1wmH_V5O_cmWnWkTlJf3Ziwqd-8tCkHRdc9funw-U42luDMsUzvd8jD4XwNrS9vGo3lVe9-ek_LpOsUgMs4sVHqICGkuQh7S9e5eb-0xoqgSBUxA60g1JJ29HgA5zPP73nxUEhV9DstX09x9UweLP6qXTKLOLGyS1wPbWvDHgTV44tixFQK5-Tc1-3cw5v27hOPpSfOOJN3sw_rAAfxLpTj3KtHqPUnbkmUBKAZVFgORz62VkHOOYVw410tLxeaY-18TuPA8XyKZ1RzdOX8kw5Og2Fv_XKzadKjjqpJQjaz8C10ULilg0OcmuOGTAMa-wqRymaMVOlkDOPmXdJNHxBIF5y97hlA5gJCW37cq4QR4xyzVj_pYm2zx0MXxxNkAGgba1nwGPhlidJmmWXlsCmq44RFeYlO10PA_uw_4z_aFiKjhpaUmUOZoWWNLHgReqa2fAFlseaw9I0Mp-KgoHXMa3ltj4ycddRZUPogdC3Shxcr4cATRhp5NHFV7nxZrtSYju2ExqlYYfUUlmzX6cuLqnG4lF6QjmkmA6DqdSNlIyK_ax_cFNutOeUa_3fi26f7MQEUok6toqy7W6zJYw8mEHWNlsBghvwPjNG7LnA91-Ewp39XS3SallHZLtSD1kngRE98l0PSMwu7rya3evmaJd&quot;; session_id_ourhours=True</div></td></tr><tr><td style="font-weight:bold;vertical-align:top;">http_host</td><td style="vertical-align:top;">:</td><td><div>127.0.0.1:8000</div></td></tr><tr><td style="font-weight:bold;vertical-align:top;">http_referer</td><td style="vertical-align:top;">:</td><td><div>http://127.0.0.1:8000/ourhours/default/index</div></td></tr><tr><td style="font-weight:bold;vertical-align:top;">http_upgrade_insecure_requests</td><td style="vertical-align:top;">:</td><td><div>1</div></td></tr><tr><td style="font-weight:bold;vertical-align:top;">http_user_agent</td><td style="vertical-align:top;">:</td><td><div>Mozilla/5.0 (Windows NT 10.0; Win64; x64) AppleWebKit/537.36 (KHTML, like Gecko) Chrome/55.0.2883.87 Safari/537.36</div></td></tr><tr><td style="font-weight:bold;vertical-align:top;">is_jython</td><td style="vertical-align:top;">:</td><td><div>False</div></td></tr><tr><td style="font-weight:bold;vertical-align:top;">is_pypy</td><td style="vertical-align:top;">:</td><td><div>False</div></td></tr><tr><td style="font-weight:bold;vertical-align:top;">is_source</td><td style="vertical-align:top;">:</td><td><div>False</div></td></tr><tr><td style="font-weight:bold;vertical-align:top;">local_hosts</td><td style="vertical-align:top;">:</td><td><div><table><tr><td><div>fe80::81f2:e7ae:7efe:f1e7%23</div></td></tr><tr><td><div>DESKTOP-GDD7DCK</div></td></tr><tr><td><div>::ffff:127.0.0.1</div></td></tr><tr><td><div>::1</div></td></tr><tr><td><div>fe80::5efe:192.168.1.135%21</div></td></tr><tr><td><div>192.168.1.135</div></td></tr><tr><td><div>fe80::e941:c1cf:aca3:e27d%22</div></td></tr><tr><td><div>127.0.0.1</div></td></tr><tr><td><div>192.168.56.1</div></td></tr></table></div></td></tr><tr><td style="font-weight:bold;vertical-align:top;">path_info</td><td style="vertical-align:top;">:</td><td><div>/ourhours/default/event_page/15</div></td></tr><tr><td style="font-weight:bold;vertical-align:top;">query_string</td><td style="vertical-align:top;">:</td><td><div></div></td></tr><tr><td style="font-weight:bold;vertical-align:top;">remote_addr</td><td style="vertical-align:top;">:</td><td><div>127.0.0.1</div></td></tr><tr><td style="font-weight:bold;vertical-align:top;">remote_port</td><td style="vertical-align:top;">:</td><td><div>57899</div></td></tr><tr><td style="font-weight:bold;vertical-align:top;">request_method</td><td style="vertical-align:top;">:</td><td><div>GET</div></td></tr><tr><td style="font-weight:bold;vertical-align:top;">request_uri</td><td style="vertical-align:top;">:</td><td><div>/ourhours/default/event_page/15</div></td></tr><tr><td style="font-weight:bold;vertical-align:top;">script_name</td><td style="vertical-align:top;">:</td><td><div></div></td></tr><tr><td style="font-weight:bold;vertical-align:top;">server_name</td><td style="vertical-align:top;">:</td><td><div>DESKTOP-GDD7DCK</div></td></tr><tr><td style="font-weight:bold;vertical-align:top;">server_port</td><td style="vertical-align:top;">:</td><td><div>8000</div></td></tr><tr><td style="font-weight:bold;vertical-align:top;">server_protocol</td><td style="vertical-align:top;">:</td><td><div>HTTP/1.1</div></td></tr><tr><td style="font-weight:bold;vertical-align:top;">server_software</td><td style="vertical-align:top;">:</td><td><div>Rocket 1.2.6</div></td></tr><tr><td style="font-weight:bold;vertical-align:top;">web2py_path</td><td style="vertical-align:top;">:</td><td><div>C:\\Users\\Wesly\\Desktop\\UCSC-Hack-2017</div></td></tr><tr><td style="font-weight:bold;vertical-align:top;">web2py_version</td><td style="vertical-align:top;">:</td><td><div>2.14.6-stable+timestamp.2016.05.10.00.21.47</div></td></tr><tr><td style="font-weight:bold;vertical-align:top;">wsgi.errors</td><td style="vertical-align:top;">:</td><td><div>&lt;open file &#x27;&lt;stderr&gt;&#x27;, mode &#x27;w&#x27; at 0x0221D0D0&gt;</div></td></tr><tr><td style="font-weight:bold;vertical-align:top;">wsgi.file_wrapper</td><td style="vertical-align:top;">:</td><td><div>&lt;class wsgiref.util.FileWrapper at 0x0321F148&gt;</div></td></tr><tr><td style="font-weight:bold;vertical-align:top;">wsgi.input</td><td style="vertical-align:top;">:</td><td><div>&lt;socket._fileobject object at 0x08149AF0&gt;</div></td></tr><tr><td style="font-weight:bold;vertical-align:top;">wsgi.multiprocess</td><td style="vertical-align:top;">:</td><td><div>False</div></td></tr><tr><td style="font-weight:bold;vertical-align:top;">wsgi.multithread</td><td style="vertical-align:top;">:</td><td><div>True</div></td></tr><tr><td style="font-weight:bold;vertical-align:top;">wsgi.run_once</td><td style="vertical-align:top;">:</td><td><div>False</div></td></tr><tr><td style="font-weight:bold;vertical-align:top;">wsgi.url_scheme</td><td style="vertical-align:top;">:</td><td><div>http</div></td></tr><tr><td style="font-weight:bold;vertical-align:top;">wsgi.version</td><td style="vertical-align:top;">:</td><td><div><table><tr><td><div>1</div></td></tr><tr><td><div>0</div></td></tr></table></div></td></tr><tr><td style="font-weight:bold;vertical-align:top;">wsgi_errors</td><td style="vertical-align:top;">:</td><td><div>&lt;open file &#x27;&lt;stderr&gt;&#x27;, mode &#x27;w&#x27; at 0x0221D0D0&gt;</div></td></tr><tr><td style="font-weight:bold;vertical-align:top;">wsgi_file_wrapper</td><td style="vertical-align:top;">:</td><td><div>&lt;class wsgiref.util.FileWrapper at 0x0321F148&gt;</div></td></tr><tr><td style="font-weight:bold;vertical-align:top;">wsgi_input</td><td style="vertical-align:top;">:</td><td><div>&lt;socket._fileobject object at 0x08149AF0&gt;</div></td></tr><tr><td style="font-weight:bold;vertical-align:top;">wsgi_multiprocess</td><td style="vertical-align:top;">:</td><td><div>False</div></td></tr><tr><td style="font-weight:bold;vertical-align:top;">wsgi_multithread</td><td style="vertical-align:top;">:</td><td><div>True</div></td></tr><tr><td style="font-weight:bold;vertical-align:top;">wsgi_run_once</td><td style="vertical-align:top;">:</td><td><div>False</div></td></tr><tr><td style="font-weight:bold;vertical-align:top;">wsgi_url_scheme</td><td style="vertical-align:top;">:</td><td><div>http</div></td></tr><tr><td style="font-weight:bold;vertical-align:top;">wsgi_version</td><td style="vertical-align:top;">:</td><td><div><table><tr><td><div>1</div></td></tr><tr><td><div>0</div></td></tr></table></div></td></tr></table></div></td></tr><tr><td style="font-weight:bold;vertical-align:top;">extension</td><td style="vertical-align:top;">:</td><td><div>html</div></td></tr><tr><td style="font-weight:bold;vertical-align:top;">folder</td><td style="vertical-align:top;">:</td><td><div>C:\\Users\\Wesly\\Desktop\\UCSC-Hack-2017\\applications\\ourhours\\</div></td></tr><tr><td style="font-weight:bold;vertical-align:top;">function</td><td style="vertical-align:top;">:</td><td><div>event_page</div></td></tr><tr><td style="font-weight:bold;vertical-align:top;">global_settings</td><td style="vertical-align:top;">:</td><td><div><table><tr><td style="font-weight:bold;vertical-align:top;">app_folders</td><td style="vertical-align:top;">:</td><td><div>set([&#x27;C:\\\\Users\\\\Wesly\\\\Desktop\\\\UCSC-Hack-2017\\\\applications\\\\welcome\\\\&#x27;, &#x27;C:\\\\Users\\\\Wesly\\\\Desktop\\\\UCSC-Hack-2017\\\\applications\\\\examples\\\\&#x27;, &#x27;C:\\\\Users\\\\Wesly\\\\Desktop\\\\UCSC-Hack-2017\\\\applications\\\\ourhours\\\\&#x27;, &#x27;C:\\\\Users\\\\Wesly\\\\Desktop\\\\UCSC-Hack-2017\\\\applications\\\\admin\\\\&#x27;])</div></td></tr><tr><td style="font-weight:bold;vertical-align:top;">applications_parent</td><td style="vertical-align:top;">:</td><td><div>C:\\Users\\Wesly\\Desktop\\UCSC-Hack-2017</div></td></tr><tr><td style="font-weight:bold;vertical-align:top;">cmd_args</td><td style="vertical-align:top;">:</td><td><div><table></table></div></td></tr><tr><td style="font-weight:bold;vertical-align:top;">cmd_options</td><td style="vertical-align:top;">:</td><td><div>&lt;Values at 0x2ddaeb8: {&#x27;verbose&#x27;: False, &#x27;ip&#x27;: &#x27;127.0.0.1&#x27;, &#x27;debuglevel&#x27;: 30, &#x27;with_scheduler&#x27;: False, &#x27;shutdown_timeout&#x27;: 5, &#x27;taskbar&#x27;: False, &#x27;with_coverage&#x27;: False, &#x27;pid_filename&#x27;: &#x27;httpserver.pid&#x27;, &#x27;maxthreads&#x27;: None, &#x27;softcron&#x27;: False, &#x27;server_name&#x27;: &#x27;DESKTOP-GDD7DCK&#x27;, &#x27;bpython&#x27;: False, &#x27;nogui&#x27;: False, &#x27;port&#x27;: 8000, &#x27;print_errors&#x27;: False, &#x27;extcron&#x27;: False, &#x27;runcron&#x27;: False, &#x27;run_system_tests&#x27;: False, &#x27;test&#x27;: None, &#x27;folder&#x27;: &#x27;C:\\\\Users\\\\Wesly\\\\Desktop\\\\UCSC-Hack-2017&#x27;, &#x27;config&#x27;: &#x27;&#x27;, &#x27;minthreads&#x27;: None, &#x27;shell&#x27;: None, &#x27;run&#x27;: &#x27;&#x27;, &#x27;log_filename&#x27;: &#x27;httpserver.log&#x27;, &#x27;profiler_dir&#x27;: None, &#x27;args&#x27;: [&#x27;&#x27;], &#x27;socket_timeout&#x27;: 5, &#x27;ssl_ca_certificate&#x27;: None, &#x27;scheduler&#x27;: None, &#x27;interfaces&#x27;: None, &#x27;ssl_private_key&#x27;: &#x27;&#x27;, &#x27;gae&#x27;: None, &#x27;password&#x27;: &#x27;******&#x27;, &#x27;request_queue_size&#x27;: 5, &#x27;ssl_certificate&#x27;: &#x27;&#x27;, &#x27;cronjob&#x27;: False, &#x27;numthreads&#x27;: None, &#x27;quiet&#x27;: False, &#x27;import_models&#x27;: False, &#x27;timeout&#x27;: 10, &#x27;plain&#x27;: False, &#x27;nobanner&#x27;: False}&gt;</div></td></tr><tr><td style="font-weight:bold;vertical-align:top;">db_sessions</td><td style="vertical-align:top;">:</td><td><div>set([])</div></td></tr><tr><td style="font-weight:bold;vertical-align:top;">debugging</td><td style="vertical-align:top;">:</td><td><div>True</div></td></tr><tr><td style="font-weight:bold;vertical-align:top;">gluon_parent</td><td style="vertical-align:top;">:</td><td><div>C:\\Users\\Wesly\\Desktop\\UCSC-Hack-2017</div></td></tr><tr><td style="font-weight:bold;vertical-align:top;">is_jython</td><td style="vertical-align:top;">:</td><td><div>False</div></td></tr><tr><td style="font-weight:bold;vertical-align:top;">is_pypy</td><td style="vertical-align:top;">:</td><td><div>False</div></td></tr><tr><td style="font-weight:bold;vertical-align:top;">is_source</td><td style="vertical-align:top;">:</td><td><div>False</div></td></tr><tr><td style="font-weight:bold;vertical-align:top;">local_hosts</td><td style="vertical-align:top;">:</td><td><div><table><tr><td><div>fe80::81f2:e7ae:7efe:f1e7%23</div></td></tr><tr><td><div>DESKTOP-GDD7DCK</div></td></tr><tr><td><div>::ffff:127.0.0.1</div></td></tr><tr><td><div>::1</div></td></tr><tr><td><div>fe80::5efe:192.168.1.135%21</div></td></tr><tr><td><div>192.168.1.135</div></td></tr><tr><td><div>fe80::e941:c1cf:aca3:e27d%22</div></td></tr><tr><td><div>127.0.0.1</div></td></tr><tr><td><div>192.168.56.1</div></td></tr></table></div></td></tr><tr><td style="font-weight:bold;vertical-align:top;">web2py_version</td><td style="vertical-align:top;">:</td><td><div>2.14.6-stable+timestamp.2016.05.10.00.21.47</div></td></tr></table></div></td></tr><tr><td style="font-weight:bold;vertical-align:top;">is_https</td><td style="vertical-align:top;">:</td><td><div>False</div></td></tr><tr><td style="font-weight:bold;vertical-align:top;">is_local</td><td style="vertical-align:top;">:</td><td><div>True</div></td></tr><tr><td style="font-weight:bold;vertical-align:top;">is_restful</td><td style="vertical-align:top;">:</td><td><div>False</div></td></tr><tr><td style="font-weight:bold;vertical-align:top;">is_scheduler</td><td style="vertical-align:top;">:</td><td><div>False</div></td></tr><tr><td style="font-weight:bold;vertical-align:top;">is_shell</td><td style="vertical-align:top;">:</td><td><div>False</div></td></tr><tr><td style="font-weight:bold;vertical-align:top;">now</td><td style="vertical-align:top;">:</td><td><div>datetime.datetime(2017, 1, 21, 15, 57, 57, 542000)</div></td></tr><tr><td style="font-weight:bold;vertical-align:top;">raw_args</td><td style="vertical-align:top;">:</td><td><div>15</div></td></tr><tr><td style="font-weight:bold;vertical-align:top;">raw_extension</td><td style="vertical-align:top;">:</td><td><div>None</div></td></tr><tr><td style="font-weight:bold;vertical-align:top;">url</td><td style="vertical-align:top;">:</td><td><div>/ourhours/default/event_page/15</div></td></tr><tr><td style="font-weight:bold;vertical-align:top;">utcnow</td><td style="vertical-align:top;">:</td><td><div>datetime.datetime(2017, 1, 21, 23, 57, 57, 542000)</div></td></tr><tr><td style="font-weight:bold;vertical-align:top;">wsgi</td><td style="vertical-align:top;">:</td><td><div>&lt;gluon.main.LazyWSGI object at 0x076743D0&gt;</div></td></tr></table></div>'
tRp58
sS'frames'
p59
(lp60
(dp61
S'file'
p62
S'C:\\Users\\Wesly\\Desktop\\UCSC-Hack-2017\\gluon\\restricted.py'
p63
sS'dump'
p64
(dp65
S'environment'
p66
S"{'A': <class 'gluon.html.A'>, 'ANY_OF': <class 'gluon.validators.ANY_OF'>, 'ASSIGNJS': <function ASSIGNJS>, 'Auth': <class 'gluon.tools.Auth'>, 'B': <class 'gluon.html.B'>, 'BEAUTIFY': <class 'gluon.html.BEAUTIFY'>, 'BODY': <class 'gluon.html.BODY'>, 'BR': <class 'gluon.html.BR'>, 'BUTTON': <class 'gluon.html.BUTTON'>, 'CAT': <class 'gluon.html.CAT'>, ...}"
p67
sS'ccode'
p68
S'<code object <module> at 07DBB188, file "C:\\User...\\ourhours\\views\\default/event_page.html", line 1>'
p69
ssS'lnum'
p70
I227
sS'lines'
p71
(dp72
I224
S'            ccode = code'
p73
sI225
S'        else:'
p74
sI226
S'            ccode = compile2(code, layer)'
p75
sI227
S'        exec ccode in environment'
p76
sI228
S'    except HTTP:'
p77
sI229
S'        raise'
p78
sI230
S'    except RestrictedError:'
p79
sI231
S'        # do not encapsulate (obfuscate) the original RestrictedError'
p80
sI222
S'    try:'
p81
sI223
S'        if isinstance(code, types.CodeType):'
p82
ssS'call'
p83
S'(code="response.write(\'<!-- \', escape=False)\\nresponse.w...></script>\\\\r\\\\n    \\\\r\\\\n</html>\\\\r\\\\n\', escape=False)", environment={\'A\': <class \'gluon.html.A\'>, \'ANY_OF\': <class \'gluon.validators.ANY_OF\'>, \'ASSIGNJS\': <function ASSIGNJS>, \'Auth\': <class \'gluon.tools.Auth\'>, \'B\': <class \'gluon.html.B\'>, \'BEAUTIFY\': <class \'gluon.html.BEAUTIFY\'>, \'BODY\': <class \'gluon.html.BODY\'>, \'BR\': <class \'gluon.html.BR\'>, \'BUTTON\': <class \'gluon.html.BUTTON\'>, \'CAT\': <class \'gluon.html.CAT\'>, ...}, layer=r\'C:\\Users\\Wesly\\Desktop\\UCSC-Hack-2017\\applications\\ourhours\\views\\default/event_page.html\')'
p84
sS'func'
p85
S'restricted'
p86
sa(dp87
g62
S'C:\\Users\\Wesly\\Desktop\\UCSC-Hack-2017\\applications\\ourhours\\views\\default\\event_page.html'
p88
sg64
(dp89
S'function'
p90
S'undefined'
p91
sS'jsEvent'
p92
g91
sS'false'
p93
g91
sS'event.title'
p94
g91
sS'event.description'
p95
g91
sS'event.url'
p96
g91
sS'eventClick'
p97
g91
sS'event'
p98
S'<Rows (0)>'
p99
sS'view'
p100
g91
ssg70
I65
sg71
(dp101
I64
S'response.write(\'\\r\\n\\r\\n<head>\\r\\n    <meta charset="utf-8" />\\r\\n    <meta name="viewport" content="width=device-width, initial-scale=1.0">\\r\\n    <title>Wesly\\\'s Phat Calendar</title>\\r\\n    <link href="https://maxcdn.bootstrapcdn.com/bootstrap/3.3.6/css/bootstrap.min.css" type="text/css" rel="stylesheet" />\\r\\n    <link href="https://cdnjs.cloudflare.com/ajax/libs/fullcalendar/2.6.1/fullcalendar.min.css" type="text/css" rel="stylesheet" />\\r\\n</head>\\r\\n<body>\\r\\n    <div class="container">\\r\\n        <div class="row">\\r\\n            <div class="col-xs-12">\\r\\n                <br />\\r\\n                <div id="bootstrapModalFullCalendar"></div>\\r\\n            </div>\\r\\n        </div>\\r\\n    </div>\\r\\n\\r\\n    <div id="fullCalModal" class="modal fade">\\r\\n        <div class="modal-dialog">\\r\\n            <div class="modal-content">\\r\\n                <div class="modal-header">\\r\\n                    <button type="button" class="close" data-dismiss="modal"><span aria-hidden="true">\\xc3\\x97</span> <span class="sr-only">close</span></button>\\r\\n                    <h4 id="modalTitle" class="modal-title"></h4>\\r\\n                </div>\\r\\n                <div id="modalBody" class="modal-body"></div>\\r\\n                <div class="modal-footer">\\r\\n                    <a class="btn btn-primary" id="eventUrl" target="_blank">Attending</a>\\r\\n                    <button type="button" class="btn btn-default" data-dismiss="modal">Close</button>\\r\\n                    \\r\\n                </div>\\r\\n            </div>\\r\\n        </div>\\r\\n    </div>\\r\\n\\r\\n    <script src="https://code.jquery.com/jquery.js"></script>\\r\\n    <script src="https://cdnjs.cloudflare.com/ajax/libs/moment.js/2.8.2/moment.min.js"></script>\\r\\n    <script src="https://cdnjs.cloudflare.com/ajax/libs/fullcalendar/2.6.1/fullcalendar.min.js"></script>\\r\\n    <script src="https://maxcdn.bootstrapcdn.com/bootstrap/3.3.6/js/bootstrap.min.js"></script>\\r\\n\\r\\n    <script>\\r\\n        $(document).ready(function() {\\r\\n            $(\\\'#bootstrapModalFullCalendar\\\').fullCalendar({\\r\\n                header: {\\r\\n                    left: \\\'today\\\',\\r\\n                    center: \\\'prev title next\\\',\\r\\n                    right: \\\'month agendaWeek agendaDay\\\'\\r\\n                },\\r\\n                eventClick:  function(event, jsEvent, view) {\\r\\n                    $(\\\'#modalTitle\\\').html(event.title);\\r\\n                    $(\\\'#modalBody\\\').html(event.description);\\r\\n                    $(\\\'#eventUrl\\\').attr(\\\'href\\\',event.url);\\r\\n                    $(\\\'#fullCalModal\\\').modal();\\r\\n                    return false;\\r\\n                },\\r\\n                \\r\\n                events:\\r\\n                [\\r\\n                   {\\r\\n                      "title":"#\', escape=False)'
p102
sI65
S'response.write(event.event_name)'
p103
sI66
S'response.write(\'",\\r\\n                      "allday":"false",\\r\\n                      "description":"<p>This is just a fake description for the Free Pizza.</p><p>Nothing to see!</p>",\\r\\n                      "start":moment().subtract(\\\'days\\\',14),\\r\\n                      "end":moment().subtract(\\\'days\\\',14),\\r\\n                      "url":"http://www.youtube.com/",\\r\\n                       backgroundColor: \\\'#f44842\\\'    \\r\\n                   }\\r\\n                ]\\r\\n                \\r\\n            });\\r\\n        });\\r\\n    </script>\\r\\n</body>\\r\\n\\r\\n\', escape=False)'
p104
sI67
S"response.write('</div>\\r\\n        ', escape=False)"
p105
sI68
S'if right_sidebar_enabled:'
p106
sI69
S'    response.write(\'\\r\\n        <div class="quarter padded">\', escape=False)'
p107
sI70
S"    response.write('</div>\\r\\n        ', escape=False)"
p108
sI71
S'    pass'
p109
sI72
S'response.write(\'\\r\\n      </div>\\r\\n      <div class="silver center padded">\\r\\n        <a class="fa fa-twitter" href="https://twitter.com/web2py/"></a>\\r\\n        <a class="fa fa-facebook" href="https://www.facebook.com/web2py/"></a>\\r\\n      </div>\\r\\n    </main>\\r\\n    <footer class="black">\\r\\n      <div class="container padded max900">\\r\\n        <div class="fill">\\r\\n          Copyright @ 2016 - Powered by Web2py\\r\\n        </div>\\r\\n      </div>\\r\\n    </footer>\\r\\n  </body>  \\r\\n  <script>\\r\\n    // prevent android horizontal scrolling\\r\\n    window.addEventListener("scroll", function(){window.scroll(0, window.pageYOffset);}, false);\\r\\n  </script>\\r\\n\\r\\n\\r\\n\\r\\n    <script src="https://www.gstatic.com/firebasejs/3.6.6/firebase.js"></script>\\r\\n    <script>\\r\\n      // Initialize Firebase\\r\\n      var config = {\\r\\n        apiKey: "AIzaSyBcdz_Vm6rWJiYnEh9INZTZC9wCKWpvWN8",\\r\\n        authDomain: "ourhours-524b4.firebaseapp.com",\\r\\n        databaseURL: "https://ourhours-524b4.firebaseio.com",\\r\\n        storageBucket: "ourhours-524b4.appspot.com",\\r\\n        messagingSenderId: "228068546769"\\r\\n      };\\r\\n      firebase.initializeApp(config);\\r\\n    </script>\\r\\n\\r\\n    <!-- jQuery -->\\r\\n    <script src="https://cdnjs.cloudflare.com/ajax/libs/jquery/3.1.0/jquery.min.js"></script>\\r\\n\\r\\n    <!-- Firechat -->\\r\\n    <link rel="stylesheet" href="https://cdn.firebase.com/libs/firechat/3.0.1/firechat.min.css" />\\r\\n    <script src="https://cdn.firebase.com/libs/firechat/3.0.1/firechat.min.js"></script>\\r\\n\\r\\n    <script src = "/ourhours/static/js/main.js"></script>\\r\\n    \\r\\n</html>\\r\\n\', escape=False)'
p110
sI56
S"    response.write('\\r\\n', escape=False)"
p111
sI57
S'    for event in event:'
p112
sI58
S"        response.write('\\r\\n    <tr>\\r\\n        <a href>\\r\\n            <td> ', escape=False)"
p113
sI59
S'        response.write(event.event_name)'
p114
sI60
S"        response.write('</td>\\r\\n        </a>\\r\\n        <br>\\r\\n    </tr>\\r\\n', escape=False)"
p115
sI61
S'        pass'
p116
sI62
S"    response.write('\\r\\n', escape=False)"
p117
sI63
S'    pass'
p118
ssg83
S'()'
p119
sg85
S'<module>'
p120
sasS'pyver'
p121
S'Python 2.7.9: C:\\Users\\Wesly\\Desktop\\UCSC-Hack-2017\\web2py.exe (prefix: )'
p122
sS'session'
p123
g57
(S's6\x01\x00\x00<div><table><tr><td style="font-weight:bold;vertical-align:top;">last_orderby</td><td style="vertical-align:top;">:</td><td><div>None</div></td></tr><tr><td style="font-weight:bold;vertical-align:top;">last_query</td><td style="vertical-align:top;">:</td><td><div>db.event.id&gt;0</div></td></tr></table></div>'
tRp124
sS'etype'
p125
S"<type 'exceptions.AttributeError'>"
p126
sS'date'
p127
S'Sat Jan 21 15:57:57 2017'
p128
sS'response'
p129
g57
(S's\xaf\x17\x00\x00<div><table><tr><td style="font-weight:bold;vertical-align:top;">body</td><td style="vertical-align:top;">:</td><td><div>&lt;cStringIO.StringO object at 0x07D5C2C0&gt;</div></td></tr><tr><td style="font-weight:bold;vertical-align:top;">cookies</td><td style="vertical-align:top;">:</td><td><div><table><tr><td style="font-weight:bold;vertical-align:top;">session_id_ourhours</td><td style="vertical-align:top;">:</td><td><div>127.0.0.1-f87899e8-82bb-4deb-b18b-8786277910b0<table><tr><td style="font-weight:bold;vertical-align:top;">comment</td><td style="vertical-align:top;">:</td><td><div></div></td></tr><tr><td style="font-weight:bold;vertical-align:top;">domain</td><td style="vertical-align:top;">:</td><td><div></div></td></tr><tr><td style="font-weight:bold;vertical-align:top;">expires</td><td style="vertical-align:top;">:</td><td><div></div></td></tr><tr><td style="font-weight:bold;vertical-align:top;">httponly</td><td style="vertical-align:top;">:</td><td><div></div></td></tr><tr><td style="font-weight:bold;vertical-align:top;">max-age</td><td style="vertical-align:top;">:</td><td><div></div></td></tr><tr><td style="font-weight:bold;vertical-align:top;">path</td><td style="vertical-align:top;">:</td><td><div>/</div></td></tr><tr><td style="font-weight:bold;vertical-align:top;">secure</td><td style="vertical-align:top;">:</td><td><div></div></td></tr><tr><td style="font-weight:bold;vertical-align:top;">version</td><td style="vertical-align:top;">:</td><td><div></div></td></tr></table></div></td></tr></table></div></td></tr><tr><td style="font-weight:bold;vertical-align:top;">delimiters</td><td style="vertical-align:top;">:</td><td><div><table><tr><td><div>{{</div></td></tr><tr><td><div>}}</div></td></tr></table></div></td></tr><tr><td style="font-weight:bold;vertical-align:top;">files</td><td style="vertical-align:top;">:</td><td><div><table><tr><td><div>/ourhours/static/js/jquery.js</div></td></tr><tr><td><div>/ourhours/static/css/calendar.css</div></td></tr><tr><td><div>/ourhours/static/js/calendar.js</div></td></tr><tr><td><div>/ourhours/static/js/web2py.js</div></td></tr></table></div></td></tr><tr><td style="font-weight:bold;vertical-align:top;">flash</td><td style="vertical-align:top;">:</td><td><div></div></td></tr><tr><td style="font-weight:bold;vertical-align:top;">form_label_separator</td><td style="vertical-align:top;">:</td><td><div>: </div></td></tr><tr><td style="font-weight:bold;vertical-align:top;">formstyle</td><td style="vertical-align:top;">:</td><td><div>table3cols</div></td></tr><tr><td style="font-weight:bold;vertical-align:top;">generic_patterns</td><td style="vertical-align:top;">:</td><td><div><table><tr><td><div>*</div></td></tr></table></div></td></tr><tr><td style="font-weight:bold;vertical-align:top;">headers</td><td style="vertical-align:top;">:</td><td><div><table><tr><td style="font-weight:bold;vertical-align:top;">X-Powered-By</td><td style="vertical-align:top;">:</td><td><div>web2py</div></td></tr></table></div></td></tr><tr><td style="font-weight:bold;vertical-align:top;">menu</td><td style="vertical-align:top;">:</td><td><div><table><tr><td><div><table><tr><td><div>Home</div></td></tr><tr><td><div>False</div></td></tr><tr><td><div>/ourhours/default/index</div></td></tr></table></div></td></tr></table></div></td></tr><tr><td style="font-weight:bold;vertical-align:top;">meta</td><td style="vertical-align:top;">:</td><td><div><table></table></div></td></tr><tr><td style="font-weight:bold;vertical-align:top;">models_to_run</td><td style="vertical-align:top;">:</td><td><div><table><tr><td><div>^\\w+\\.py$</div></td></tr><tr><td><div>^default/\\w+\\.py$</div></td></tr><tr><td><div>^default/event_page/\\w+\\.py$</div></td></tr></table></div></td></tr><tr><td style="font-weight:bold;vertical-align:top;">postprocessing</td><td style="vertical-align:top;">:</td><td><div><table></table></div></td></tr><tr><td style="font-weight:bold;vertical-align:top;">session_client</td><td style="vertical-align:top;">:</td><td><div>127.0.0.1</div></td></tr><tr><td style="font-weight:bold;vertical-align:top;">session_cookie_compression_level</td><td style="vertical-align:top;">:</td><td><div>None</div></td></tr><tr><td style="font-weight:bold;vertical-align:top;">session_cookie_expires</td><td style="vertical-align:top;">:</td><td><div>None</div></td></tr><tr><td style="font-weight:bold;vertical-align:top;">session_data_name</td><td style="vertical-align:top;">:</td><td><div>session_data_ourhours</div></td></tr><tr><td style="font-weight:bold;vertical-align:top;">session_file</td><td style="vertical-align:top;">:</td><td><div>None</div></td></tr><tr><td style="font-weight:bold;vertical-align:top;">session_filename</td><td style="vertical-align:top;">:</td><td><div>C:\\Users\\Wesly\\Desktop\\UCSC-Hack-2017\\applications\\ourhours\\sessions\\127.0.0.1-f87899e8-82bb-4deb-b18b-8786277910b0</div></td></tr><tr><td style="font-weight:bold;vertical-align:top;">session_hash</td><td style="vertical-align:top;">:</td><td><div>5cbb0982499f424b043666847911914a</div></td></tr><tr><td style="font-weight:bold;vertical-align:top;">session_id</td><td style="vertical-align:top;">:</td><td><div>True</div></td></tr><tr><td style="font-weight:bold;vertical-align:top;">session_id_name</td><td style="vertical-align:top;">:</td><td><div>session_id_ourhours</div></td></tr><tr><td style="font-weight:bold;vertical-align:top;">session_masterapp</td><td style="vertical-align:top;">:</td><td><div>ourhours</div></td></tr><tr><td style="font-weight:bold;vertical-align:top;">session_new</td><td style="vertical-align:top;">:</td><td><div>True</div></td></tr><tr><td style="font-weight:bold;vertical-align:top;">session_storage_type</td><td style="vertical-align:top;">:</td><td><div>cookie</div></td></tr><tr><td style="font-weight:bold;vertical-align:top;">status</td><td style="vertical-align:top;">:</td><td><div>200</div></td></tr><tr><td style="font-weight:bold;vertical-align:top;">view</td><td style="vertical-align:top;">:</td><td><div>default/event_page.html</div></td></tr></table></div>'
tRp130
sS'locals'
p131
(dp132
S'IFRAME'
p133
S"<class 'gluon.html.IFRAME'>"
p134
sS'toggle_menuclass'
p135
S'<function toggle_menuclass>'
p136
sS'OBJECT'
p137
S"<class 'gluon.html.OBJECT'>"
p138
sS'SQLDB'
p139
S"<class 'pydal.base.DAL'>"
p140
sg123
S"<Storage {'_formkey[event/create]': ['19605a72-c...gin]': ['1df78436-637a-4b47-aeab-17964732be3a']}>"
p141
sS'LINK'
p142
S"<class 'gluon.html.LINK'>"
p143
sS'BR'
p144
S"<class 'gluon.html.BR'>"
p145
sS'local_import'
p146
S'<function <lambda>>'
p147
sS'OPTGROUP'
p148
S"<class 'gluon.html.OPTGROUP'>"
p149
sS'__package__'
p150
S'None'
p151
sS'PRE'
p152
S"<class 'gluon.html.PRE'>"
p153
sS'IS_INT_IN_RANGE'
p154
S"<class 'gluon.validators.IS_INT_IN_RANGE'>"
p155
sS'left_sidebar_enabled'
p156
S'False'
p157
sS'IS_LOWER'
p158
S"<class 'gluon.validators.IS_LOWER'>"
p159
sS'IS_STRONG'
p160
S"<class 'gluon.validators.IS_STRONG'>"
p161
sS'cache'
p162
S'<gluon.cache.Cache object>'
p163
sS'IS_IN_DB'
p164
S"<class 'gluon.validators.IS_IN_DB'>"
p165
sS'TAG'
p166
S'<gluon.html.__TAG__ object>'
p167
sS'SQLField'
p168
S"<class 'pydal.objects.Field'>"
p169
sS'BODY'
p170
S"<class 'gluon.html.BODY'>"
p171
sS'IS_DATE_IN_RANGE'
p172
S"<class 'gluon.validators.IS_DATE_IN_RANGE'>"
p173
sS'random'
p174
S"<module 'random' from 'C:\\Users\\Wesly\\Desktop\\UCSC-Hack-2017\\library.zip\\random.pyc'>"
p175
sS'string'
p176
S"<module 'string' from 'C:\\Users\\Wesly\\Desktop\\UCSC-Hack-2017\\library.zip\\string.pyc'>"
p177
sS'URL'
p178
S'<function URL>'
p179
sS'__file__'
p180
S"r'C:\\Users\\Wesly\\Desktop\\UCSC-Hack-2017\\applications\\ourhours\\views\\default/event_page.html'"
p181
sS'db'
p182
S'<DAL uri="sqlite://storage.sqlite">'
p183
sS'auth'
p184
S'<gluon.tools.Auth object>'
p185
sS'P'
S"<class 'gluon.html.P'>"
p186
sS'TFOOT'
p187
S"<class 'gluon.html.TFOOT'>"
p188
sS'XHTML'
p189
S"<class 'gluon.html.XHTML'>"
p190
sS'ON'
p191
S'True'
p192
sS'OL'
p193
S"<class 'gluon.html.OL'>"
p194
sS'TEXTAREA'
p195
S"<class 'gluon.html.TEXTAREA'>"
p196
sS'MENU'
p197
S"<class 'gluon.html.MENU'>"
p198
sS'IS_IMAGE'
p199
S"<class 'gluon.validators.IS_IMAGE'>"
p200
sS'code_feed_reader'
p201
S'<function code_feed_reader>'
p202
sS'EM'
p203
S"<class 'gluon.html.EM'>"
p204
sS'CODE'
p205
S"<class 'gluon.html.CODE'>"
p206
sS'HTTP'
p207
S"<class 'gluon.http.HTTP'>"
p208
sS'HR'
p209
S"<class 'gluon.html.HR'>"
p210
sS'IS_DATETIME'
p211
S"<class 'gluon.validators.IS_DATETIME'>"
p212
sS'cookie_key'
p213
S"'cb2b0a18-15f4-480e-992f-e6b456f44cec'"
p214
sS'STYLE'
p215
S"<class 'gluon.html.STYLE'>"
p216
sS'LABEL'
p217
S"<class 'gluon.html.LABEL'>"
p218
sS'CLEANUP'
p219
S"<class 'gluon.validators.CLEANUP'>"
p220
sS'event'
p221
S'<Rows (0)>'
p222
sS'SELECT'
p223
S"<class 'gluon.html.SELECT'>"
p224
sS'CENTER'
p225
S"<class 'gluon.html.CENTER'>"
p226
sS'Auth'
p227
S"<class 'gluon.tools.Auth'>"
p228
sS'__builtins__'
p229
S"{'ArithmeticError': <type 'exceptions.ArithmeticError'>, 'AssertionError': <type 'exceptions.AssertionError'>, 'AttributeError': <type 'exceptions.AttributeError'>, 'BaseException': <type 'exceptions.BaseException'>, 'BufferError': <type 'exceptions.BufferError'>, 'BytesWarning': <type 'exceptions.BytesWarning'>, 'DeprecationWarning': <type 'exceptions.DeprecationWarning'>, 'EOFError': <type 'exceptions.EOFError'>, 'Ellipsis': Ellipsis, 'EnvironmentError': <type 'exceptions.EnvironmentError'>, ...}"
p230
sS'HTML'
p231
S"<class 'gluon.html.HTML'>"
p232
sS'SQLFORM'
p233
S"<class 'gluon.sqlhtml.SQLFORM'>"
p234
sS'LOAD'
p235
S'<function LOAD>'
p236
sS'redirect'
p237
S'<function redirect>'
p238
sS'FIELDSET'
p239
S"<class 'gluon.html.FIELDSET'>"
p240
sS'IS_EQUAL_TO'
p241
S"<class 'gluon.validators.IS_EQUAL_TO'>"
p242
sS'embed64'
p243
S'<function embed64>'
p244
sS'IS_LIST_OF'
p245
S"<class 'gluon.validators.IS_LIST_OF'>"
p246
sS'INPUT'
p247
S"<class 'gluon.html.INPUT'>"
p248
sS'EMBED'
p249
S"<class 'gluon.html.EMBED'>"
p250
sS'g'
S"<Row {'group_code': 'P5cPR', 'optional_group_pho...p Description.No Group Description.', 'id': 15L}>"
p251
sS'H2'
p252
S"<class 'gluon.html.H2'>"
p253
sS'H3'
p254
S"<class 'gluon.html.H3'>"
p255
sS'BUTTON'
p256
S"<class 'gluon.html.BUTTON'>"
p257
sS'H1'
p258
S"<class 'gluon.html.H1'>"
p259
sS'H6'
p260
S"<class 'gluon.html.H6'>"
p261
sS'H4'
p262
S"<class 'gluon.html.H4'>"
p263
sS'H5'
p264
S"<class 'gluon.html.H5'>"
p265
sS'UL'
p266
S"<class 'gluon.html.UL'>"
p267
sS'IS_UPPER'
p268
S"<class 'gluon.validators.IS_UPPER'>"
p269
sS'xmlescape'
p270
S'<function xmlescape>'
p271
sS'IS_TIME'
p272
S"<class 'gluon.validators.IS_TIME'>"
p273
sS'OPTION'
p274
S"<class 'gluon.html.OPTION'>"
p275
sS'TITLE'
p276
S"<class 'gluon.html.TITLE'>"
p277
sS'CRYPT'
p278
S"<class 'gluon.validators.CRYPT'>"
p279
sS'IS_EMPTY_OR'
p280
S"<class 'gluon.validators.IS_EMPTY_OR'>"
p281
sS'MARKMIN'
p282
S"<class 'gluon.html.MARKMIN'>"
p283
sS'web2py_uuid'
p284
S'<function web2py_uuid>'
p285
sS'__name__'
p286
S"'__restricted__'"
p287
sS'STRONG'
p288
S"<class 'gluon.html.STRONG'>"
p289
sS'COL'
p290
S"<class 'gluon.html.COL'>"
p291
sS'SCRIPT'
p292
S"<class 'gluon.html.SCRIPT'>"
p293
sS'group_feed_reader'
p294
S'<function group_feed_reader>'
p295
sS'TABLE'
p296
S"<class 'gluon.html.TABLE'>"
p297
sS'IS_IPV4'
p298
S"<class 'gluon.validators.IS_IPV4'>"
p299
sS'IS_LENGTH'
p300
S"<class 'gluon.validators.IS_LENGTH'>"
p301
sS'IS_IPV6'
p302
S"<class 'gluon.validators.IS_IPV6'>"
p303
sS'XML'
p304
S"<class 'gluon.html.XML'>"
p305
sS'B'
S"<class 'gluon.html.B'>"
p306
sS'IMG'
p307
S"<class 'gluon.html.IMG'>"
p308
sS'SQLTABLE'
p309
S"<class 'gluon.sqlhtml.SQLTABLE'>"
p310
sS'IS_MATCH'
p311
S"<class 'gluon.validators.IS_MATCH'>"
p312
sS'IS_ALPHANUMERIC'
p313
S"<class 'gluon.validators.IS_ALPHANUMERIC'>"
p314
sS'SPAN'
p315
S"<class 'gluon.html.SPAN'>"
p316
sS'IS_JSON'
p317
S"<class 'gluon.validators.IS_JSON'>"
p318
sS'IS_IPADDRESS'
p319
S"<class 'gluon.validators.IS_IPADDRESS'>"
p320
sS'IS_SLUG'
p321
S"<class 'gluon.validators.IS_SLUG'>"
p322
sS'n'
S'4'
sS'BEAUTIFY'
p323
S"<class 'gluon.html.BEAUTIFY'>"
p324
sS'META'
p325
S"<class 'gluon.html.META'>"
p326
sS'IS_DATE'
p327
S"<class 'gluon.validators.IS_DATE'>"
p328
sS'IS_EMAIL'
p329
S"<class 'gluon.validators.IS_EMAIL'>"
p330
sS'middle_column'
p331
S"'fill'"
p332
sS'IS_NOT_EMPTY'
p333
S"<class 'gluon.validators.IS_NOT_EMPTY'>"
p334
sS'IS_FLOAT_IN_RANGE'
p335
S"<class 'gluon.validators.IS_FLOAT_IN_RANGE'>"
p336
sS'TBODY'
p337
S"<class 'gluon.html.TBODY'>"
p338
sS'CAT'
p339
S"<class 'gluon.html.CAT'>"
p340
sS'Field'
p341
S"<class 'pydal.objects.Field'>"
p342
sS'IS_LIST_OF_EMAILS'
p343
S"<class 'gluon.validators.IS_LIST_OF_EMAILS'>"
p344
sS'DIV'
p345
S"<class 'gluon.html.DIV'>"
p346
sS'LEGEND'
p347
S"<class 'gluon.html.LEGEND'>"
p348
sS'COLGROUP'
p349
S"<class 'gluon.html.COLGROUP'>"
p350
sS'DAL'
p351
S"<class 'pydal.base.DAL'>"
p352
sS'ASSIGNJS'
p353
S'<function ASSIGNJS>'
p354
sS'TR'
p355
S"<class 'gluon.html.TR'>"
p356
sS'LI'
p357
S"<class 'gluon.html.LI'>"
p358
sS'right_sidebar_enabled'
p359
g157
sS'TH'
p360
S"<class 'gluon.html.TH'>"
p361
sS'TD'
p362
S"<class 'gluon.html.TD'>"
p363
sS'IS_URL'
p364
S"<class 'gluon.validators.IS_URL'>"
p365
sS'A'
S"<class 'gluon.html.A'>"
p366
sS'HEAD'
p367
S"<class 'gluon.html.HEAD'>"
p368
sS'IS_DATETIME_IN_RANGE'
p369
S"<class 'gluon.validators.IS_DATETIME_IN_RANGE'>"
p370
sS'FORM'
p371
S"<class 'gluon.html.FORM'>"
p372
sS'I'
S"<class 'gluon.html.I'>"
p373
sS'IS_NOT_IN_DB'
p374
S"<class 'gluon.validators.IS_NOT_IN_DB'>"
p375
sg129
S"<Storage {'body': <cStringIO.StringO object at 0... 0x08149970>, 'view': 'default/event_page.html'}>"
p376
sS'THEAD'
p377
S"<class 'gluon.html.THEAD'>"
p378
sS'ANY_OF'
p379
S"<class 'gluon.validators.ANY_OF'>"
p380
sS'IS_NULL_OR'
p381
S"<class 'gluon.validators.IS_EMPTY_OR'>"
p382
sg56
S"<Storage {'_vars': None, 'function': 'event_page...ktop\\\\UCSC-Hack-2017\\\\applications\\\\ourhours\\\\'}>"
p383
sS'IS_EXPR'
p384
S"<class 'gluon.validators.IS_EXPR'>"
p385
sS'T'
S'<gluon.languages.translator object>'
p386
sS'IS_IN_SET'
p387
S"<class 'gluon.validators.IS_IN_SET'>"
p388
sS'IS_UPLOAD_FILENAME'
p389
S"<class 'gluon.validators.IS_UPLOAD_FILENAME'>"
p390
sS'TT'
p391
S"<class 'gluon.html.TT'>"
p392
sS'IS_DECIMAL_IN_RANGE'
p393
S"<class 'gluon.validators.IS_DECIMAL_IN_RANGE'>"
p394
sssS'traceback'
p395
S'Traceback (most recent call last):\n  File "C:\\Users\\Wesly\\Desktop\\UCSC-Hack-2017\\gluon\\restricted.py", line 227, in restricted\n    exec ccode in environment\n  File "C:\\Users\\Wesly\\Desktop\\UCSC-Hack-2017\\applications\\ourhours\\views\\default/event_page.html", line 65, in <module>\n    eventClick:  function(event, jsEvent, view) {\nAttributeError: \'Rows\' object has no attribute \'event_name\'\n'
p396
s.