(dp1
S'output'
p2
S"<type 'exceptions.ImportError'> No module named modules.IPython.display"
p3
sS'layer'
p4
S'C:\\Users\\Wesly\\Desktop\\UCSC-Hack-2017\\applications\\ourhours\\models\\menu.py'
p5
sS'code'
p6
S'# -*- coding: utf-8 -*-\n\n#########################################################################\n## Changes the menu active item\n#########################################################################\n\nfrom IPython.display import Image\nfrom IPython.core.display import HTML \n\nresponse.menu = [\n    (T(Image(url= "https://scontent-sjc2-1.xx.fbcdn.net/v/t34.0-12/16176292_10207848801035069_1630875362_n.png?oh=18a417a915324017654e0e410ee151f1&oe=58871930")), False, URL(\'default\', \'index\'))\n]\n\ndef toggle_menuclass(cssclass=\'pressed\', menuid=\'headermenu\'):\n    """This function changes the menu class to put pressed appearance"""\n\n    positions = dict(\n        index=\'\',\n        what=\'-108px -115px\',\n        download=\'-211px -115px\',\n        who=\'-315px -115px\',\n        support=\'-418px -115px\',\n        documentation=\'-520px -115px\'\n    )\n\n    if request.function in positions.keys():\n            jscript = """\n            <script>\n             $(document).ready(function(){\n                         $(\'.%(menuid)s a\').removeClass(\'%(cssclass)s\');\n                         $(\'.%(function)s\').toggleClass(\'%(cssclass)s\').css(\'background-position\',\'%(cssposition)s\')\n\n             });\n            </script>\n            """ % dict(cssclass=cssclass,\n                       menuid=menuid,\n                       function=request.function,\n                       cssposition=positions[request.function]\n                       )\n\n            return XML(jscript)\n    else:\n        return \'\'\n'
p7
sS'snapshot'
p8
(dp9
S'exception'
p10
(dp11
S'__hash__'
p12
S"<method-wrapper '__hash__' of exceptions.ImportError object>"
p13
sS'__setattr__'
p14
S"<method-wrapper '__setattr__' of exceptions.ImportError object>"
p15
sS'__reduce_ex__'
p16
S'<built-in method __reduce_ex__ of exceptions.ImportError object>'
p17
sS'__getslice__'
p18
S"<method-wrapper '__getslice__' of exceptions.ImportError object>"
p19
sS'__getitem__'
p20
S"<method-wrapper '__getitem__' of exceptions.ImportError object>"
p21
sS'__setstate__'
p22
S'<built-in method __setstate__ of exceptions.ImportError object>'
p23
sS'__reduce__'
p24
S'<built-in method __reduce__ of exceptions.ImportError object>'
p25
sS'__str__'
p26
S"<method-wrapper '__str__' of exceptions.ImportError object>"
p27
sS'__format__'
p28
S'<built-in method __format__ of exceptions.ImportError object>'
p29
sS'__getattribute__'
p30
S"<method-wrapper '__getattribute__' of exceptions.ImportError object>"
p31
sS'__class__'
p32
S"<type 'exceptions.ImportError'>"
p33
sS'__unicode__'
p34
S'<built-in method __unicode__ of exceptions.ImportError object>'
p35
sS'__delattr__'
p36
S"<method-wrapper '__delattr__' of exceptions.ImportError object>"
p37
sS'__subclasshook__'
p38
S'<built-in method __subclasshook__ of type object>'
p39
sS'__repr__'
p40
S"<method-wrapper '__repr__' of exceptions.ImportError object>"
p41
sS'args'
p42
S"('No module named modules.IPython.display',)"
p43
sS'__dict__'
p44
S'{}'
p45
sS'__sizeof__'
p46
S'<built-in method __sizeof__ of exceptions.ImportError object>'
p47
sS'__doc__'
p48
S'"Import can\'t find module, or can\'t find name in module."'
p49
sS'__init__'
p50
S"<method-wrapper '__init__' of exceptions.ImportError object>"
p51
sS'__new__'
p52
S'<built-in method __new__ of type object>'
p53
ssS'evalue'
p54
S'No module named modules.IPython.display'
p55
sS'request'
p56
cgluon.html
XML_unpickle
p57
(S'sb\xa4\x00\x00<div><table><tr><td style="font-weight:bold;vertical-align:top;">ajax</td><td style="vertical-align:top;">:</td><td><div>False</div></td></tr><tr><td style="font-weight:bold;vertical-align:top;">application</td><td style="vertical-align:top;">:</td><td><div>ourhours</div></td></tr><tr><td style="font-weight:bold;vertical-align:top;">args</td><td style="vertical-align:top;">:</td><td><div><table></table></div></td></tr><tr><td style="font-weight:bold;vertical-align:top;">cid</td><td style="vertical-align:top;">:</td><td><div>None</div></td></tr><tr><td style="font-weight:bold;vertical-align:top;">client</td><td style="vertical-align:top;">:</td><td><div>127.0.0.1</div></td></tr><tr><td style="font-weight:bold;vertical-align:top;">controller</td><td style="vertical-align:top;">:</td><td><div>default</div></td></tr><tr><td style="font-weight:bold;vertical-align:top;">cookies</td><td style="vertical-align:top;">:</td><td><div><table><tr><td style="font-weight:bold;vertical-align:top;">resolution</td><td style="vertical-align:top;">:</td><td><div>1349<table><tr><td style="font-weight:bold;vertical-align:top;">comment</td><td style="vertical-align:top;">:</td><td><div></div></td></tr><tr><td style="font-weight:bold;vertical-align:top;">domain</td><td style="vertical-align:top;">:</td><td><div></div></td></tr><tr><td style="font-weight:bold;vertical-align:top;">expires</td><td style="vertical-align:top;">:</td><td><div></div></td></tr><tr><td style="font-weight:bold;vertical-align:top;">httponly</td><td style="vertical-align:top;">:</td><td><div></div></td></tr><tr><td style="font-weight:bold;vertical-align:top;">max-age</td><td style="vertical-align:top;">:</td><td><div></div></td></tr><tr><td style="font-weight:bold;vertical-align:top;">path</td><td style="vertical-align:top;">:</td><td><div></div></td></tr><tr><td style="font-weight:bold;vertical-align:top;">secure</td><td style="vertical-align:top;">:</td><td><div></div></td></tr><tr><td style="font-weight:bold;vertical-align:top;">version</td><td style="vertical-align:top;">:</td><td><div></div></td></tr></table></div></td></tr><tr><td style="font-weight:bold;vertical-align:top;">session_data_ourhours</td><td style="vertical-align:top;">:</td><td><div>05830f87728553d3a2a865ba46689b49:yTLYGaSbzV4i3jeQ36ZzBpUq-xkcf0CQGZyBd97musGu5TTqKqdgxHySZLE8_SdzOCtP50xVppQBFOUrdt3zTTJ_E9LvFg_mgj7ykVhos6y5dMc2r79W1ljE50M7uZowEl1HGRzOtaMRoZ86hA3aHfWNudzoLSkkvIKUKOaBQMHGBqMUPmbQL4JSe4AXW5iMz5UwjjQG58YIVR78O5w8fRTMvcmNCPjYhNY8pDL_26HSww99znwM18BUvaD8RiC3wScLk0ISJSHhBVz2NHVzEeNx1khlTg64HgL5EwX6X3gIBmDKNeqDTkgL08qaKiCst_eYyhutb8j6dM72U0AEbQtR1O74UpbOvx4O2mIzmi5SAaUlW3cjUM7hiEt0Yj1iyXprIQXtFkTPCj08ePyQJ2A1XFQhddaIULE2o_a5evxo5sAmQRML0J3Ds2IhPi0eyK9gr1WQFGZA_C0RH-1I-zLXgPBuB5-vS3xqGUcVxP6j2YRhCrOglAKesThPz4xbXBoMpvtHaEj9x1PMF_5bmbbxcj-s9zwmEzBm78BP6NzEqAlA4mFG3qBpWHNgcCjpHpcsoXpzyV6hOI-sNOMarwRPeACSmR--6upEx-0HPDCyxfHiieN_Gvbh5KHm8TUCnr8vokIXDL9GvrRHfcBmVXyNe-NoJZEvcEEzYbeiFTWanw81bvOftgPE5eakmBIZ83_VjlEMeQXugjHeBXoqy9Ic4LWOUVnp6DrXI6XQ7b5wnDRXi7kDM164vf8l7kqlcFxK73NUHwi7TgScn9WYD1lfl5ODkpXx2Xov687yw0JOvoTR0WjiQKWcdz8uFb7COQr-CuD4OqzGfusekaTBDQ3S1WRa3_zmoUPuM_mMeWs4TtDbqxdaFaAhx7__BNHQH8fu1g5KoZnMGmLHoxRwbiKl8JPP8GuFGL_j9XFeug_9cvHvKhZ6bwgqe2ZM-gw7I-nAUi4aTxsWtZwAsxWJsD-CT1J5HDdK2iNlKkeuZKwHKYH7CDxklfvYhse3i6fDBUyQdm5ykLAEAMGRIUUTD6pmc_gvqf4QWMOeWMDVh0jdz5j1ciE5JfjOO0u1P8ndHPpCuhoh1_obffnhkH8xwhKj4_FpBRlez0nWP5vfTlwQjqRvjCqG4rNdLxate8VZVVGV3DLKFYslui8tXfjy3XnA2ot3G4RXV3KnceBUpzt767iUbQfN6TWv7LbwVNWaYxmKcY8f7e3Nn7xJMBpu76HpS4kbGMc-vMtuf8RK3oH5reOqZ50MNE8c67BkTJ6OrRDLy8VhT8o6rkUbKwBQoHZKkgtcHbFBZGY5iFNmTVUDD0fGcDmvtLVjbwd39PkU_8EJUQcu8Uej6WBHAnkaVL3HUp0F5YDbQSshqTEW13XMMUoqm876aoXqhm9qX0-wnKq0blAz3bVxO5UNzd_fkBsQ0EF4Pmnud-ws3PjkkYhuXiZiKOJ0akUDPUuiZF-aP7LT1MK1Yb9_tGIHmOwLO7W3nDXoQrgVzjK5Mi7cjDpBJwSpqMKrYV4XwDQFs7ow7OgIl9A9XxWkb-SSJqLQm8OQjaUnwvs3GUCMVZ0Jw7zQhnTP5rv_R9TjOPArZe8LkxNtWVk8HNJAzW66U7tyeWIQ0W3rA3uHY87tmFyS8ivJvqYnWx-bvubruPTcoGq7d6DygY2Ak_UYicV2VH4T-Hotz6veeMBsXsJnF0tdBXPVxQnCa_WygmKUQFJxS-_BtTB9vofYg-UKA9OI2BouePL8agYDgiekB9MjvvwVDFXCxliuOzw-Bcq5cEzay-x5A8vloewjLbSBfCwYyE1QJxwz6eg5EpBk_w-8kVuKA6JiLUF_X5nJr8FjrOc-TWqN45hKceYkj-olSxmopzqSsNLwFGllp9ac6r1r65u-G0EPFzP_n0JAwY11VHLEBe1ZI7qpChQL2rJCKiAMfpEojgllNJWve_ja501HMorn0HDgmLSmI1h6jmrg5PjVEwW3yEv8YUUjmDmez4Es5NtWd6bzYVnZxER3Iduu3bC_VydWjt5AsV4SgrzEgMQNlJ0Ow_pnugVgGAQM6nXgjhrtWm8YpvNah2uUYbWkeNjtS5f_jPzL2ejKcLVW1XzG7bCJeqL_HESQ7KWJAWcSBcA9gruOMt4ksm0CCp1yi5d4oBNRC4jVIFrOqv6ihfWvEpvHQDvNCXQm7vPax_RfQH-CIR4mCYL__vsu0aykcvS7Y00HnzigLqbB4aNF7onMbKMhY94aas59PRRLCbqtayw-iZXeqe_rENJkkRKFz2Du-IuRROGgtibc4AgnmVyGnpxyRrBBnuuUm3FNvshxtCl4fqNruz47JRvfU1ETS3RKHJEWPy3ZlgYaT57pJ4jAb3uxnIr-apvAlzhLK_1rvJGGwisF5ZGln1s0odqjKON6IOph7QY7YGn8oNaR7_VZwn0oYAT42_c7uzWFyaP_ekmEEjQSa-fi_8YOa3_jG7ex0cfjAFriUJDepBFKDHMFC-taI6DFE6e-MKSvdu7rw30mUxlxs9uED1MpIWwGld1PjhgzR4xMIP6a7GyCbcmqvNy1gTJMz6muPPmukXlSLZ0E08e76GrFrP7AVENe9S-YTdjtM2eDDLauf-UogW8zQNcIMXyVCo0S1iPG_7BFVxj8RRt6AP988mb8PsfMTXhUzh2ujDqdnuHZytUkhkE0lUtTiAHxW_JxqLGX1KeXtzCangnymgzpjbTB8uXim--K2tNL5JNDBd23OSFgajXOHSRidAmz6x79cpB15Czyl4ZUQbQw8LPhUxOqNOtc9i9Sy36sB_WwsyOgIYRuY5QIHnqeX4nICBeLrMjtcVg2u06U0VsZ9Q0GaecFi16jatCa2XsqnCtNqZfAMzWZ9voOybU6YCmRi6bod3Dmxuf-rZnZ6Fl1nI2_nBB8qiCstpR55Jl2GYaKwCC1qwiCWSOJabWbbUSct6fk1wGQpwyydiWXZ5aYyUTY4sNzQEM_IUgJrZkdQnwfCwkSJcMq3a9KXgS9iayIeTOlmgIB0v4g6FBPLx9-6kNJAuyz5QfOLiPdAuKLmGZA_x-I_531CcWTzohD3msAllBGQb50KkPd6g-wtI0B7Hb7o-aJEgZemTmG8fOFrDFL4lpKPghC0FvkPp9J4AxWBzWYTE_nDI4wM3yA0I2qIk-F7b8Ih9CkPELWNOuGz9-jln04prurVtj-Fkd2gXUBGmfeCLPr8OCV569yTEpxp4wZHdViEP8sctMqDiG637-KxnLJLyy1STdg-XjPk5XSKNtfJB9KkEntKNgf5ruaF0ww84TFKWIhOMBg0hPAlmYx101i6hWkxcvPwog79nEm3rzxaEqyK6OWpneTERSLF8FByzLliOZhLGu-TzGBMdDHFydDIbrSmnWccdL1UyjIE2A656mhkCZiR1N7gsLL95RDlu1yDXW3RsRqRTbmuJBWzvCHCZfFgWR9Z3x8U0Wk0cX430RU12SJTmju785nAcC9zvHdsYaWzyIN3AgopXPKDOdFetWtn-reJR-QB_KqYqGDxrNtS-stORDCC_sjNjcvaH5W8H451Lrr5UQHtyKTOjxfNYe-htTXbPQdjs0XewF04Sd3pczPinxdbQUVnYWkqY2i8hJpbs7MSNT5dxtCzDaT1hq6cwvNp0hoqVy_sZSlqJfaTNlGahv_wqEyBcS8pqaBrlxvRRMJ4YU=<table><tr><td style="font-weight:bold;vertical-align:top;">comment</td><td style="vertical-align:top;">:</td><td><div></div></td></tr><tr><td style="font-weight:bold;vertical-align:top;">domain</td><td style="vertical-align:top;">:</td><td><div></div></td></tr><tr><td style="font-weight:bold;vertical-align:top;">expires</td><td style="vertical-align:top;">:</td><td><div></div></td></tr><tr><td style="font-weight:bold;vertical-align:top;">httponly</td><td style="vertical-align:top;">:</td><td><div></div></td></tr><tr><td style="font-weight:bold;vertical-align:top;">max-age</td><td style="vertical-align:top;">:</td><td><div></div></td></tr><tr><td style="font-weight:bold;vertical-align:top;">path</td><td style="vertical-align:top;">:</td><td><div></div></td></tr><tr><td style="font-weight:bold;vertical-align:top;">secure</td><td style="vertical-align:top;">:</td><td><div></div></td></tr><tr><td style="font-weight:bold;vertical-align:top;">version</td><td style="vertical-align:top;">:</td><td><div></div></td></tr></table></div></td></tr><tr><td style="font-weight:bold;vertical-align:top;">session_id_admin</td><td style="vertical-align:top;">:</td><td><div>127.0.0.1-5e4d5587-8e46-4ab9-bda4-cde90ee24cff<table><tr><td style="font-weight:bold;vertical-align:top;">comment</td><td style="vertical-align:top;">:</td><td><div></div></td></tr><tr><td style="font-weight:bold;vertical-align:top;">domain</td><td style="vertical-align:top;">:</td><td><div></div></td></tr><tr><td style="font-weight:bold;vertical-align:top;">expires</td><td style="vertical-align:top;">:</td><td><div></div></td></tr><tr><td style="font-weight:bold;vertical-align:top;">httponly</td><td style="vertical-align:top;">:</td><td><div></div></td></tr><tr><td style="font-weight:bold;vertical-align:top;">max-age</td><td style="vertical-align:top;">:</td><td><div></div></td></tr><tr><td style="font-weight:bold;vertical-align:top;">path</td><td style="vertical-align:top;">:</td><td><div></div></td></tr><tr><td style="font-weight:bold;vertical-align:top;">secure</td><td style="vertical-align:top;">:</td><td><div></div></td></tr><tr><td style="font-weight:bold;vertical-align:top;">version</td><td style="vertical-align:top;">:</td><td><div></div></td></tr></table></div></td></tr><tr><td style="font-weight:bold;vertical-align:top;">session_id_hackathon</td><td style="vertical-align:top;">:</td><td><div>127.0.0.1-e9d19e57-2c82-4246-95e2-3afb87897355<table><tr><td style="font-weight:bold;vertical-align:top;">comment</td><td style="vertical-align:top;">:</td><td><div></div></td></tr><tr><td style="font-weight:bold;vertical-align:top;">domain</td><td style="vertical-align:top;">:</td><td><div></div></td></tr><tr><td style="font-weight:bold;vertical-align:top;">expires</td><td style="vertical-align:top;">:</td><td><div></div></td></tr><tr><td style="font-weight:bold;vertical-align:top;">httponly</td><td style="vertical-align:top;">:</td><td><div></div></td></tr><tr><td style="font-weight:bold;vertical-align:top;">max-age</td><td style="vertical-align:top;">:</td><td><div></div></td></tr><tr><td style="font-weight:bold;vertical-align:top;">path</td><td style="vertical-align:top;">:</td><td><div></div></td></tr><tr><td style="font-weight:bold;vertical-align:top;">secure</td><td style="vertical-align:top;">:</td><td><div></div></td></tr><tr><td style="font-weight:bold;vertical-align:top;">version</td><td style="vertical-align:top;">:</td><td><div></div></td></tr></table></div></td></tr><tr><td style="font-weight:bold;vertical-align:top;">session_id_hw</td><td style="vertical-align:top;">:</td><td><div>127.0.0.1-23223d0c-fdad-4421-b0fa-bfb22452a98b<table><tr><td style="font-weight:bold;vertical-align:top;">comment</td><td style="vertical-align:top;">:</td><td><div></div></td></tr><tr><td style="font-weight:bold;vertical-align:top;">domain</td><td style="vertical-align:top;">:</td><td><div></div></td></tr><tr><td style="font-weight:bold;vertical-align:top;">expires</td><td style="vertical-align:top;">:</td><td><div></div></td></tr><tr><td style="font-weight:bold;vertical-align:top;">httponly</td><td style="vertical-align:top;">:</td><td><div></div></td></tr><tr><td style="font-weight:bold;vertical-align:top;">max-age</td><td style="vertical-align:top;">:</td><td><div></div></td></tr><tr><td style="font-weight:bold;vertical-align:top;">path</td><td style="vertical-align:top;">:</td><td><div></div></td></tr><tr><td style="font-weight:bold;vertical-align:top;">secure</td><td style="vertical-align:top;">:</td><td><div></div></td></tr><tr><td style="font-weight:bold;vertical-align:top;">version</td><td style="vertical-align:top;">:</td><td><div></div></td></tr></table></div></td></tr><tr><td style="font-weight:bold;vertical-align:top;">session_id_layouttest</td><td style="vertical-align:top;">:</td><td><div>127.0.0.1-9dd550cb-7d25-4599-add6-bbf406414416<table><tr><td style="font-weight:bold;vertical-align:top;">comment</td><td style="vertical-align:top;">:</td><td><div></div></td></tr><tr><td style="font-weight:bold;vertical-align:top;">domain</td><td style="vertical-align:top;">:</td><td><div></div></td></tr><tr><td style="font-weight:bold;vertical-align:top;">expires</td><td style="vertical-align:top;">:</td><td><div></div></td></tr><tr><td style="font-weight:bold;vertical-align:top;">httponly</td><td style="vertical-align:top;">:</td><td><div></div></td></tr><tr><td style="font-weight:bold;vertical-align:top;">max-age</td><td style="vertical-align:top;">:</td><td><div></div></td></tr><tr><td style="font-weight:bold;vertical-align:top;">path</td><td style="vertical-align:top;">:</td><td><div></div></td></tr><tr><td style="font-weight:bold;vertical-align:top;">secure</td><td style="vertical-align:top;">:</td><td><div></div></td></tr><tr><td style="font-weight:bold;vertical-align:top;">version</td><td style="vertical-align:top;">:</td><td><div></div></td></tr></table></div></td></tr><tr><td style="font-weight:bold;vertical-align:top;">session_id_ourhours</td><td style="vertical-align:top;">:</td><td><div>True<table><tr><td style="font-weight:bold;vertical-align:top;">comment</td><td style="vertical-align:top;">:</td><td><div></div></td></tr><tr><td style="font-weight:bold;vertical-align:top;">domain</td><td style="vertical-align:top;">:</td><td><div></div></td></tr><tr><td style="font-weight:bold;vertical-align:top;">expires</td><td style="vertical-align:top;">:</td><td><div></div></td></tr><tr><td style="font-weight:bold;vertical-align:top;">httponly</td><td style="vertical-align:top;">:</td><td><div></div></td></tr><tr><td style="font-weight:bold;vertical-align:top;">max-age</td><td style="vertical-align:top;">:</td><td><div></div></td></tr><tr><td style="font-weight:bold;vertical-align:top;">path</td><td style="vertical-align:top;">:</td><td><div></div></td></tr><tr><td style="font-weight:bold;vertical-align:top;">secure</td><td style="vertical-align:top;">:</td><td><div></div></td></tr><tr><td style="font-weight:bold;vertical-align:top;">version</td><td style="vertical-align:top;">:</td><td><div></div></td></tr></table></div></td></tr><tr><td style="font-weight:bold;vertical-align:top;">session_id_welcome</td><td style="vertical-align:top;">:</td><td><div>127.0.0.1-3404b542-72e6-426d-9bd7-f225ed0f1803<table><tr><td style="font-weight:bold;vertical-align:top;">comment</td><td style="vertical-align:top;">:</td><td><div></div></td></tr><tr><td style="font-weight:bold;vertical-align:top;">domain</td><td style="vertical-align:top;">:</td><td><div></div></td></tr><tr><td style="font-weight:bold;vertical-align:top;">expires</td><td style="vertical-align:top;">:</td><td><div></div></td></tr><tr><td style="font-weight:bold;vertical-align:top;">httponly</td><td style="vertical-align:top;">:</td><td><div></div></td></tr><tr><td style="font-weight:bold;vertical-align:top;">max-age</td><td style="vertical-align:top;">:</td><td><div></div></td></tr><tr><td style="font-weight:bold;vertical-align:top;">path</td><td style="vertical-align:top;">:</td><td><div></div></td></tr><tr><td style="font-weight:bold;vertical-align:top;">secure</td><td style="vertical-align:top;">:</td><td><div></div></td></tr><tr><td style="font-weight:bold;vertical-align:top;">version</td><td style="vertical-align:top;">:</td><td><div></div></td></tr></table></div></td></tr></table></div></td></tr><tr><td style="font-weight:bold;vertical-align:top;">env</td><td style="vertical-align:top;">:</td><td><div><table><tr><td style="font-weight:bold;vertical-align:top;">HTTP_ACCEPT</td><td style="vertical-align:top;">:</td><td><div>text/html,application/xhtml+xml,application/xml;q=0.9,image/webp,*/*;q=0.8</div></td></tr><tr><td style="font-weight:bold;vertical-align:top;">HTTP_ACCEPT_ENCODING</td><td style="vertical-align:top;">:</td><td><div>gzip, deflate, sdch, br</div></td></tr><tr><td style="font-weight:bold;vertical-align:top;">HTTP_ACCEPT_LANGUAGE</td><td style="vertical-align:top;">:</td><td><div>en-US,en;q=0.8</div></td></tr><tr><td style="font-weight:bold;vertical-align:top;">HTTP_CACHE_CONTROL</td><td style="vertical-align:top;">:</td><td><div>max-age=0</div></td></tr><tr><td style="font-weight:bold;vertical-align:top;">HTTP_CONNECTION</td><td style="vertical-align:top;">:</td><td><div>keep-alive</div></td></tr><tr><td style="font-weight:bold;vertical-align:top;">HTTP_COOKIE</td><td style="vertical-align:top;">:</td><td><div>session_id_layouttest=127.0.0.1-9dd550cb-7d25-4599-add6-bbf406414416; resolution=1349; session_id_hackathon=127.0.0.1-e9d19e57-2c82-4246-95e2-3afb87897355; session_id_hw=127.0.0.1-23223d0c-fdad-4421-b0fa-bfb22452a98b; session_id_welcome=127.0.0.1-3404b542-72e6-426d-9bd7-f225ed0f1803; session_id_admin=127.0.0.1-5e4d5587-8e46-4ab9-bda4-cde90ee24cff; session_data_ourhours=&quot;05830f87728553d3a2a865ba46689b49:yTLYGaSbzV4i3jeQ36ZzBpUq-xkcf0CQGZyBd97musGu5TTqKqdgxHySZLE8_SdzOCtP50xVppQBFOUrdt3zTTJ_E9LvFg_mgj7ykVhos6y5dMc2r79W1ljE50M7uZowEl1HGRzOtaMRoZ86hA3aHfWNudzoLSkkvIKUKOaBQMHGBqMUPmbQL4JSe4AXW5iMz5UwjjQG58YIVR78O5w8fRTMvcmNCPjYhNY8pDL_26HSww99znwM18BUvaD8RiC3wScLk0ISJSHhBVz2NHVzEeNx1khlTg64HgL5EwX6X3gIBmDKNeqDTkgL08qaKiCst_eYyhutb8j6dM72U0AEbQtR1O74UpbOvx4O2mIzmi5SAaUlW3cjUM7hiEt0Yj1iyXprIQXtFkTPCj08ePyQJ2A1XFQhddaIULE2o_a5evxo5sAmQRML0J3Ds2IhPi0eyK9gr1WQFGZA_C0RH-1I-zLXgPBuB5-vS3xqGUcVxP6j2YRhCrOglAKesThPz4xbXBoMpvtHaEj9x1PMF_5bmbbxcj-s9zwmEzBm78BP6NzEqAlA4mFG3qBpWHNgcCjpHpcsoXpzyV6hOI-sNOMarwRPeACSmR--6upEx-0HPDCyxfHiieN_Gvbh5KHm8TUCnr8vokIXDL9GvrRHfcBmVXyNe-NoJZEvcEEzYbeiFTWanw81bvOftgPE5eakmBIZ83_VjlEMeQXugjHeBXoqy9Ic4LWOUVnp6DrXI6XQ7b5wnDRXi7kDM164vf8l7kqlcFxK73NUHwi7TgScn9WYD1lfl5ODkpXx2Xov687yw0JOvoTR0WjiQKWcdz8uFb7COQr-CuD4OqzGfusekaTBDQ3S1WRa3_zmoUPuM_mMeWs4TtDbqxdaFaAhx7__BNHQH8fu1g5KoZnMGmLHoxRwbiKl8JPP8GuFGL_j9XFeug_9cvHvKhZ6bwgqe2ZM-gw7I-nAUi4aTxsWtZwAsxWJsD-CT1J5HDdK2iNlKkeuZKwHKYH7CDxklfvYhse3i6fDBUyQdm5ykLAEAMGRIUUTD6pmc_gvqf4QWMOeWMDVh0jdz5j1ciE5JfjOO0u1P8ndHPpCuhoh1_obffnhkH8xwhKj4_FpBRlez0nWP5vfTlwQjqRvjCqG4rNdLxate8VZVVGV3DLKFYslui8tXfjy3XnA2ot3G4RXV3KnceBUpzt767iUbQfN6TWv7LbwVNWaYxmKcY8f7e3Nn7xJMBpu76HpS4kbGMc-vMtuf8RK3oH5reOqZ50MNE8c67BkTJ6OrRDLy8VhT8o6rkUbKwBQoHZKkgtcHbFBZGY5iFNmTVUDD0fGcDmvtLVjbwd39PkU_8EJUQcu8Uej6WBHAnkaVL3HUp0F5YDbQSshqTEW13XMMUoqm876aoXqhm9qX0-wnKq0blAz3bVxO5UNzd_fkBsQ0EF4Pmnud-ws3PjkkYhuXiZiKOJ0akUDPUuiZF-aP7LT1MK1Yb9_tGIHmOwLO7W3nDXoQrgVzjK5Mi7cjDpBJwSpqMKrYV4XwDQFs7ow7OgIl9A9XxWkb-SSJqLQm8OQjaUnwvs3GUCMVZ0Jw7zQhnTP5rv_R9TjOPArZe8LkxNtWVk8HNJAzW66U7tyeWIQ0W3rA3uHY87tmFyS8ivJvqYnWx-bvubruPTcoGq7d6DygY2Ak_UYicV2VH4T-Hotz6veeMBsXsJnF0tdBXPVxQnCa_WygmKUQFJxS-_BtTB9vofYg-UKA9OI2BouePL8agYDgiekB9MjvvwVDFXCxliuOzw-Bcq5cEzay-x5A8vloewjLbSBfCwYyE1QJxwz6eg5EpBk_w-8kVuKA6JiLUF_X5nJr8FjrOc-TWqN45hKceYkj-olSxmopzqSsNLwFGllp9ac6r1r65u-G0EPFzP_n0JAwY11VHLEBe1ZI7qpChQL2rJCKiAMfpEojgllNJWve_ja501HMorn0HDgmLSmI1h6jmrg5PjVEwW3yEv8YUUjmDmez4Es5NtWd6bzYVnZxER3Iduu3bC_VydWjt5AsV4SgrzEgMQNlJ0Ow_pnugVgGAQM6nXgjhrtWm8YpvNah2uUYbWkeNjtS5f_jPzL2ejKcLVW1XzG7bCJeqL_HESQ7KWJAWcSBcA9gruOMt4ksm0CCp1yi5d4oBNRC4jVIFrOqv6ihfWvEpvHQDvNCXQm7vPax_RfQH-CIR4mCYL__vsu0aykcvS7Y00HnzigLqbB4aNF7onMbKMhY94aas59PRRLCbqtayw-iZXeqe_rENJkkRKFz2Du-IuRROGgtibc4AgnmVyGnpxyRrBBnuuUm3FNvshxtCl4fqNruz47JRvfU1ETS3RKHJEWPy3ZlgYaT57pJ4jAb3uxnIr-apvAlzhLK_1rvJGGwisF5ZGln1s0odqjKON6IOph7QY7YGn8oNaR7_VZwn0oYAT42_c7uzWFyaP_ekmEEjQSa-fi_8YOa3_jG7ex0cfjAFriUJDepBFKDHMFC-taI6DFE6e-MKSvdu7rw30mUxlxs9uED1MpIWwGld1PjhgzR4xMIP6a7GyCbcmqvNy1gTJMz6muPPmukXlSLZ0E08e76GrFrP7AVENe9S-YTdjtM2eDDLauf-UogW8zQNcIMXyVCo0S1iPG_7BFVxj8RRt6AP988mb8PsfMTXhUzh2ujDqdnuHZytUkhkE0lUtTiAHxW_JxqLGX1KeXtzCangnymgzpjbTB8uXim--K2tNL5JNDBd23OSFgajXOHSRidAmz6x79cpB15Czyl4ZUQbQw8LPhUxOqNOtc9i9Sy36sB_WwsyOgIYRuY5QIHnqeX4nICBeLrMjtcVg2u06U0VsZ9Q0GaecFi16jatCa2XsqnCtNqZfAMzWZ9voOybU6YCmRi6bod3Dmxuf-rZnZ6Fl1nI2_nBB8qiCstpR55Jl2GYaKwCC1qwiCWSOJabWbbUSct6fk1wGQpwyydiWXZ5aYyUTY4sNzQEM_IUgJrZkdQnwfCwkSJcMq3a9KXgS9iayIeTOlmgIB0v4g6FBPLx9-6kNJAuyz5QfOLiPdAuKLmGZA_x-I_531CcWTzohD3msAllBGQb50KkPd6g-wtI0B7Hb7o-aJEgZemTmG8fOFrDFL4lpKPghC0FvkPp9J4AxWBzWYTE_nDI4wM3yA0I2qIk-F7b8Ih9CkPELWNOuGz9-jln04prurVtj-Fkd2gXUBGmfeCLPr8OCV569yTEpxp4wZHdViEP8sctMqDiG637-KxnLJLyy1STdg-XjPk5XSKNtfJB9KkEntKNgf5ruaF0ww84TFKWIhOMBg0hPAlmYx101i6hWkxcvPwog79nEm3rzxaEqyK6OWpneTERSLF8FByzLliOZhLGu-TzGBMdDHFydDIbrSmnWccdL1UyjIE2A656mhkCZiR1N7gsLL95RDlu1yDXW3RsRqRTbmuJBWzvCHCZfFgWR9Z3x8U0Wk0cX430RU12SJTmju785nAcC9zvHdsYaWzyIN3AgopXPKDOdFetWtn-reJR-QB_KqYqGDxrNtS-stORDCC_sjNjcvaH5W8H451Lrr5UQHtyKTOjxfNYe-htTXbPQdjs0XewF04Sd3pczPinxdbQUVnYWkqY2i8hJpbs7MSNT5dxtCzDaT1hq6cwvNp0hoqVy_sZSlqJfaTNlGahv_wqEyBcS8pqaBrlxvRRMJ4YU=&quot;; session_id_ourhours=True</div></td></tr><tr><td style="font-weight:bold;vertical-align:top;">HTTP_HOST</td><td style="vertical-align:top;">:</td><td><div>127.0.0.1:8000</div></td></tr><tr><td style="font-weight:bold;vertical-align:top;">HTTP_REFERER</td><td style="vertical-align:top;">:</td><td><div>http://127.0.0.1:8000/ourhours/default/index</div></td></tr><tr><td style="font-weight:bold;vertical-align:top;">HTTP_UPGRADE_INSECURE_REQUESTS</td><td style="vertical-align:top;">:</td><td><div>1</div></td></tr><tr><td style="font-weight:bold;vertical-align:top;">HTTP_USER_AGENT</td><td style="vertical-align:top;">:</td><td><div>Mozilla/5.0 (Windows NT 10.0; Win64; x64) AppleWebKit/537.36 (KHTML, like Gecko) Chrome/55.0.2883.87 Safari/537.36</div></td></tr><tr><td style="font-weight:bold;vertical-align:top;">PATH_INFO</td><td style="vertical-align:top;">:</td><td><div>/ourhours/default/index</div></td></tr><tr><td style="font-weight:bold;vertical-align:top;">QUERY_STRING</td><td style="vertical-align:top;">:</td><td><div></div></td></tr><tr><td style="font-weight:bold;vertical-align:top;">REMOTE_ADDR</td><td style="vertical-align:top;">:</td><td><div>127.0.0.1</div></td></tr><tr><td style="font-weight:bold;vertical-align:top;">REMOTE_PORT</td><td style="vertical-align:top;">:</td><td><div>58235</div></td></tr><tr><td style="font-weight:bold;vertical-align:top;">REQUEST_METHOD</td><td style="vertical-align:top;">:</td><td><div>GET</div></td></tr><tr><td style="font-weight:bold;vertical-align:top;">SCRIPT_NAME</td><td style="vertical-align:top;">:</td><td><div></div></td></tr><tr><td style="font-weight:bold;vertical-align:top;">SERVER_NAME</td><td style="vertical-align:top;">:</td><td><div>DESKTOP-GDD7DCK</div></td></tr><tr><td style="font-weight:bold;vertical-align:top;">SERVER_PORT</td><td style="vertical-align:top;">:</td><td><div>8000</div></td></tr><tr><td style="font-weight:bold;vertical-align:top;">SERVER_PROTOCOL</td><td style="vertical-align:top;">:</td><td><div>HTTP/1.1</div></td></tr><tr><td style="font-weight:bold;vertical-align:top;">SERVER_SOFTWARE</td><td style="vertical-align:top;">:</td><td><div>Rocket 1.2.6</div></td></tr><tr><td style="font-weight:bold;vertical-align:top;">app_folders</td><td style="vertical-align:top;">:</td><td><div>set([&#x27;C:\\\\Users\\\\Wesly\\\\Desktop\\\\UCSC-Hack-2017\\\\applications\\\\welcome\\\\&#x27;, &#x27;C:\\\\Users\\\\Wesly\\\\Desktop\\\\UCSC-Hack-2017\\\\applications\\\\examples\\\\&#x27;, &#x27;C:\\\\Users\\\\Wesly\\\\Desktop\\\\UCSC-Hack-2017\\\\applications\\\\ourhours\\\\&#x27;, &#x27;C:\\\\Users\\\\Wesly\\\\Desktop\\\\UCSC-Hack-2017\\\\applications\\\\admin\\\\&#x27;])</div></td></tr><tr><td style="font-weight:bold;vertical-align:top;">applications_parent</td><td style="vertical-align:top;">:</td><td><div>C:\\Users\\Wesly\\Desktop\\UCSC-Hack-2017</div></td></tr><tr><td style="font-weight:bold;vertical-align:top;">cmd_args</td><td style="vertical-align:top;">:</td><td><div><table></table></div></td></tr><tr><td style="font-weight:bold;vertical-align:top;">cmd_options</td><td style="vertical-align:top;">:</td><td><div>&lt;Values at 0x2ddaeb8: {&#x27;verbose&#x27;: False, &#x27;ip&#x27;: &#x27;127.0.0.1&#x27;, &#x27;debuglevel&#x27;: 30, &#x27;with_scheduler&#x27;: False, &#x27;shutdown_timeout&#x27;: 5, &#x27;taskbar&#x27;: False, &#x27;with_coverage&#x27;: False, &#x27;pid_filename&#x27;: &#x27;httpserver.pid&#x27;, &#x27;maxthreads&#x27;: None, &#x27;softcron&#x27;: False, &#x27;server_name&#x27;: &#x27;DESKTOP-GDD7DCK&#x27;, &#x27;bpython&#x27;: False, &#x27;nogui&#x27;: False, &#x27;port&#x27;: 8000, &#x27;print_errors&#x27;: False, &#x27;extcron&#x27;: False, &#x27;runcron&#x27;: False, &#x27;run_system_tests&#x27;: False, &#x27;test&#x27;: None, &#x27;folder&#x27;: &#x27;C:\\\\Users\\\\Wesly\\\\Desktop\\\\UCSC-Hack-2017&#x27;, &#x27;config&#x27;: &#x27;&#x27;, &#x27;minthreads&#x27;: None, &#x27;shell&#x27;: None, &#x27;run&#x27;: &#x27;&#x27;, &#x27;log_filename&#x27;: &#x27;httpserver.log&#x27;, &#x27;profiler_dir&#x27;: None, &#x27;args&#x27;: [&#x27;&#x27;], &#x27;socket_timeout&#x27;: 5, &#x27;ssl_ca_certificate&#x27;: None, &#x27;scheduler&#x27;: None, &#x27;interfaces&#x27;: None, &#x27;ssl_private_key&#x27;: &#x27;&#x27;, &#x27;gae&#x27;: None, &#x27;password&#x27;: &#x27;******&#x27;, &#x27;request_queue_size&#x27;: 5, &#x27;ssl_certificate&#x27;: &#x27;&#x27;, &#x27;cronjob&#x27;: False, &#x27;numthreads&#x27;: None, &#x27;quiet&#x27;: False, &#x27;import_models&#x27;: False, &#x27;timeout&#x27;: 10, &#x27;plain&#x27;: False, &#x27;nobanner&#x27;: False}&gt;</div></td></tr><tr><td style="font-weight:bold;vertical-align:top;">db_sessions</td><td style="vertical-align:top;">:</td><td><div>set([])</div></td></tr><tr><td style="font-weight:bold;vertical-align:top;">debugging</td><td style="vertical-align:top;">:</td><td><div>True</div></td></tr><tr><td style="font-weight:bold;vertical-align:top;">gluon_parent</td><td style="vertical-align:top;">:</td><td><div>C:\\Users\\Wesly\\Desktop\\UCSC-Hack-2017</div></td></tr><tr><td style="font-weight:bold;vertical-align:top;">http_accept</td><td style="vertical-align:top;">:</td><td><div>text/html,application/xhtml+xml,application/xml;q=0.9,image/webp,*/*;q=0.8</div></td></tr><tr><td style="font-weight:bold;vertical-align:top;">http_accept_encoding</td><td style="vertical-align:top;">:</td><td><div>gzip, deflate, sdch, br</div></td></tr><tr><td style="font-weight:bold;vertical-align:top;">http_accept_language</td><td style="vertical-align:top;">:</td><td><div>en-US,en;q=0.8</div></td></tr><tr><td style="font-weight:bold;vertical-align:top;">http_cache_control</td><td style="vertical-align:top;">:</td><td><div>max-age=0</div></td></tr><tr><td style="font-weight:bold;vertical-align:top;">http_connection</td><td style="vertical-align:top;">:</td><td><div>keep-alive</div></td></tr><tr><td style="font-weight:bold;vertical-align:top;">http_cookie</td><td style="vertical-align:top;">:</td><td><div>session_id_layouttest=127.0.0.1-9dd550cb-7d25-4599-add6-bbf406414416; resolution=1349; session_id_hackathon=127.0.0.1-e9d19e57-2c82-4246-95e2-3afb87897355; session_id_hw=127.0.0.1-23223d0c-fdad-4421-b0fa-bfb22452a98b; session_id_welcome=127.0.0.1-3404b542-72e6-426d-9bd7-f225ed0f1803; session_id_admin=127.0.0.1-5e4d5587-8e46-4ab9-bda4-cde90ee24cff; session_data_ourhours=&quot;05830f87728553d3a2a865ba46689b49:yTLYGaSbzV4i3jeQ36ZzBpUq-xkcf0CQGZyBd97musGu5TTqKqdgxHySZLE8_SdzOCtP50xVppQBFOUrdt3zTTJ_E9LvFg_mgj7ykVhos6y5dMc2r79W1ljE50M7uZowEl1HGRzOtaMRoZ86hA3aHfWNudzoLSkkvIKUKOaBQMHGBqMUPmbQL4JSe4AXW5iMz5UwjjQG58YIVR78O5w8fRTMvcmNCPjYhNY8pDL_26HSww99znwM18BUvaD8RiC3wScLk0ISJSHhBVz2NHVzEeNx1khlTg64HgL5EwX6X3gIBmDKNeqDTkgL08qaKiCst_eYyhutb8j6dM72U0AEbQtR1O74UpbOvx4O2mIzmi5SAaUlW3cjUM7hiEt0Yj1iyXprIQXtFkTPCj08ePyQJ2A1XFQhddaIULE2o_a5evxo5sAmQRML0J3Ds2IhPi0eyK9gr1WQFGZA_C0RH-1I-zLXgPBuB5-vS3xqGUcVxP6j2YRhCrOglAKesThPz4xbXBoMpvtHaEj9x1PMF_5bmbbxcj-s9zwmEzBm78BP6NzEqAlA4mFG3qBpWHNgcCjpHpcsoXpzyV6hOI-sNOMarwRPeACSmR--6upEx-0HPDCyxfHiieN_Gvbh5KHm8TUCnr8vokIXDL9GvrRHfcBmVXyNe-NoJZEvcEEzYbeiFTWanw81bvOftgPE5eakmBIZ83_VjlEMeQXugjHeBXoqy9Ic4LWOUVnp6DrXI6XQ7b5wnDRXi7kDM164vf8l7kqlcFxK73NUHwi7TgScn9WYD1lfl5ODkpXx2Xov687yw0JOvoTR0WjiQKWcdz8uFb7COQr-CuD4OqzGfusekaTBDQ3S1WRa3_zmoUPuM_mMeWs4TtDbqxdaFaAhx7__BNHQH8fu1g5KoZnMGmLHoxRwbiKl8JPP8GuFGL_j9XFeug_9cvHvKhZ6bwgqe2ZM-gw7I-nAUi4aTxsWtZwAsxWJsD-CT1J5HDdK2iNlKkeuZKwHKYH7CDxklfvYhse3i6fDBUyQdm5ykLAEAMGRIUUTD6pmc_gvqf4QWMOeWMDVh0jdz5j1ciE5JfjOO0u1P8ndHPpCuhoh1_obffnhkH8xwhKj4_FpBRlez0nWP5vfTlwQjqRvjCqG4rNdLxate8VZVVGV3DLKFYslui8tXfjy3XnA2ot3G4RXV3KnceBUpzt767iUbQfN6TWv7LbwVNWaYxmKcY8f7e3Nn7xJMBpu76HpS4kbGMc-vMtuf8RK3oH5reOqZ50MNE8c67BkTJ6OrRDLy8VhT8o6rkUbKwBQoHZKkgtcHbFBZGY5iFNmTVUDD0fGcDmvtLVjbwd39PkU_8EJUQcu8Uej6WBHAnkaVL3HUp0F5YDbQSshqTEW13XMMUoqm876aoXqhm9qX0-wnKq0blAz3bVxO5UNzd_fkBsQ0EF4Pmnud-ws3PjkkYhuXiZiKOJ0akUDPUuiZF-aP7LT1MK1Yb9_tGIHmOwLO7W3nDXoQrgVzjK5Mi7cjDpBJwSpqMKrYV4XwDQFs7ow7OgIl9A9XxWkb-SSJqLQm8OQjaUnwvs3GUCMVZ0Jw7zQhnTP5rv_R9TjOPArZe8LkxNtWVk8HNJAzW66U7tyeWIQ0W3rA3uHY87tmFyS8ivJvqYnWx-bvubruPTcoGq7d6DygY2Ak_UYicV2VH4T-Hotz6veeMBsXsJnF0tdBXPVxQnCa_WygmKUQFJxS-_BtTB9vofYg-UKA9OI2BouePL8agYDgiekB9MjvvwVDFXCxliuOzw-Bcq5cEzay-x5A8vloewjLbSBfCwYyE1QJxwz6eg5EpBk_w-8kVuKA6JiLUF_X5nJr8FjrOc-TWqN45hKceYkj-olSxmopzqSsNLwFGllp9ac6r1r65u-G0EPFzP_n0JAwY11VHLEBe1ZI7qpChQL2rJCKiAMfpEojgllNJWve_ja501HMorn0HDgmLSmI1h6jmrg5PjVEwW3yEv8YUUjmDmez4Es5NtWd6bzYVnZxER3Iduu3bC_VydWjt5AsV4SgrzEgMQNlJ0Ow_pnugVgGAQM6nXgjhrtWm8YpvNah2uUYbWkeNjtS5f_jPzL2ejKcLVW1XzG7bCJeqL_HESQ7KWJAWcSBcA9gruOMt4ksm0CCp1yi5d4oBNRC4jVIFrOqv6ihfWvEpvHQDvNCXQm7vPax_RfQH-CIR4mCYL__vsu0aykcvS7Y00HnzigLqbB4aNF7onMbKMhY94aas59PRRLCbqtayw-iZXeqe_rENJkkRKFz2Du-IuRROGgtibc4AgnmVyGnpxyRrBBnuuUm3FNvshxtCl4fqNruz47JRvfU1ETS3RKHJEWPy3ZlgYaT57pJ4jAb3uxnIr-apvAlzhLK_1rvJGGwisF5ZGln1s0odqjKON6IOph7QY7YGn8oNaR7_VZwn0oYAT42_c7uzWFyaP_ekmEEjQSa-fi_8YOa3_jG7ex0cfjAFriUJDepBFKDHMFC-taI6DFE6e-MKSvdu7rw30mUxlxs9uED1MpIWwGld1PjhgzR4xMIP6a7GyCbcmqvNy1gTJMz6muPPmukXlSLZ0E08e76GrFrP7AVENe9S-YTdjtM2eDDLauf-UogW8zQNcIMXyVCo0S1iPG_7BFVxj8RRt6AP988mb8PsfMTXhUzh2ujDqdnuHZytUkhkE0lUtTiAHxW_JxqLGX1KeXtzCangnymgzpjbTB8uXim--K2tNL5JNDBd23OSFgajXOHSRidAmz6x79cpB15Czyl4ZUQbQw8LPhUxOqNOtc9i9Sy36sB_WwsyOgIYRuY5QIHnqeX4nICBeLrMjtcVg2u06U0VsZ9Q0GaecFi16jatCa2XsqnCtNqZfAMzWZ9voOybU6YCmRi6bod3Dmxuf-rZnZ6Fl1nI2_nBB8qiCstpR55Jl2GYaKwCC1qwiCWSOJabWbbUSct6fk1wGQpwyydiWXZ5aYyUTY4sNzQEM_IUgJrZkdQnwfCwkSJcMq3a9KXgS9iayIeTOlmgIB0v4g6FBPLx9-6kNJAuyz5QfOLiPdAuKLmGZA_x-I_531CcWTzohD3msAllBGQb50KkPd6g-wtI0B7Hb7o-aJEgZemTmG8fOFrDFL4lpKPghC0FvkPp9J4AxWBzWYTE_nDI4wM3yA0I2qIk-F7b8Ih9CkPELWNOuGz9-jln04prurVtj-Fkd2gXUBGmfeCLPr8OCV569yTEpxp4wZHdViEP8sctMqDiG637-KxnLJLyy1STdg-XjPk5XSKNtfJB9KkEntKNgf5ruaF0ww84TFKWIhOMBg0hPAlmYx101i6hWkxcvPwog79nEm3rzxaEqyK6OWpneTERSLF8FByzLliOZhLGu-TzGBMdDHFydDIbrSmnWccdL1UyjIE2A656mhkCZiR1N7gsLL95RDlu1yDXW3RsRqRTbmuJBWzvCHCZfFgWR9Z3x8U0Wk0cX430RU12SJTmju785nAcC9zvHdsYaWzyIN3AgopXPKDOdFetWtn-reJR-QB_KqYqGDxrNtS-stORDCC_sjNjcvaH5W8H451Lrr5UQHtyKTOjxfNYe-htTXbPQdjs0XewF04Sd3pczPinxdbQUVnYWkqY2i8hJpbs7MSNT5dxtCzDaT1hq6cwvNp0hoqVy_sZSlqJfaTNlGahv_wqEyBcS8pqaBrlxvRRMJ4YU=&quot;; session_id_ourhours=True</div></td></tr><tr><td style="font-weight:bold;vertical-align:top;">http_host</td><td style="vertical-align:top;">:</td><td><div>127.0.0.1:8000</div></td></tr><tr><td style="font-weight:bold;vertical-align:top;">http_referer</td><td style="vertical-align:top;">:</td><td><div>http://127.0.0.1:8000/ourhours/default/index</div></td></tr><tr><td style="font-weight:bold;vertical-align:top;">http_upgrade_insecure_requests</td><td style="vertical-align:top;">:</td><td><div>1</div></td></tr><tr><td style="font-weight:bold;vertical-align:top;">http_user_agent</td><td style="vertical-align:top;">:</td><td><div>Mozilla/5.0 (Windows NT 10.0; Win64; x64) AppleWebKit/537.36 (KHTML, like Gecko) Chrome/55.0.2883.87 Safari/537.36</div></td></tr><tr><td style="font-weight:bold;vertical-align:top;">is_jython</td><td style="vertical-align:top;">:</td><td><div>False</div></td></tr><tr><td style="font-weight:bold;vertical-align:top;">is_pypy</td><td style="vertical-align:top;">:</td><td><div>False</div></td></tr><tr><td style="font-weight:bold;vertical-align:top;">is_source</td><td style="vertical-align:top;">:</td><td><div>False</div></td></tr><tr><td style="font-weight:bold;vertical-align:top;">local_hosts</td><td style="vertical-align:top;">:</td><td><div><table><tr><td><div>fe80::81f2:e7ae:7efe:f1e7%23</div></td></tr><tr><td><div>DESKTOP-GDD7DCK</div></td></tr><tr><td><div>::ffff:127.0.0.1</div></td></tr><tr><td><div>::1</div></td></tr><tr><td><div>fe80::5efe:192.168.1.135%21</div></td></tr><tr><td><div>192.168.1.135</div></td></tr><tr><td><div>fe80::e941:c1cf:aca3:e27d%22</div></td></tr><tr><td><div>127.0.0.1</div></td></tr><tr><td><div>192.168.56.1</div></td></tr></table></div></td></tr><tr><td style="font-weight:bold;vertical-align:top;">path_info</td><td style="vertical-align:top;">:</td><td><div>/ourhours/default/index</div></td></tr><tr><td style="font-weight:bold;vertical-align:top;">query_string</td><td style="vertical-align:top;">:</td><td><div></div></td></tr><tr><td style="font-weight:bold;vertical-align:top;">remote_addr</td><td style="vertical-align:top;">:</td><td><div>127.0.0.1</div></td></tr><tr><td style="font-weight:bold;vertical-align:top;">remote_port</td><td style="vertical-align:top;">:</td><td><div>58235</div></td></tr><tr><td style="font-weight:bold;vertical-align:top;">request_method</td><td style="vertical-align:top;">:</td><td><div>GET</div></td></tr><tr><td style="font-weight:bold;vertical-align:top;">request_uri</td><td style="vertical-align:top;">:</td><td><div>/ourhours/default/index</div></td></tr><tr><td style="font-weight:bold;vertical-align:top;">script_name</td><td style="vertical-align:top;">:</td><td><div></div></td></tr><tr><td style="font-weight:bold;vertical-align:top;">server_name</td><td style="vertical-align:top;">:</td><td><div>DESKTOP-GDD7DCK</div></td></tr><tr><td style="font-weight:bold;vertical-align:top;">server_port</td><td style="vertical-align:top;">:</td><td><div>8000</div></td></tr><tr><td style="font-weight:bold;vertical-align:top;">server_protocol</td><td style="vertical-align:top;">:</td><td><div>HTTP/1.1</div></td></tr><tr><td style="font-weight:bold;vertical-align:top;">server_software</td><td style="vertical-align:top;">:</td><td><div>Rocket 1.2.6</div></td></tr><tr><td style="font-weight:bold;vertical-align:top;">web2py_path</td><td style="vertical-align:top;">:</td><td><div>C:\\Users\\Wesly\\Desktop\\UCSC-Hack-2017</div></td></tr><tr><td style="font-weight:bold;vertical-align:top;">web2py_version</td><td style="vertical-align:top;">:</td><td><div>2.14.6-stable+timestamp.2016.05.10.00.21.47</div></td></tr><tr><td style="font-weight:bold;vertical-align:top;">wsgi.errors</td><td style="vertical-align:top;">:</td><td><div>&lt;open file &#x27;&lt;stderr&gt;&#x27;, mode &#x27;w&#x27; at 0x0221D0D0&gt;</div></td></tr><tr><td style="font-weight:bold;vertical-align:top;">wsgi.file_wrapper</td><td style="vertical-align:top;">:</td><td><div>&lt;class wsgiref.util.FileWrapper at 0x0321F148&gt;</div></td></tr><tr><td style="font-weight:bold;vertical-align:top;">wsgi.input</td><td style="vertical-align:top;">:</td><td><div>&lt;socket._fileobject object at 0x080661B0&gt;</div></td></tr><tr><td style="font-weight:bold;vertical-align:top;">wsgi.multiprocess</td><td style="vertical-align:top;">:</td><td><div>False</div></td></tr><tr><td style="font-weight:bold;vertical-align:top;">wsgi.multithread</td><td style="vertical-align:top;">:</td><td><div>True</div></td></tr><tr><td style="font-weight:bold;vertical-align:top;">wsgi.run_once</td><td style="vertical-align:top;">:</td><td><div>False</div></td></tr><tr><td style="font-weight:bold;vertical-align:top;">wsgi.url_scheme</td><td style="vertical-align:top;">:</td><td><div>http</div></td></tr><tr><td style="font-weight:bold;vertical-align:top;">wsgi.version</td><td style="vertical-align:top;">:</td><td><div><table><tr><td><div>1</div></td></tr><tr><td><div>0</div></td></tr></table></div></td></tr><tr><td style="font-weight:bold;vertical-align:top;">wsgi_errors</td><td style="vertical-align:top;">:</td><td><div>&lt;open file &#x27;&lt;stderr&gt;&#x27;, mode &#x27;w&#x27; at 0x0221D0D0&gt;</div></td></tr><tr><td style="font-weight:bold;vertical-align:top;">wsgi_file_wrapper</td><td style="vertical-align:top;">:</td><td><div>&lt;class wsgiref.util.FileWrapper at 0x0321F148&gt;</div></td></tr><tr><td style="font-weight:bold;vertical-align:top;">wsgi_input</td><td style="vertical-align:top;">:</td><td><div>&lt;socket._fileobject object at 0x080661B0&gt;</div></td></tr><tr><td style="font-weight:bold;vertical-align:top;">wsgi_multiprocess</td><td style="vertical-align:top;">:</td><td><div>False</div></td></tr><tr><td style="font-weight:bold;vertical-align:top;">wsgi_multithread</td><td style="vertical-align:top;">:</td><td><div>True</div></td></tr><tr><td style="font-weight:bold;vertical-align:top;">wsgi_run_once</td><td style="vertical-align:top;">:</td><td><div>False</div></td></tr><tr><td style="font-weight:bold;vertical-align:top;">wsgi_url_scheme</td><td style="vertical-align:top;">:</td><td><div>http</div></td></tr><tr><td style="font-weight:bold;vertical-align:top;">wsgi_version</td><td style="vertical-align:top;">:</td><td><div><table><tr><td><div>1</div></td></tr><tr><td><div>0</div></td></tr></table></div></td></tr></table></div></td></tr><tr><td style="font-weight:bold;vertical-align:top;">extension</td><td style="vertical-align:top;">:</td><td><div>html</div></td></tr><tr><td style="font-weight:bold;vertical-align:top;">folder</td><td style="vertical-align:top;">:</td><td><div>C:\\Users\\Wesly\\Desktop\\UCSC-Hack-2017\\applications\\ourhours\\</div></td></tr><tr><td style="font-weight:bold;vertical-align:top;">function</td><td style="vertical-align:top;">:</td><td><div>index</div></td></tr><tr><td style="font-weight:bold;vertical-align:top;">global_settings</td><td style="vertical-align:top;">:</td><td><div><table><tr><td style="font-weight:bold;vertical-align:top;">app_folders</td><td style="vertical-align:top;">:</td><td><div>set([&#x27;C:\\\\Users\\\\Wesly\\\\Desktop\\\\UCSC-Hack-2017\\\\applications\\\\welcome\\\\&#x27;, &#x27;C:\\\\Users\\\\Wesly\\\\Desktop\\\\UCSC-Hack-2017\\\\applications\\\\examples\\\\&#x27;, &#x27;C:\\\\Users\\\\Wesly\\\\Desktop\\\\UCSC-Hack-2017\\\\applications\\\\ourhours\\\\&#x27;, &#x27;C:\\\\Users\\\\Wesly\\\\Desktop\\\\UCSC-Hack-2017\\\\applications\\\\admin\\\\&#x27;])</div></td></tr><tr><td style="font-weight:bold;vertical-align:top;">applications_parent</td><td style="vertical-align:top;">:</td><td><div>C:\\Users\\Wesly\\Desktop\\UCSC-Hack-2017</div></td></tr><tr><td style="font-weight:bold;vertical-align:top;">cmd_args</td><td style="vertical-align:top;">:</td><td><div><table></table></div></td></tr><tr><td style="font-weight:bold;vertical-align:top;">cmd_options</td><td style="vertical-align:top;">:</td><td><div>&lt;Values at 0x2ddaeb8: {&#x27;verbose&#x27;: False, &#x27;ip&#x27;: &#x27;127.0.0.1&#x27;, &#x27;debuglevel&#x27;: 30, &#x27;with_scheduler&#x27;: False, &#x27;shutdown_timeout&#x27;: 5, &#x27;taskbar&#x27;: False, &#x27;with_coverage&#x27;: False, &#x27;pid_filename&#x27;: &#x27;httpserver.pid&#x27;, &#x27;maxthreads&#x27;: None, &#x27;softcron&#x27;: False, &#x27;server_name&#x27;: &#x27;DESKTOP-GDD7DCK&#x27;, &#x27;bpython&#x27;: False, &#x27;nogui&#x27;: False, &#x27;port&#x27;: 8000, &#x27;print_errors&#x27;: False, &#x27;extcron&#x27;: False, &#x27;runcron&#x27;: False, &#x27;run_system_tests&#x27;: False, &#x27;test&#x27;: None, &#x27;folder&#x27;: &#x27;C:\\\\Users\\\\Wesly\\\\Desktop\\\\UCSC-Hack-2017&#x27;, &#x27;config&#x27;: &#x27;&#x27;, &#x27;minthreads&#x27;: None, &#x27;shell&#x27;: None, &#x27;run&#x27;: &#x27;&#x27;, &#x27;log_filename&#x27;: &#x27;httpserver.log&#x27;, &#x27;profiler_dir&#x27;: None, &#x27;args&#x27;: [&#x27;&#x27;], &#x27;socket_timeout&#x27;: 5, &#x27;ssl_ca_certificate&#x27;: None, &#x27;scheduler&#x27;: None, &#x27;interfaces&#x27;: None, &#x27;ssl_private_key&#x27;: &#x27;&#x27;, &#x27;gae&#x27;: None, &#x27;password&#x27;: &#x27;******&#x27;, &#x27;request_queue_size&#x27;: 5, &#x27;ssl_certificate&#x27;: &#x27;&#x27;, &#x27;cronjob&#x27;: False, &#x27;numthreads&#x27;: None, &#x27;quiet&#x27;: False, &#x27;import_models&#x27;: False, &#x27;timeout&#x27;: 10, &#x27;plain&#x27;: False, &#x27;nobanner&#x27;: False}&gt;</div></td></tr><tr><td style="font-weight:bold;vertical-align:top;">db_sessions</td><td style="vertical-align:top;">:</td><td><div>set([])</div></td></tr><tr><td style="font-weight:bold;vertical-align:top;">debugging</td><td style="vertical-align:top;">:</td><td><div>True</div></td></tr><tr><td style="font-weight:bold;vertical-align:top;">gluon_parent</td><td style="vertical-align:top;">:</td><td><div>C:\\Users\\Wesly\\Desktop\\UCSC-Hack-2017</div></td></tr><tr><td style="font-weight:bold;vertical-align:top;">is_jython</td><td style="vertical-align:top;">:</td><td><div>False</div></td></tr><tr><td style="font-weight:bold;vertical-align:top;">is_pypy</td><td style="vertical-align:top;">:</td><td><div>False</div></td></tr><tr><td style="font-weight:bold;vertical-align:top;">is_source</td><td style="vertical-align:top;">:</td><td><div>False</div></td></tr><tr><td style="font-weight:bold;vertical-align:top;">local_hosts</td><td style="vertical-align:top;">:</td><td><div><table><tr><td><div>fe80::81f2:e7ae:7efe:f1e7%23</div></td></tr><tr><td><div>DESKTOP-GDD7DCK</div></td></tr><tr><td><div>::ffff:127.0.0.1</div></td></tr><tr><td><div>::1</div></td></tr><tr><td><div>fe80::5efe:192.168.1.135%21</div></td></tr><tr><td><div>192.168.1.135</div></td></tr><tr><td><div>fe80::e941:c1cf:aca3:e27d%22</div></td></tr><tr><td><div>127.0.0.1</div></td></tr><tr><td><div>192.168.56.1</div></td></tr></table></div></td></tr><tr><td style="font-weight:bold;vertical-align:top;">web2py_version</td><td style="vertical-align:top;">:</td><td><div>2.14.6-stable+timestamp.2016.05.10.00.21.47</div></td></tr></table></div></td></tr><tr><td style="font-weight:bold;vertical-align:top;">is_https</td><td style="vertical-align:top;">:</td><td><div>False</div></td></tr><tr><td style="font-weight:bold;vertical-align:top;">is_local</td><td style="vertical-align:top;">:</td><td><div>True</div></td></tr><tr><td style="font-weight:bold;vertical-align:top;">is_restful</td><td style="vertical-align:top;">:</td><td><div>False</div></td></tr><tr><td style="font-weight:bold;vertical-align:top;">is_scheduler</td><td style="vertical-align:top;">:</td><td><div>False</div></td></tr><tr><td style="font-weight:bold;vertical-align:top;">is_shell</td><td style="vertical-align:top;">:</td><td><div>False</div></td></tr><tr><td style="font-weight:bold;vertical-align:top;">now</td><td style="vertical-align:top;">:</td><td><div>datetime.datetime(2017, 1, 22, 0, 28, 14, 716000)</div></td></tr><tr><td style="font-weight:bold;vertical-align:top;">raw_args</td><td style="vertical-align:top;">:</td><td><div></div></td></tr><tr><td style="font-weight:bold;vertical-align:top;">raw_extension</td><td style="vertical-align:top;">:</td><td><div>None</div></td></tr><tr><td style="font-weight:bold;vertical-align:top;">url</td><td style="vertical-align:top;">:</td><td><div>/ourhours/default/index</div></td></tr><tr><td style="font-weight:bold;vertical-align:top;">utcnow</td><td style="vertical-align:top;">:</td><td><div>datetime.datetime(2017, 1, 22, 8, 28, 14, 716000)</div></td></tr><tr><td style="font-weight:bold;vertical-align:top;">wsgi</td><td style="vertical-align:top;">:</td><td><div>&lt;gluon.main.LazyWSGI object at 0x07CCB470&gt;</div></td></tr></table></div>'
tRp58
sS'frames'
p59
(lp60
(dp61
S'file'
p62
S'C:\\Users\\Wesly\\Desktop\\UCSC-Hack-2017\\gluon\\restricted.py'
p63
sS'dump'
p64
(dp65
S'environment'
p66
S"{'A': <class 'gluon.html.A'>, 'ANY_OF': <class 'gluon.validators.ANY_OF'>, 'ASSIGNJS': <function ASSIGNJS>, 'Auth': <class 'gluon.tools.Auth'>, 'B': <class 'gluon.html.B'>, 'BEAUTIFY': <class 'gluon.html.BEAUTIFY'>, 'BODY': <class 'gluon.html.BODY'>, 'BR': <class 'gluon.html.BR'>, 'BUTTON': <class 'gluon.html.BUTTON'>, 'CAT': <class 'gluon.html.CAT'>, ...}"
p67
sS'ccode'
p68
S'<code object <module> at 07F9A410, file "C:\\User...17\\applications\\ourhours\\models\\menu.py", line 7>'
p69
ssS'lnum'
p70
I227
sS'lines'
p71
(dp72
I224
S'            ccode = code'
p73
sI225
S'        else:'
p74
sI226
S'            ccode = compile2(code, layer)'
p75
sI227
S'        exec ccode in environment'
p76
sI228
S'    except HTTP:'
p77
sI229
S'        raise'
p78
sI230
S'    except RestrictedError:'
p79
sI231
S'        # do not encapsulate (obfuscate) the original RestrictedError'
p80
sI222
S'    try:'
p81
sI223
S'        if isinstance(code, types.CodeType):'
p82
ssS'call'
p83
S'(code="# -*- coding: utf-8 -*-\\n\\n#######################... return XML(jscript)\\n    else:\\n        return \'\'\\n", environment={\'A\': <class \'gluon.html.A\'>, \'ANY_OF\': <class \'gluon.validators.ANY_OF\'>, \'ASSIGNJS\': <function ASSIGNJS>, \'Auth\': <class \'gluon.tools.Auth\'>, \'B\': <class \'gluon.html.B\'>, \'BEAUTIFY\': <class \'gluon.html.BEAUTIFY\'>, \'BODY\': <class \'gluon.html.BODY\'>, \'BR\': <class \'gluon.html.BR\'>, \'BUTTON\': <class \'gluon.html.BUTTON\'>, \'CAT\': <class \'gluon.html.CAT\'>, ...}, layer=r\'C:\\Users\\Wesly\\Desktop\\UCSC-Hack-2017\\applications\\ourhours\\models\\menu.py\')'
p84
sS'func'
p85
S'restricted'
p86
sa(dp87
g62
S'C:\\Users\\Wesly\\Desktop\\UCSC-Hack-2017\\applications\\ourhours\\models\\menu.py'
p88
sg64
(dp89
S'IPython'
p90
S'undefined'
p91
sS'Image'
p92
g91
ssg70
I7
sg71
(dp93
I2
S''
sI3
S'#########################################################################'
p94
sI4
S'## Changes the menu active item'
p95
sI5
S'#########################################################################'
p96
sI6
S''
sI7
S'from IPython.display import Image'
p97
sI8
S'from IPython.core.display import HTML'
p98
sI9
S''
sI10
S'response.menu = ['
p99
sI11
S'    (T(Image(url= "https://scontent-sjc2-1.xx.fbcdn.net/v/t34.0-12/16176292_10207848801035069_1630875362_n.png?oh=18a417a915324017654e0e410ee151f1&oe=58871930")), False, URL(\'default\', \'index\'))'
p100
ssg83
S'()'
p101
sg85
S'<module>'
p102
sa(dp103
g62
S'C:\\Users\\Wesly\\Desktop\\UCSC-Hack-2017\\gluon\\custom_import.py'
p104
sg64
(dp105
S'fromlist'
p106
S"('Image',)"
p107
sS'level'
p108
S'-1'
p109
sS'base_importer'
p110
S'<built-in function __import__>'
p111
sS'globals'
p112
S"{'A': <class 'gluon.html.A'>, 'ANY_OF': <class 'gluon.validators.ANY_OF'>, 'ASSIGNJS': <function ASSIGNJS>, 'Auth': <class 'gluon.tools.Auth'>, 'B': <class 'gluon.html.B'>, 'BEAUTIFY': <class 'gluon.html.BEAUTIFY'>, 'BODY': <class 'gluon.html.BODY'>, 'BR': <class 'gluon.html.BR'>, 'BUTTON': <class 'gluon.html.BUTTON'>, 'CAT': <class 'gluon.html.CAT'>, ...}"
p113
sS'pname'
p114
S"'applications.ourhours.modules.IPython.display'"
p115
sS'locals'
p116
S"{'A': <class 'gluon.html.A'>, 'ANY_OF': <class 'gluon.validators.ANY_OF'>, 'ASSIGNJS': <function ASSIGNJS>, 'Auth': <class 'gluon.tools.Auth'>, 'B': <class 'gluon.html.B'>, 'BEAUTIFY': <class 'gluon.html.BEAUTIFY'>, 'BODY': <class 'gluon.html.BODY'>, 'BR': <class 'gluon.html.BR'>, 'BUTTON': <class 'gluon.html.BUTTON'>, 'CAT': <class 'gluon.html.CAT'>, ...}"
p117
ssg70
I95
sg71
(dp118
I96
S'        except ImportError, e1:'
p119
sI97
S'            import_tb = sys.exc_info()[2]'
p120
sI98
S'            try:'
p121
sI99
S'                return NATIVE_IMPORTER(name, globals, locals, fromlist, level)'
p122
sI90
S'                        modules_prefix += "." + itemname'
p123
sI91
S'                    return result'
p124
sI92
S'                else:'
p125
sI93
S'                    # import like "from x import a, b, ..."'
p126
sI94
S'                    pname = modules_prefix + "." + name'
p127
sI95
S'                    return base_importer(pname, globals, locals, fromlist, level)'
p128
ssg83
S"(name='IPython.display', globals={'A': <class 'gluon.html.A'>, 'ANY_OF': <class 'gluon.validators.ANY_OF'>, 'ASSIGNJS': <function ASSIGNJS>, 'Auth': <class 'gluon.tools.Auth'>, 'B': <class 'gluon.html.B'>, 'BEAUTIFY': <class 'gluon.html.BEAUTIFY'>, 'BODY': <class 'gluon.html.BODY'>, 'BR': <class 'gluon.html.BR'>, 'BUTTON': <class 'gluon.html.BUTTON'>, 'CAT': <class 'gluon.html.CAT'>, ...}, locals={'A': <class 'gluon.html.A'>, 'ANY_OF': <class 'gluon.validators.ANY_OF'>, 'ASSIGNJS': <function ASSIGNJS>, 'Auth': <class 'gluon.tools.Auth'>, 'B': <class 'gluon.html.B'>, 'BEAUTIFY': <class 'gluon.html.BEAUTIFY'>, 'BODY': <class 'gluon.html.BODY'>, 'BR': <class 'gluon.html.BR'>, 'BUTTON': <class 'gluon.html.BUTTON'>, 'CAT': <class 'gluon.html.CAT'>, ...}, fromlist=('Image',), level=-1)"
p129
sg85
S'custom_importer'
p130
sasS'pyver'
p131
S'Python 2.7.9: C:\\Users\\Wesly\\Desktop\\UCSC-Hack-2017\\web2py.exe (prefix: )'
p132
sS'session'
p133
g57
(S's\x1a\x00\x00\x00<div><table></table></div>'
tRp134
sS'etype'
p135
S"<type 'exceptions.ImportError'>"
p136
sS'date'
p137
S'Sun Jan 22 00:28:15 2017'
p138
sS'response'
p139
g57
(S's<\x16\x00\x00<div><table><tr><td style="font-weight:bold;vertical-align:top;">body</td><td style="vertical-align:top;">:</td><td><div>&lt;cStringIO.StringO object at 0x07CCBFE0&gt;</div></td></tr><tr><td style="font-weight:bold;vertical-align:top;">cookies</td><td style="vertical-align:top;">:</td><td><div><table><tr><td style="font-weight:bold;vertical-align:top;">session_id_ourhours</td><td style="vertical-align:top;">:</td><td><div>127.0.0.1-a74d4b7e-abad-434b-b446-c14750ec34dc<table><tr><td style="font-weight:bold;vertical-align:top;">comment</td><td style="vertical-align:top;">:</td><td><div></div></td></tr><tr><td style="font-weight:bold;vertical-align:top;">domain</td><td style="vertical-align:top;">:</td><td><div></div></td></tr><tr><td style="font-weight:bold;vertical-align:top;">expires</td><td style="vertical-align:top;">:</td><td><div></div></td></tr><tr><td style="font-weight:bold;vertical-align:top;">httponly</td><td style="vertical-align:top;">:</td><td><div></div></td></tr><tr><td style="font-weight:bold;vertical-align:top;">max-age</td><td style="vertical-align:top;">:</td><td><div></div></td></tr><tr><td style="font-weight:bold;vertical-align:top;">path</td><td style="vertical-align:top;">:</td><td><div>/</div></td></tr><tr><td style="font-weight:bold;vertical-align:top;">secure</td><td style="vertical-align:top;">:</td><td><div></div></td></tr><tr><td style="font-weight:bold;vertical-align:top;">version</td><td style="vertical-align:top;">:</td><td><div></div></td></tr></table></div></td></tr></table></div></td></tr><tr><td style="font-weight:bold;vertical-align:top;">delimiters</td><td style="vertical-align:top;">:</td><td><div><table><tr><td><div>{{</div></td></tr><tr><td><div>}}</div></td></tr></table></div></td></tr><tr><td style="font-weight:bold;vertical-align:top;">files</td><td style="vertical-align:top;">:</td><td><div><table></table></div></td></tr><tr><td style="font-weight:bold;vertical-align:top;">flash</td><td style="vertical-align:top;">:</td><td><div></div></td></tr><tr><td style="font-weight:bold;vertical-align:top;">form_label_separator</td><td style="vertical-align:top;">:</td><td><div>: </div></td></tr><tr><td style="font-weight:bold;vertical-align:top;">formstyle</td><td style="vertical-align:top;">:</td><td><div>table3cols</div></td></tr><tr><td style="font-weight:bold;vertical-align:top;">generic_patterns</td><td style="vertical-align:top;">:</td><td><div><table><tr><td><div>*</div></td></tr></table></div></td></tr><tr><td style="font-weight:bold;vertical-align:top;">headers</td><td style="vertical-align:top;">:</td><td><div><table><tr><td style="font-weight:bold;vertical-align:top;">X-Powered-By</td><td style="vertical-align:top;">:</td><td><div>web2py</div></td></tr></table></div></td></tr><tr><td style="font-weight:bold;vertical-align:top;">menu</td><td style="vertical-align:top;">:</td><td><div><table></table></div></td></tr><tr><td style="font-weight:bold;vertical-align:top;">meta</td><td style="vertical-align:top;">:</td><td><div><table></table></div></td></tr><tr><td style="font-weight:bold;vertical-align:top;">models_to_run</td><td style="vertical-align:top;">:</td><td><div><table><tr><td><div>^\\w+\\.py$</div></td></tr><tr><td><div>^default/\\w+\\.py$</div></td></tr><tr><td><div>^default/index/\\w+\\.py$</div></td></tr></table></div></td></tr><tr><td style="font-weight:bold;vertical-align:top;">postprocessing</td><td style="vertical-align:top;">:</td><td><div><table></table></div></td></tr><tr><td style="font-weight:bold;vertical-align:top;">session_client</td><td style="vertical-align:top;">:</td><td><div>127.0.0.1</div></td></tr><tr><td style="font-weight:bold;vertical-align:top;">session_cookie_compression_level</td><td style="vertical-align:top;">:</td><td><div>None</div></td></tr><tr><td style="font-weight:bold;vertical-align:top;">session_cookie_expires</td><td style="vertical-align:top;">:</td><td><div>None</div></td></tr><tr><td style="font-weight:bold;vertical-align:top;">session_data_name</td><td style="vertical-align:top;">:</td><td><div>session_data_ourhours</div></td></tr><tr><td style="font-weight:bold;vertical-align:top;">session_file</td><td style="vertical-align:top;">:</td><td><div>None</div></td></tr><tr><td style="font-weight:bold;vertical-align:top;">session_filename</td><td style="vertical-align:top;">:</td><td><div>C:\\Users\\Wesly\\Desktop\\UCSC-Hack-2017\\applications\\ourhours\\sessions\\127.0.0.1-a74d4b7e-abad-434b-b446-c14750ec34dc</div></td></tr><tr><td style="font-weight:bold;vertical-align:top;">session_hash</td><td style="vertical-align:top;">:</td><td><div>c0762cbf4baf7f9af97c051e7fcb8083</div></td></tr><tr><td style="font-weight:bold;vertical-align:top;">session_id</td><td style="vertical-align:top;">:</td><td><div>127.0.0.1-a74d4b7e-abad-434b-b446-c14750ec34dc</div></td></tr><tr><td style="font-weight:bold;vertical-align:top;">session_id_name</td><td style="vertical-align:top;">:</td><td><div>session_id_ourhours</div></td></tr><tr><td style="font-weight:bold;vertical-align:top;">session_masterapp</td><td style="vertical-align:top;">:</td><td><div>ourhours</div></td></tr><tr><td style="font-weight:bold;vertical-align:top;">session_new</td><td style="vertical-align:top;">:</td><td><div>True</div></td></tr><tr><td style="font-weight:bold;vertical-align:top;">session_storage_type</td><td style="vertical-align:top;">:</td><td><div>file</div></td></tr><tr><td style="font-weight:bold;vertical-align:top;">status</td><td style="vertical-align:top;">:</td><td><div>200</div></td></tr><tr><td style="font-weight:bold;vertical-align:top;">view</td><td style="vertical-align:top;">:</td><td><div>default/index.html</div></td></tr></table></div>'
tRp140
sS'locals'
p141
(dp142
S'fromlist'
p143
S"('Image',)"
p144
sS'modules_prefix'
p145
S"'applications.ourhours.modules'"
p146
sS'name'
p147
S"'IPython.display'"
p148
sS'level'
p149
S'-1'
p150
sS'items'
p151
S"['C:', 'Users', 'Wesly', 'Desktop', 'UCSC-Hack-2017', 'applications', 'ourhours']"
p152
sS'base_importer'
p153
S'<built-in function __import__>'
p154
sS'globals'
p155
S"{'A': <class 'gluon.html.A'>, 'ANY_OF': <class 'gluon.validators.ANY_OF'>, 'ASSIGNJS': <function ASSIGNJS>, 'Auth': <class 'gluon.tools.Auth'>, 'B': <class 'gluon.html.B'>, 'BEAUTIFY': <class 'gluon.html.BEAUTIFY'>, 'BODY': <class 'gluon.html.BODY'>, 'BR': <class 'gluon.html.BR'>, 'BUTTON': <class 'gluon.html.BUTTON'>, 'CAT': <class 'gluon.html.CAT'>, ...}"
p156
sS'pname'
p157
S"'applications.ourhours.modules.IPython.display'"
p158
sS'e3'
p159
S"ImportError('No module named IPython.display',)"
p160
sS'e1'
p161
S"ImportError('No module named modules.IPython.display',)"
p162
sS'import_tb'
p163
S'None'
p164
sg141
S"{'A': <class 'gluon.html.A'>, 'ANY_OF': <class 'gluon.validators.ANY_OF'>, 'ASSIGNJS': <function ASSIGNJS>, 'Auth': <class 'gluon.tools.Auth'>, 'B': <class 'gluon.html.B'>, 'BEAUTIFY': <class 'gluon.html.BEAUTIFY'>, 'BODY': <class 'gluon.html.BODY'>, 'BR': <class 'gluon.html.BR'>, 'BUTTON': <class 'gluon.html.BUTTON'>, 'CAT': <class 'gluon.html.CAT'>, ...}"
p165
sS'oname'
p166
S"'IPython.display'"
p167
sssS'traceback'
p168
S'Traceback (most recent call last):\n  File "C:\\Users\\Wesly\\Desktop\\UCSC-Hack-2017\\gluon\\restricted.py", line 227, in restricted\n    exec ccode in environment\n  File "C:\\Users\\Wesly\\Desktop\\UCSC-Hack-2017\\applications\\ourhours\\models\\menu.py", line 7, in <module>\n    from IPython.display import Image\n  File "C:\\Users\\Wesly\\Desktop\\UCSC-Hack-2017\\gluon\\custom_import.py", line 95, in custom_importer\n    return base_importer(pname, globals, locals, fromlist, level)\nImportError: No module named modules.IPython.display\n'
p169
s.