(dp1
S'output'
p2
S"<type 'exceptions.SyntaxError'> invalid select attribute: default"
p3
sS'layer'
p4
S'C:\\Users\\Wesly\\Desktop\\UCSC-Hack-2017\\applications\\ourhours\\controllers/default.py'
p5
sS'code'
p6
S"from gluon.tools import Mail\nimport imaplib\nimport email\nfrom email.header import decode_header\n\nimport random\nimport string\ndef index():\n    groups = db(db.groups).select(db.groups.ALL)\n    return locals()\n\n# @auth.requires_login()\ndef create():\n    form = SQLFORM(db.groups, deletable=True).process()\n    if form.accepted:\n        \n        redirect(URL('index'))\n    return locals()\n\ndef join():\n    groups = db(db.groups).select(db.groups.group_code)\n    form = SQLFORM(db.join_group, deletable=True).process()\n    if form.accepted:\n        for groups in groups:\n            # response.flash = groups.group_code\n            if request.vars.join_code in groups.group_code:\n                response.flash = 'Welcome to the group!'\n                redirect(URL('index'))\n    return locals()\n\n# @auth.requires_login()\ndef ecreate():\n    form = SQLFORM(db.event, deletable=True).process()\n    if form.accepted:\n        redirect(URL('index'))\n    return locals()\n\nimport json\nfrom datetime import datetime\nfrom json import dumps\n# @auth.requires_login()\ndef event_page():\n    #currently faulty, returns all events\n    g = db.groups(request.args(0,cast=int)) or redirect(URL('index'))\n    db.event.event_id.default = g.id\n    db.event.event_code.default = g.group_code\n    # event = db(db.event.event_id == g.id).select()\n    event = db(db.event).select(db.event.ALL, indent=4, sort_keys=True, default=str)\n    json_data = json.dumps([[e.event_allDay, e.event_name, e.event_id, e.start, e.end, e.event_description] for e in event])\n    response.flash = json_data\n\n    return locals()\n\ndef user():\n    return dict(form=auth())\n\ndef download():\n    return response.download(request, db)\n\ndef picture():\n    return response.view(request, db)\n\ndef getdata():\n    rows = db().select(db.realtimedata.id, db.realtimedata.FlowRate,\n                       limitby=(0, 3), orderby=~db.realtimedata.id)\n    return json.dumps([[r.id, r.FlowRate] for r in rows])\nresponse._vars=response._caller(event_page)\n"
p7
sS'snapshot'
p8
(dp9
S'exception'
p10
(dp11
S'__getslice__'
p12
S"<method-wrapper '__getslice__' of exceptions.SyntaxError object>"
p13
sS'text'
p14
S'None'
p15
sS'__str__'
p16
S"<method-wrapper '__str__' of exceptions.SyntaxError object>"
p17
sS'__reduce__'
p18
S'<built-in method __reduce__ of exceptions.SyntaxError object>'
p19
sS'__dict__'
p20
S'{}'
p21
sS'__sizeof__'
p22
S'<built-in method __sizeof__ of exceptions.SyntaxError object>'
p23
sS'__init__'
p24
S"<method-wrapper '__init__' of exceptions.SyntaxError object>"
p25
sS'__setattr__'
p26
S"<method-wrapper '__setattr__' of exceptions.SyntaxError object>"
p27
sS'__reduce_ex__'
p28
S'<built-in method __reduce_ex__ of exceptions.SyntaxError object>'
p29
sS'__new__'
p30
S'<built-in method __new__ of type object>'
p31
sS'__format__'
p32
S'<built-in method __format__ of exceptions.SyntaxError object>'
p33
sS'__class__'
p34
S"<type 'exceptions.SyntaxError'>"
p35
sS'filename'
p36
S'None'
p37
sS'lineno'
p38
S'None'
p39
sS'msg'
p40
S"'invalid select attribute: default'"
p41
sS'__doc__'
p42
S"'Invalid syntax.'"
p43
sS'__getitem__'
p44
S"<method-wrapper '__getitem__' of exceptions.SyntaxError object>"
p45
sS'__setstate__'
p46
S'<built-in method __setstate__ of exceptions.SyntaxError object>'
p47
sS'__getattribute__'
p48
S"<method-wrapper '__getattribute__' of exceptions.SyntaxError object>"
p49
sS'print_file_and_line'
p50
S'None'
p51
sS'args'
p52
S"('invalid select attribute: default',)"
p53
sS'__subclasshook__'
p54
S'<built-in method __subclasshook__ of type object>'
p55
sS'offset'
p56
S'None'
p57
sS'__unicode__'
p58
S'<built-in method __unicode__ of exceptions.SyntaxError object>'
p59
sS'__delattr__'
p60
S"<method-wrapper '__delattr__' of exceptions.SyntaxError object>"
p61
sS'__repr__'
p62
S"<method-wrapper '__repr__' of exceptions.SyntaxError object>"
p63
sS'__hash__'
p64
S"<method-wrapper '__hash__' of exceptions.SyntaxError object>"
p65
ssS'evalue'
p66
S'invalid select attribute: default'
p67
sS'request'
p68
cgluon.html
XML_unpickle
p69
(S's)\x97\x00\x00<div><table><tr><td style="font-weight:bold;vertical-align:top;">ajax</td><td style="vertical-align:top;">:</td><td><div>False</div></td></tr><tr><td style="font-weight:bold;vertical-align:top;">application</td><td style="vertical-align:top;">:</td><td><div>ourhours</div></td></tr><tr><td style="font-weight:bold;vertical-align:top;">args</td><td style="vertical-align:top;">:</td><td><div><table><tr><td><div>21</div></td></tr></table></div></td></tr><tr><td style="font-weight:bold;vertical-align:top;">cid</td><td style="vertical-align:top;">:</td><td><div>None</div></td></tr><tr><td style="font-weight:bold;vertical-align:top;">client</td><td style="vertical-align:top;">:</td><td><div>127.0.0.1</div></td></tr><tr><td style="font-weight:bold;vertical-align:top;">controller</td><td style="vertical-align:top;">:</td><td><div>default</div></td></tr><tr><td style="font-weight:bold;vertical-align:top;">cookies</td><td style="vertical-align:top;">:</td><td><div><table><tr><td style="font-weight:bold;vertical-align:top;">resolution</td><td style="vertical-align:top;">:</td><td><div>1349<table><tr><td style="font-weight:bold;vertical-align:top;">comment</td><td style="vertical-align:top;">:</td><td><div></div></td></tr><tr><td style="font-weight:bold;vertical-align:top;">domain</td><td style="vertical-align:top;">:</td><td><div></div></td></tr><tr><td style="font-weight:bold;vertical-align:top;">expires</td><td style="vertical-align:top;">:</td><td><div></div></td></tr><tr><td style="font-weight:bold;vertical-align:top;">httponly</td><td style="vertical-align:top;">:</td><td><div></div></td></tr><tr><td style="font-weight:bold;vertical-align:top;">max-age</td><td style="vertical-align:top;">:</td><td><div></div></td></tr><tr><td style="font-weight:bold;vertical-align:top;">path</td><td style="vertical-align:top;">:</td><td><div></div></td></tr><tr><td style="font-weight:bold;vertical-align:top;">secure</td><td style="vertical-align:top;">:</td><td><div></div></td></tr><tr><td style="font-weight:bold;vertical-align:top;">version</td><td style="vertical-align:top;">:</td><td><div></div></td></tr></table></div></td></tr><tr><td style="font-weight:bold;vertical-align:top;">session_data_ourhours</td><td style="vertical-align:top;">:</td><td><div>b2d71c9a9065d532946549e93b8b85e1:qNniJ-5tKprx28-LYgyB1Pcx_PV695UI0Dp-txnQ9Frx5_tEuorX4hrEQefMmxQJSyGBca4ZD4aOk7pFl48xB6ryIPTd4p1wMGiAbKYQ8UyfaWaUhspT9jZEnhWKBZOY1JCU_mShEDrc1ZVXL4nLj21c8UQXky9igDD2LJKo4JX1vPREQw41enjtJ5sT4l_P1S5_AOKzkNNS4A38Gv-wc16hSHovrlGEm5hUIhhsxiTRulavoW5coowrAbtLDgfr8Yj6PVbLbfnqO7GhsPeoHWmN8Pfg4FsqdePEJq9dYKezcsXRAdshE65Sc4eTs25bjeCbevdV2XrNbiMOo2XcsUWMnjynRTr2eqcBI3u8Zft17GNDoLjPB54tr2MuncTwTdyNYSc-MU-VJ7g26BoQ4IzmJOPa3gWf9ZLzdOFZRTaVOaOAEh_y3hLIrif0pCdpKT6bSzeguurYNjdBPG2dG9i1nEHMOwUl6mw1tXXsuveBNiiEuD5IipSKTJT8wabzVdfZqgrL1PnibQXyUWHmhAJhTgT88Ma5OL4r-RqF4piSHEMm6j38bOcjQomnTwNyBbLc0nOSQZPpJDdaxdp5XihB0kEcZzCjuJdQ7-x9i-xZ_gPI14eRTGZ21ZcG7XFWoEXseZ6c6RPYtjkEU63B7x2DL9mTgDp09fJMkGlH9ZG1FrJONMU990ZeyiJCQrafavxZilzHaVJdqcZKMm5MfNOM1sDrb4llrtAAdFG2DI0sWHUQZkmv5JA5AjIjs3z-k4JpGdoNgHdUZpJHVz0hRo1eEV66uNptKEMv-AOPMatcQuFJ9gq4eby4ycvf67bz-MNZrYbP1Q2ES1VqlRyycOqmuVtSf1Ge7AvKalNA8AovPVTWDQDzPx-ZbuIPZ2DGhamR8PqxhnRGNwOfHrE9S3Mn-lsYfq3XChl9DRRu0BoTbcn-hi5Tz6kYDE2aqa2jYV9D8spdv3HZwGMpjs_VM5kAyAZuSxPSjKypx86sbSTJmmyekxa_i5zIXYMF0BMLZqLCZKaUgx42TTAupkYO2oI9SchbL8rSMeiaN523rGjywDBVQ3VJY3RDxRb9Yf33mQWeMJ2yTz3sVtXxvZojQsi20YpWE4jnHFwiuHln-ZhydICNN5N21hYVWmKOJeXkumJfFGC9Xg8T-qLuAgreh8H0uHNIdp-y5iD0b6CUoPTorE-KaYNGHpn2_ZTxizF7nNlR2EwL3TUyRppN1wTOQ3Oazfatffk4au17EZoqiBHgAo-0j9JQxlRS0O5U7sBN-a7uSsnybgkG-9kSBHri9zcRB34BYbvEZuVfh95LyxiqcKrLutdmqNA1kYLo25_YPSLu80jT_N9JRdLOUyuVMD0xjS8W6BptZgOmM08j9UNqx6RoOExma_1OQPeI9HwBR2_beioaKkt2khwVQ7z6JUA2zi9JhqmvtbCdzm1hzEa_dW0T7-hPU6ja1DALihbZhyabZwNie6OaKV8cdOkbXEsnr1eteL3IsRWwOoslsJ9oAFJwSOfaACh-rJXwpj8y_YPDci7f0bZf5x11nK-SJlSV-NLOTUVuwfE-0fnnH-3tj_D0uz-47Dy6haIdXL0SFlQFgylFks5UWmSeK2fuHPJwGr5j43l1xHAdUTYsQJGF3Xn3cgAVOCy5NcdovyzYXfFoJJbC2ow3lMGryGZ5Rw291p0tnU9f_GCsmup7iy8prVrxI3FQpcJTMPegFecXH3k21v-HrUMkcy65ZSueMJOV7wM8riKf4owWKbrU7fP_GQhm3eGU7v76etpW-W6cqtrqfO-MYLjitpqILuds2-Pd91wH2E5pL7GOPFoXYeWv7AsQ52BgPzqbP9hA2X6xswOQglFImZKltA24C8scNs4J1_x9XphTvvIi_8VvlRIxv7L78-0CRMoYw2vS5pdPSFk0MeML7v19aKSJt9APBSylh4lZeuGbzlqNtaaEd39NMaj8SrYiF6vacmRO7_xlxWiItm4kPRx3ZPkgvRxtAz-dVQ2TlqRBd9e_49Q_iZqIMXRbCGh3tUpcZQu-dsslW9yDlj91rorHIIMq691RbMvdNn5OhtMJwPGodU_Cd7OE9Y4ATLUl9QAjuZiDPrtdzB7EAp-QLExEAxmbxYOuf0luLp68sXpDoMgyl62uhZgbBl0pIqmJu95x8T-3sQW4Bggze03CpHS2Cgu0c5C0y7xOmM-EA_n39KFezI4xWjPHOVf2Hp4TeZfBBUUPrRibwfc1rZvbc5HFqnr-0oUJqSsLTcIZ9-ozxTXg9sHaJR2F29mEi-w_SYTdQw-QqutRyLRTildLcdi460lZn7o1VNhRy5U76qKDjz4QqjEm25yEvmOZhayLmVgIWRkiBC8CH66TaMOXuj48Qug60qmIyzcRd3DEkAev6A_JRDI5FRMP8FLB2dKjhcEnSg2XgmDcBI_GWGrWe0M9VjltxvcOi6j2OSWYQ4Hst-Kgkf0C50opvcZ5OPtLk65VavL0e0hcdnPE5_4A0VU5k74z0mBuJADpkag6ip9HpzsYnHVpXwg=<table><tr><td style="font-weight:bold;vertical-align:top;">comment</td><td style="vertical-align:top;">:</td><td><div></div></td></tr><tr><td style="font-weight:bold;vertical-align:top;">domain</td><td style="vertical-align:top;">:</td><td><div></div></td></tr><tr><td style="font-weight:bold;vertical-align:top;">expires</td><td style="vertical-align:top;">:</td><td><div></div></td></tr><tr><td style="font-weight:bold;vertical-align:top;">httponly</td><td style="vertical-align:top;">:</td><td><div></div></td></tr><tr><td style="font-weight:bold;vertical-align:top;">max-age</td><td style="vertical-align:top;">:</td><td><div></div></td></tr><tr><td style="font-weight:bold;vertical-align:top;">path</td><td style="vertical-align:top;">:</td><td><div></div></td></tr><tr><td style="font-weight:bold;vertical-align:top;">secure</td><td style="vertical-align:top;">:</td><td><div></div></td></tr><tr><td style="font-weight:bold;vertical-align:top;">version</td><td style="vertical-align:top;">:</td><td><div></div></td></tr></table></div></td></tr><tr><td style="font-weight:bold;vertical-align:top;">session_id_admin</td><td style="vertical-align:top;">:</td><td><div>127.0.0.1-5e4d5587-8e46-4ab9-bda4-cde90ee24cff<table><tr><td style="font-weight:bold;vertical-align:top;">comment</td><td style="vertical-align:top;">:</td><td><div></div></td></tr><tr><td style="font-weight:bold;vertical-align:top;">domain</td><td style="vertical-align:top;">:</td><td><div></div></td></tr><tr><td style="font-weight:bold;vertical-align:top;">expires</td><td style="vertical-align:top;">:</td><td><div></div></td></tr><tr><td style="font-weight:bold;vertical-align:top;">httponly</td><td style="vertical-align:top;">:</td><td><div></div></td></tr><tr><td style="font-weight:bold;vertical-align:top;">max-age</td><td style="vertical-align:top;">:</td><td><div></div></td></tr><tr><td style="font-weight:bold;vertical-align:top;">path</td><td style="vertical-align:top;">:</td><td><div></div></td></tr><tr><td style="font-weight:bold;vertical-align:top;">secure</td><td style="vertical-align:top;">:</td><td><div></div></td></tr><tr><td style="font-weight:bold;vertical-align:top;">version</td><td style="vertical-align:top;">:</td><td><div></div></td></tr></table></div></td></tr><tr><td style="font-weight:bold;vertical-align:top;">session_id_hackathon</td><td style="vertical-align:top;">:</td><td><div>127.0.0.1-e9d19e57-2c82-4246-95e2-3afb87897355<table><tr><td style="font-weight:bold;vertical-align:top;">comment</td><td style="vertical-align:top;">:</td><td><div></div></td></tr><tr><td style="font-weight:bold;vertical-align:top;">domain</td><td style="vertical-align:top;">:</td><td><div></div></td></tr><tr><td style="font-weight:bold;vertical-align:top;">expires</td><td style="vertical-align:top;">:</td><td><div></div></td></tr><tr><td style="font-weight:bold;vertical-align:top;">httponly</td><td style="vertical-align:top;">:</td><td><div></div></td></tr><tr><td style="font-weight:bold;vertical-align:top;">max-age</td><td style="vertical-align:top;">:</td><td><div></div></td></tr><tr><td style="font-weight:bold;vertical-align:top;">path</td><td style="vertical-align:top;">:</td><td><div></div></td></tr><tr><td style="font-weight:bold;vertical-align:top;">secure</td><td style="vertical-align:top;">:</td><td><div></div></td></tr><tr><td style="font-weight:bold;vertical-align:top;">version</td><td style="vertical-align:top;">:</td><td><div></div></td></tr></table></div></td></tr><tr><td style="font-weight:bold;vertical-align:top;">session_id_hw</td><td style="vertical-align:top;">:</td><td><div>127.0.0.1-23223d0c-fdad-4421-b0fa-bfb22452a98b<table><tr><td style="font-weight:bold;vertical-align:top;">comment</td><td style="vertical-align:top;">:</td><td><div></div></td></tr><tr><td style="font-weight:bold;vertical-align:top;">domain</td><td style="vertical-align:top;">:</td><td><div></div></td></tr><tr><td style="font-weight:bold;vertical-align:top;">expires</td><td style="vertical-align:top;">:</td><td><div></div></td></tr><tr><td style="font-weight:bold;vertical-align:top;">httponly</td><td style="vertical-align:top;">:</td><td><div></div></td></tr><tr><td style="font-weight:bold;vertical-align:top;">max-age</td><td style="vertical-align:top;">:</td><td><div></div></td></tr><tr><td style="font-weight:bold;vertical-align:top;">path</td><td style="vertical-align:top;">:</td><td><div></div></td></tr><tr><td style="font-weight:bold;vertical-align:top;">secure</td><td style="vertical-align:top;">:</td><td><div></div></td></tr><tr><td style="font-weight:bold;vertical-align:top;">version</td><td style="vertical-align:top;">:</td><td><div></div></td></tr></table></div></td></tr><tr><td style="font-weight:bold;vertical-align:top;">session_id_layouttest</td><td style="vertical-align:top;">:</td><td><div>127.0.0.1-9dd550cb-7d25-4599-add6-bbf406414416<table><tr><td style="font-weight:bold;vertical-align:top;">comment</td><td style="vertical-align:top;">:</td><td><div></div></td></tr><tr><td style="font-weight:bold;vertical-align:top;">domain</td><td style="vertical-align:top;">:</td><td><div></div></td></tr><tr><td style="font-weight:bold;vertical-align:top;">expires</td><td style="vertical-align:top;">:</td><td><div></div></td></tr><tr><td style="font-weight:bold;vertical-align:top;">httponly</td><td style="vertical-align:top;">:</td><td><div></div></td></tr><tr><td style="font-weight:bold;vertical-align:top;">max-age</td><td style="vertical-align:top;">:</td><td><div></div></td></tr><tr><td style="font-weight:bold;vertical-align:top;">path</td><td style="vertical-align:top;">:</td><td><div></div></td></tr><tr><td style="font-weight:bold;vertical-align:top;">secure</td><td style="vertical-align:top;">:</td><td><div></div></td></tr><tr><td style="font-weight:bold;vertical-align:top;">version</td><td style="vertical-align:top;">:</td><td><div></div></td></tr></table></div></td></tr><tr><td style="font-weight:bold;vertical-align:top;">session_id_ourhours</td><td style="vertical-align:top;">:</td><td><div>True<table><tr><td style="font-weight:bold;vertical-align:top;">comment</td><td style="vertical-align:top;">:</td><td><div></div></td></tr><tr><td style="font-weight:bold;vertical-align:top;">domain</td><td style="vertical-align:top;">:</td><td><div></div></td></tr><tr><td style="font-weight:bold;vertical-align:top;">expires</td><td style="vertical-align:top;">:</td><td><div></div></td></tr><tr><td style="font-weight:bold;vertical-align:top;">httponly</td><td style="vertical-align:top;">:</td><td><div></div></td></tr><tr><td style="font-weight:bold;vertical-align:top;">max-age</td><td style="vertical-align:top;">:</td><td><div></div></td></tr><tr><td style="font-weight:bold;vertical-align:top;">path</td><td style="vertical-align:top;">:</td><td><div></div></td></tr><tr><td style="font-weight:bold;vertical-align:top;">secure</td><td style="vertical-align:top;">:</td><td><div></div></td></tr><tr><td style="font-weight:bold;vertical-align:top;">version</td><td style="vertical-align:top;">:</td><td><div></div></td></tr></table></div></td></tr><tr><td style="font-weight:bold;vertical-align:top;">session_id_welcome</td><td style="vertical-align:top;">:</td><td><div>127.0.0.1-3404b542-72e6-426d-9bd7-f225ed0f1803<table><tr><td style="font-weight:bold;vertical-align:top;">comment</td><td style="vertical-align:top;">:</td><td><div></div></td></tr><tr><td style="font-weight:bold;vertical-align:top;">domain</td><td style="vertical-align:top;">:</td><td><div></div></td></tr><tr><td style="font-weight:bold;vertical-align:top;">expires</td><td style="vertical-align:top;">:</td><td><div></div></td></tr><tr><td style="font-weight:bold;vertical-align:top;">httponly</td><td style="vertical-align:top;">:</td><td><div></div></td></tr><tr><td style="font-weight:bold;vertical-align:top;">max-age</td><td style="vertical-align:top;">:</td><td><div></div></td></tr><tr><td style="font-weight:bold;vertical-align:top;">path</td><td style="vertical-align:top;">:</td><td><div></div></td></tr><tr><td style="font-weight:bold;vertical-align:top;">secure</td><td style="vertical-align:top;">:</td><td><div></div></td></tr><tr><td style="font-weight:bold;vertical-align:top;">version</td><td style="vertical-align:top;">:</td><td><div></div></td></tr></table></div></td></tr></table></div></td></tr><tr><td style="font-weight:bold;vertical-align:top;">env</td><td style="vertical-align:top;">:</td><td><div><table><tr><td style="font-weight:bold;vertical-align:top;">HTTP_ACCEPT</td><td style="vertical-align:top;">:</td><td><div>text/html,application/xhtml+xml,application/xml;q=0.9,image/webp,*/*;q=0.8</div></td></tr><tr><td style="font-weight:bold;vertical-align:top;">HTTP_ACCEPT_ENCODING</td><td style="vertical-align:top;">:</td><td><div>gzip, deflate, sdch, br</div></td></tr><tr><td style="font-weight:bold;vertical-align:top;">HTTP_ACCEPT_LANGUAGE</td><td style="vertical-align:top;">:</td><td><div>en-US,en;q=0.8</div></td></tr><tr><td style="font-weight:bold;vertical-align:top;">HTTP_CACHE_CONTROL</td><td style="vertical-align:top;">:</td><td><div>max-age=0</div></td></tr><tr><td style="font-weight:bold;vertical-align:top;">HTTP_CONNECTION</td><td style="vertical-align:top;">:</td><td><div>keep-alive</div></td></tr><tr><td style="font-weight:bold;vertical-align:top;">HTTP_COOKIE</td><td style="vertical-align:top;">:</td><td><div>session_id_layouttest=127.0.0.1-9dd550cb-7d25-4599-add6-bbf406414416; resolution=1349; session_id_hackathon=127.0.0.1-e9d19e57-2c82-4246-95e2-3afb87897355; session_id_hw=127.0.0.1-23223d0c-fdad-4421-b0fa-bfb22452a98b; session_id_welcome=127.0.0.1-3404b542-72e6-426d-9bd7-f225ed0f1803; session_data_ourhours=&quot;b2d71c9a9065d532946549e93b8b85e1:qNniJ-5tKprx28-LYgyB1Pcx_PV695UI0Dp-txnQ9Frx5_tEuorX4hrEQefMmxQJSyGBca4ZD4aOk7pFl48xB6ryIPTd4p1wMGiAbKYQ8UyfaWaUhspT9jZEnhWKBZOY1JCU_mShEDrc1ZVXL4nLj21c8UQXky9igDD2LJKo4JX1vPREQw41enjtJ5sT4l_P1S5_AOKzkNNS4A38Gv-wc16hSHovrlGEm5hUIhhsxiTRulavoW5coowrAbtLDgfr8Yj6PVbLbfnqO7GhsPeoHWmN8Pfg4FsqdePEJq9dYKezcsXRAdshE65Sc4eTs25bjeCbevdV2XrNbiMOo2XcsUWMnjynRTr2eqcBI3u8Zft17GNDoLjPB54tr2MuncTwTdyNYSc-MU-VJ7g26BoQ4IzmJOPa3gWf9ZLzdOFZRTaVOaOAEh_y3hLIrif0pCdpKT6bSzeguurYNjdBPG2dG9i1nEHMOwUl6mw1tXXsuveBNiiEuD5IipSKTJT8wabzVdfZqgrL1PnibQXyUWHmhAJhTgT88Ma5OL4r-RqF4piSHEMm6j38bOcjQomnTwNyBbLc0nOSQZPpJDdaxdp5XihB0kEcZzCjuJdQ7-x9i-xZ_gPI14eRTGZ21ZcG7XFWoEXseZ6c6RPYtjkEU63B7x2DL9mTgDp09fJMkGlH9ZG1FrJONMU990ZeyiJCQrafavxZilzHaVJdqcZKMm5MfNOM1sDrb4llrtAAdFG2DI0sWHUQZkmv5JA5AjIjs3z-k4JpGdoNgHdUZpJHVz0hRo1eEV66uNptKEMv-AOPMatcQuFJ9gq4eby4ycvf67bz-MNZrYbP1Q2ES1VqlRyycOqmuVtSf1Ge7AvKalNA8AovPVTWDQDzPx-ZbuIPZ2DGhamR8PqxhnRGNwOfHrE9S3Mn-lsYfq3XChl9DRRu0BoTbcn-hi5Tz6kYDE2aqa2jYV9D8spdv3HZwGMpjs_VM5kAyAZuSxPSjKypx86sbSTJmmyekxa_i5zIXYMF0BMLZqLCZKaUgx42TTAupkYO2oI9SchbL8rSMeiaN523rGjywDBVQ3VJY3RDxRb9Yf33mQWeMJ2yTz3sVtXxvZojQsi20YpWE4jnHFwiuHln-ZhydICNN5N21hYVWmKOJeXkumJfFGC9Xg8T-qLuAgreh8H0uHNIdp-y5iD0b6CUoPTorE-KaYNGHpn2_ZTxizF7nNlR2EwL3TUyRppN1wTOQ3Oazfatffk4au17EZoqiBHgAo-0j9JQxlRS0O5U7sBN-a7uSsnybgkG-9kSBHri9zcRB34BYbvEZuVfh95LyxiqcKrLutdmqNA1kYLo25_YPSLu80jT_N9JRdLOUyuVMD0xjS8W6BptZgOmM08j9UNqx6RoOExma_1OQPeI9HwBR2_beioaKkt2khwVQ7z6JUA2zi9JhqmvtbCdzm1hzEa_dW0T7-hPU6ja1DALihbZhyabZwNie6OaKV8cdOkbXEsnr1eteL3IsRWwOoslsJ9oAFJwSOfaACh-rJXwpj8y_YPDci7f0bZf5x11nK-SJlSV-NLOTUVuwfE-0fnnH-3tj_D0uz-47Dy6haIdXL0SFlQFgylFks5UWmSeK2fuHPJwGr5j43l1xHAdUTYsQJGF3Xn3cgAVOCy5NcdovyzYXfFoJJbC2ow3lMGryGZ5Rw291p0tnU9f_GCsmup7iy8prVrxI3FQpcJTMPegFecXH3k21v-HrUMkcy65ZSueMJOV7wM8riKf4owWKbrU7fP_GQhm3eGU7v76etpW-W6cqtrqfO-MYLjitpqILuds2-Pd91wH2E5pL7GOPFoXYeWv7AsQ52BgPzqbP9hA2X6xswOQglFImZKltA24C8scNs4J1_x9XphTvvIi_8VvlRIxv7L78-0CRMoYw2vS5pdPSFk0MeML7v19aKSJt9APBSylh4lZeuGbzlqNtaaEd39NMaj8SrYiF6vacmRO7_xlxWiItm4kPRx3ZPkgvRxtAz-dVQ2TlqRBd9e_49Q_iZqIMXRbCGh3tUpcZQu-dsslW9yDlj91rorHIIMq691RbMvdNn5OhtMJwPGodU_Cd7OE9Y4ATLUl9QAjuZiDPrtdzB7EAp-QLExEAxmbxYOuf0luLp68sXpDoMgyl62uhZgbBl0pIqmJu95x8T-3sQW4Bggze03CpHS2Cgu0c5C0y7xOmM-EA_n39KFezI4xWjPHOVf2Hp4TeZfBBUUPrRibwfc1rZvbc5HFqnr-0oUJqSsLTcIZ9-ozxTXg9sHaJR2F29mEi-w_SYTdQw-QqutRyLRTildLcdi460lZn7o1VNhRy5U76qKDjz4QqjEm25yEvmOZhayLmVgIWRkiBC8CH66TaMOXuj48Qug60qmIyzcRd3DEkAev6A_JRDI5FRMP8FLB2dKjhcEnSg2XgmDcBI_GWGrWe0M9VjltxvcOi6j2OSWYQ4Hst-Kgkf0C50opvcZ5OPtLk65VavL0e0hcdnPE5_4A0VU5k74z0mBuJADpkag6ip9HpzsYnHVpXwg=&quot;; session_id_ourhours=True; session_id_admin=127.0.0.1-5e4d5587-8e46-4ab9-bda4-cde90ee24cff</div></td></tr><tr><td style="font-weight:bold;vertical-align:top;">HTTP_HOST</td><td style="vertical-align:top;">:</td><td><div>127.0.0.1:8000</div></td></tr><tr><td style="font-weight:bold;vertical-align:top;">HTTP_REFERER</td><td style="vertical-align:top;">:</td><td><div>http://127.0.0.1:8000/ourhours/default/index</div></td></tr><tr><td style="font-weight:bold;vertical-align:top;">HTTP_UPGRADE_INSECURE_REQUESTS</td><td style="vertical-align:top;">:</td><td><div>1</div></td></tr><tr><td style="font-weight:bold;vertical-align:top;">HTTP_USER_AGENT</td><td style="vertical-align:top;">:</td><td><div>Mozilla/5.0 (Windows NT 10.0; Win64; x64) AppleWebKit/537.36 (KHTML, like Gecko) Chrome/55.0.2883.87 Safari/537.36</div></td></tr><tr><td style="font-weight:bold;vertical-align:top;">PATH_INFO</td><td style="vertical-align:top;">:</td><td><div>/ourhours/default/event_page/21</div></td></tr><tr><td style="font-weight:bold;vertical-align:top;">QUERY_STRING</td><td style="vertical-align:top;">:</td><td><div></div></td></tr><tr><td style="font-weight:bold;vertical-align:top;">REMOTE_ADDR</td><td style="vertical-align:top;">:</td><td><div>127.0.0.1</div></td></tr><tr><td style="font-weight:bold;vertical-align:top;">REMOTE_PORT</td><td style="vertical-align:top;">:</td><td><div>50836</div></td></tr><tr><td style="font-weight:bold;vertical-align:top;">REQUEST_METHOD</td><td style="vertical-align:top;">:</td><td><div>GET</div></td></tr><tr><td style="font-weight:bold;vertical-align:top;">SCRIPT_NAME</td><td style="vertical-align:top;">:</td><td><div></div></td></tr><tr><td style="font-weight:bold;vertical-align:top;">SERVER_NAME</td><td style="vertical-align:top;">:</td><td><div>DESKTOP-GDD7DCK</div></td></tr><tr><td style="font-weight:bold;vertical-align:top;">SERVER_PORT</td><td style="vertical-align:top;">:</td><td><div>8000</div></td></tr><tr><td style="font-weight:bold;vertical-align:top;">SERVER_PROTOCOL</td><td style="vertical-align:top;">:</td><td><div>HTTP/1.1</div></td></tr><tr><td style="font-weight:bold;vertical-align:top;">SERVER_SOFTWARE</td><td style="vertical-align:top;">:</td><td><div>Rocket 1.2.6</div></td></tr><tr><td style="font-weight:bold;vertical-align:top;">app_folders</td><td style="vertical-align:top;">:</td><td><div>set([&#x27;C:\\\\Users\\\\Wesly\\\\Desktop\\\\UCSC-Hack-2017\\\\applications\\\\welcome\\\\&#x27;, &#x27;C:\\\\Users\\\\Wesly\\\\Desktop\\\\UCSC-Hack-2017\\\\applications\\\\examples\\\\&#x27;, &#x27;C:\\\\Users\\\\Wesly\\\\Desktop\\\\UCSC-Hack-2017\\\\applications\\\\ourhours\\\\&#x27;, &#x27;C:\\\\Users\\\\Wesly\\\\Desktop\\\\UCSC-Hack-2017\\\\applications\\\\admin\\\\&#x27;])</div></td></tr><tr><td style="font-weight:bold;vertical-align:top;">applications_parent</td><td style="vertical-align:top;">:</td><td><div>C:\\Users\\Wesly\\Desktop\\UCSC-Hack-2017</div></td></tr><tr><td style="font-weight:bold;vertical-align:top;">cmd_args</td><td style="vertical-align:top;">:</td><td><div><table></table></div></td></tr><tr><td style="font-weight:bold;vertical-align:top;">cmd_options</td><td style="vertical-align:top;">:</td><td><div>&lt;Values at 0x2ddaeb8: {&#x27;verbose&#x27;: False, &#x27;ip&#x27;: &#x27;127.0.0.1&#x27;, &#x27;debuglevel&#x27;: 30, &#x27;with_scheduler&#x27;: False, &#x27;shutdown_timeout&#x27;: 5, &#x27;taskbar&#x27;: False, &#x27;with_coverage&#x27;: False, &#x27;pid_filename&#x27;: &#x27;httpserver.pid&#x27;, &#x27;maxthreads&#x27;: None, &#x27;softcron&#x27;: False, &#x27;server_name&#x27;: &#x27;DESKTOP-GDD7DCK&#x27;, &#x27;bpython&#x27;: False, &#x27;nogui&#x27;: False, &#x27;port&#x27;: 8000, &#x27;print_errors&#x27;: False, &#x27;extcron&#x27;: False, &#x27;runcron&#x27;: False, &#x27;run_system_tests&#x27;: False, &#x27;test&#x27;: None, &#x27;folder&#x27;: &#x27;C:\\\\Users\\\\Wesly\\\\Desktop\\\\UCSC-Hack-2017&#x27;, &#x27;config&#x27;: &#x27;&#x27;, &#x27;minthreads&#x27;: None, &#x27;shell&#x27;: None, &#x27;run&#x27;: &#x27;&#x27;, &#x27;log_filename&#x27;: &#x27;httpserver.log&#x27;, &#x27;profiler_dir&#x27;: None, &#x27;args&#x27;: [&#x27;&#x27;], &#x27;socket_timeout&#x27;: 5, &#x27;ssl_ca_certificate&#x27;: None, &#x27;scheduler&#x27;: None, &#x27;interfaces&#x27;: None, &#x27;ssl_private_key&#x27;: &#x27;&#x27;, &#x27;gae&#x27;: None, &#x27;password&#x27;: &#x27;******&#x27;, &#x27;request_queue_size&#x27;: 5, &#x27;ssl_certificate&#x27;: &#x27;&#x27;, &#x27;cronjob&#x27;: False, &#x27;numthreads&#x27;: None, &#x27;quiet&#x27;: False, &#x27;import_models&#x27;: False, &#x27;timeout&#x27;: 10, &#x27;plain&#x27;: False, &#x27;nobanner&#x27;: False}&gt;</div></td></tr><tr><td style="font-weight:bold;vertical-align:top;">db_sessions</td><td style="vertical-align:top;">:</td><td><div>set([])</div></td></tr><tr><td style="font-weight:bold;vertical-align:top;">debugging</td><td style="vertical-align:top;">:</td><td><div>True</div></td></tr><tr><td style="font-weight:bold;vertical-align:top;">gluon_parent</td><td style="vertical-align:top;">:</td><td><div>C:\\Users\\Wesly\\Desktop\\UCSC-Hack-2017</div></td></tr><tr><td style="font-weight:bold;vertical-align:top;">http_accept</td><td style="vertical-align:top;">:</td><td><div>text/html,application/xhtml+xml,application/xml;q=0.9,image/webp,*/*;q=0.8</div></td></tr><tr><td style="font-weight:bold;vertical-align:top;">http_accept_encoding</td><td style="vertical-align:top;">:</td><td><div>gzip, deflate, sdch, br</div></td></tr><tr><td style="font-weight:bold;vertical-align:top;">http_accept_language</td><td style="vertical-align:top;">:</td><td><div>en-US,en;q=0.8</div></td></tr><tr><td style="font-weight:bold;vertical-align:top;">http_cache_control</td><td style="vertical-align:top;">:</td><td><div>max-age=0</div></td></tr><tr><td style="font-weight:bold;vertical-align:top;">http_connection</td><td style="vertical-align:top;">:</td><td><div>keep-alive</div></td></tr><tr><td style="font-weight:bold;vertical-align:top;">http_cookie</td><td style="vertical-align:top;">:</td><td><div>session_id_layouttest=127.0.0.1-9dd550cb-7d25-4599-add6-bbf406414416; resolution=1349; session_id_hackathon=127.0.0.1-e9d19e57-2c82-4246-95e2-3afb87897355; session_id_hw=127.0.0.1-23223d0c-fdad-4421-b0fa-bfb22452a98b; session_id_welcome=127.0.0.1-3404b542-72e6-426d-9bd7-f225ed0f1803; session_data_ourhours=&quot;b2d71c9a9065d532946549e93b8b85e1:qNniJ-5tKprx28-LYgyB1Pcx_PV695UI0Dp-txnQ9Frx5_tEuorX4hrEQefMmxQJSyGBca4ZD4aOk7pFl48xB6ryIPTd4p1wMGiAbKYQ8UyfaWaUhspT9jZEnhWKBZOY1JCU_mShEDrc1ZVXL4nLj21c8UQXky9igDD2LJKo4JX1vPREQw41enjtJ5sT4l_P1S5_AOKzkNNS4A38Gv-wc16hSHovrlGEm5hUIhhsxiTRulavoW5coowrAbtLDgfr8Yj6PVbLbfnqO7GhsPeoHWmN8Pfg4FsqdePEJq9dYKezcsXRAdshE65Sc4eTs25bjeCbevdV2XrNbiMOo2XcsUWMnjynRTr2eqcBI3u8Zft17GNDoLjPB54tr2MuncTwTdyNYSc-MU-VJ7g26BoQ4IzmJOPa3gWf9ZLzdOFZRTaVOaOAEh_y3hLIrif0pCdpKT6bSzeguurYNjdBPG2dG9i1nEHMOwUl6mw1tXXsuveBNiiEuD5IipSKTJT8wabzVdfZqgrL1PnibQXyUWHmhAJhTgT88Ma5OL4r-RqF4piSHEMm6j38bOcjQomnTwNyBbLc0nOSQZPpJDdaxdp5XihB0kEcZzCjuJdQ7-x9i-xZ_gPI14eRTGZ21ZcG7XFWoEXseZ6c6RPYtjkEU63B7x2DL9mTgDp09fJMkGlH9ZG1FrJONMU990ZeyiJCQrafavxZilzHaVJdqcZKMm5MfNOM1sDrb4llrtAAdFG2DI0sWHUQZkmv5JA5AjIjs3z-k4JpGdoNgHdUZpJHVz0hRo1eEV66uNptKEMv-AOPMatcQuFJ9gq4eby4ycvf67bz-MNZrYbP1Q2ES1VqlRyycOqmuVtSf1Ge7AvKalNA8AovPVTWDQDzPx-ZbuIPZ2DGhamR8PqxhnRGNwOfHrE9S3Mn-lsYfq3XChl9DRRu0BoTbcn-hi5Tz6kYDE2aqa2jYV9D8spdv3HZwGMpjs_VM5kAyAZuSxPSjKypx86sbSTJmmyekxa_i5zIXYMF0BMLZqLCZKaUgx42TTAupkYO2oI9SchbL8rSMeiaN523rGjywDBVQ3VJY3RDxRb9Yf33mQWeMJ2yTz3sVtXxvZojQsi20YpWE4jnHFwiuHln-ZhydICNN5N21hYVWmKOJeXkumJfFGC9Xg8T-qLuAgreh8H0uHNIdp-y5iD0b6CUoPTorE-KaYNGHpn2_ZTxizF7nNlR2EwL3TUyRppN1wTOQ3Oazfatffk4au17EZoqiBHgAo-0j9JQxlRS0O5U7sBN-a7uSsnybgkG-9kSBHri9zcRB34BYbvEZuVfh95LyxiqcKrLutdmqNA1kYLo25_YPSLu80jT_N9JRdLOUyuVMD0xjS8W6BptZgOmM08j9UNqx6RoOExma_1OQPeI9HwBR2_beioaKkt2khwVQ7z6JUA2zi9JhqmvtbCdzm1hzEa_dW0T7-hPU6ja1DALihbZhyabZwNie6OaKV8cdOkbXEsnr1eteL3IsRWwOoslsJ9oAFJwSOfaACh-rJXwpj8y_YPDci7f0bZf5x11nK-SJlSV-NLOTUVuwfE-0fnnH-3tj_D0uz-47Dy6haIdXL0SFlQFgylFks5UWmSeK2fuHPJwGr5j43l1xHAdUTYsQJGF3Xn3cgAVOCy5NcdovyzYXfFoJJbC2ow3lMGryGZ5Rw291p0tnU9f_GCsmup7iy8prVrxI3FQpcJTMPegFecXH3k21v-HrUMkcy65ZSueMJOV7wM8riKf4owWKbrU7fP_GQhm3eGU7v76etpW-W6cqtrqfO-MYLjitpqILuds2-Pd91wH2E5pL7GOPFoXYeWv7AsQ52BgPzqbP9hA2X6xswOQglFImZKltA24C8scNs4J1_x9XphTvvIi_8VvlRIxv7L78-0CRMoYw2vS5pdPSFk0MeML7v19aKSJt9APBSylh4lZeuGbzlqNtaaEd39NMaj8SrYiF6vacmRO7_xlxWiItm4kPRx3ZPkgvRxtAz-dVQ2TlqRBd9e_49Q_iZqIMXRbCGh3tUpcZQu-dsslW9yDlj91rorHIIMq691RbMvdNn5OhtMJwPGodU_Cd7OE9Y4ATLUl9QAjuZiDPrtdzB7EAp-QLExEAxmbxYOuf0luLp68sXpDoMgyl62uhZgbBl0pIqmJu95x8T-3sQW4Bggze03CpHS2Cgu0c5C0y7xOmM-EA_n39KFezI4xWjPHOVf2Hp4TeZfBBUUPrRibwfc1rZvbc5HFqnr-0oUJqSsLTcIZ9-ozxTXg9sHaJR2F29mEi-w_SYTdQw-QqutRyLRTildLcdi460lZn7o1VNhRy5U76qKDjz4QqjEm25yEvmOZhayLmVgIWRkiBC8CH66TaMOXuj48Qug60qmIyzcRd3DEkAev6A_JRDI5FRMP8FLB2dKjhcEnSg2XgmDcBI_GWGrWe0M9VjltxvcOi6j2OSWYQ4Hst-Kgkf0C50opvcZ5OPtLk65VavL0e0hcdnPE5_4A0VU5k74z0mBuJADpkag6ip9HpzsYnHVpXwg=&quot;; session_id_ourhours=True; session_id_admin=127.0.0.1-5e4d5587-8e46-4ab9-bda4-cde90ee24cff</div></td></tr><tr><td style="font-weight:bold;vertical-align:top;">http_host</td><td style="vertical-align:top;">:</td><td><div>127.0.0.1:8000</div></td></tr><tr><td style="font-weight:bold;vertical-align:top;">http_referer</td><td style="vertical-align:top;">:</td><td><div>http://127.0.0.1:8000/ourhours/default/index</div></td></tr><tr><td style="font-weight:bold;vertical-align:top;">http_upgrade_insecure_requests</td><td style="vertical-align:top;">:</td><td><div>1</div></td></tr><tr><td style="font-weight:bold;vertical-align:top;">http_user_agent</td><td style="vertical-align:top;">:</td><td><div>Mozilla/5.0 (Windows NT 10.0; Win64; x64) AppleWebKit/537.36 (KHTML, like Gecko) Chrome/55.0.2883.87 Safari/537.36</div></td></tr><tr><td style="font-weight:bold;vertical-align:top;">is_jython</td><td style="vertical-align:top;">:</td><td><div>False</div></td></tr><tr><td style="font-weight:bold;vertical-align:top;">is_pypy</td><td style="vertical-align:top;">:</td><td><div>False</div></td></tr><tr><td style="font-weight:bold;vertical-align:top;">is_source</td><td style="vertical-align:top;">:</td><td><div>False</div></td></tr><tr><td style="font-weight:bold;vertical-align:top;">local_hosts</td><td style="vertical-align:top;">:</td><td><div><table><tr><td><div>fe80::81f2:e7ae:7efe:f1e7%23</div></td></tr><tr><td><div>DESKTOP-GDD7DCK</div></td></tr><tr><td><div>::ffff:127.0.0.1</div></td></tr><tr><td><div>::1</div></td></tr><tr><td><div>fe80::5efe:192.168.1.135%21</div></td></tr><tr><td><div>192.168.1.135</div></td></tr><tr><td><div>fe80::e941:c1cf:aca3:e27d%22</div></td></tr><tr><td><div>127.0.0.1</div></td></tr><tr><td><div>192.168.56.1</div></td></tr></table></div></td></tr><tr><td style="font-weight:bold;vertical-align:top;">path_info</td><td style="vertical-align:top;">:</td><td><div>/ourhours/default/event_page/21</div></td></tr><tr><td style="font-weight:bold;vertical-align:top;">query_string</td><td style="vertical-align:top;">:</td><td><div></div></td></tr><tr><td style="font-weight:bold;vertical-align:top;">remote_addr</td><td style="vertical-align:top;">:</td><td><div>127.0.0.1</div></td></tr><tr><td style="font-weight:bold;vertical-align:top;">remote_port</td><td style="vertical-align:top;">:</td><td><div>50836</div></td></tr><tr><td style="font-weight:bold;vertical-align:top;">request_method</td><td style="vertical-align:top;">:</td><td><div>GET</div></td></tr><tr><td style="font-weight:bold;vertical-align:top;">request_uri</td><td style="vertical-align:top;">:</td><td><div>/ourhours/default/event_page/21</div></td></tr><tr><td style="font-weight:bold;vertical-align:top;">script_name</td><td style="vertical-align:top;">:</td><td><div></div></td></tr><tr><td style="font-weight:bold;vertical-align:top;">server_name</td><td style="vertical-align:top;">:</td><td><div>DESKTOP-GDD7DCK</div></td></tr><tr><td style="font-weight:bold;vertical-align:top;">server_port</td><td style="vertical-align:top;">:</td><td><div>8000</div></td></tr><tr><td style="font-weight:bold;vertical-align:top;">server_protocol</td><td style="vertical-align:top;">:</td><td><div>HTTP/1.1</div></td></tr><tr><td style="font-weight:bold;vertical-align:top;">server_software</td><td style="vertical-align:top;">:</td><td><div>Rocket 1.2.6</div></td></tr><tr><td style="font-weight:bold;vertical-align:top;">web2py_path</td><td style="vertical-align:top;">:</td><td><div>C:\\Users\\Wesly\\Desktop\\UCSC-Hack-2017</div></td></tr><tr><td style="font-weight:bold;vertical-align:top;">web2py_version</td><td style="vertical-align:top;">:</td><td><div>2.14.6-stable+timestamp.2016.05.10.00.21.47</div></td></tr><tr><td style="font-weight:bold;vertical-align:top;">wsgi.errors</td><td style="vertical-align:top;">:</td><td><div>&lt;open file &#x27;&lt;stderr&gt;&#x27;, mode &#x27;w&#x27; at 0x0221D0D0&gt;</div></td></tr><tr><td style="font-weight:bold;vertical-align:top;">wsgi.file_wrapper</td><td style="vertical-align:top;">:</td><td><div>&lt;class wsgiref.util.FileWrapper at 0x0321F148&gt;</div></td></tr><tr><td style="font-weight:bold;vertical-align:top;">wsgi.input</td><td style="vertical-align:top;">:</td><td><div>&lt;socket._fileobject object at 0x076E3FB0&gt;</div></td></tr><tr><td style="font-weight:bold;vertical-align:top;">wsgi.multiprocess</td><td style="vertical-align:top;">:</td><td><div>False</div></td></tr><tr><td style="font-weight:bold;vertical-align:top;">wsgi.multithread</td><td style="vertical-align:top;">:</td><td><div>True</div></td></tr><tr><td style="font-weight:bold;vertical-align:top;">wsgi.run_once</td><td style="vertical-align:top;">:</td><td><div>False</div></td></tr><tr><td style="font-weight:bold;vertical-align:top;">wsgi.url_scheme</td><td style="vertical-align:top;">:</td><td><div>http</div></td></tr><tr><td style="font-weight:bold;vertical-align:top;">wsgi.version</td><td style="vertical-align:top;">:</td><td><div><table><tr><td><div>1</div></td></tr><tr><td><div>0</div></td></tr></table></div></td></tr><tr><td style="font-weight:bold;vertical-align:top;">wsgi_errors</td><td style="vertical-align:top;">:</td><td><div>&lt;open file &#x27;&lt;stderr&gt;&#x27;, mode &#x27;w&#x27; at 0x0221D0D0&gt;</div></td></tr><tr><td style="font-weight:bold;vertical-align:top;">wsgi_file_wrapper</td><td style="vertical-align:top;">:</td><td><div>&lt;class wsgiref.util.FileWrapper at 0x0321F148&gt;</div></td></tr><tr><td style="font-weight:bold;vertical-align:top;">wsgi_input</td><td style="vertical-align:top;">:</td><td><div>&lt;socket._fileobject object at 0x076E3FB0&gt;</div></td></tr><tr><td style="font-weight:bold;vertical-align:top;">wsgi_multiprocess</td><td style="vertical-align:top;">:</td><td><div>False</div></td></tr><tr><td style="font-weight:bold;vertical-align:top;">wsgi_multithread</td><td style="vertical-align:top;">:</td><td><div>True</div></td></tr><tr><td style="font-weight:bold;vertical-align:top;">wsgi_run_once</td><td style="vertical-align:top;">:</td><td><div>False</div></td></tr><tr><td style="font-weight:bold;vertical-align:top;">wsgi_url_scheme</td><td style="vertical-align:top;">:</td><td><div>http</div></td></tr><tr><td style="font-weight:bold;vertical-align:top;">wsgi_version</td><td style="vertical-align:top;">:</td><td><div><table><tr><td><div>1</div></td></tr><tr><td><div>0</div></td></tr></table></div></td></tr></table></div></td></tr><tr><td style="font-weight:bold;vertical-align:top;">extension</td><td style="vertical-align:top;">:</td><td><div>html</div></td></tr><tr><td style="font-weight:bold;vertical-align:top;">folder</td><td style="vertical-align:top;">:</td><td><div>C:\\Users\\Wesly\\Desktop\\UCSC-Hack-2017\\applications\\ourhours\\</div></td></tr><tr><td style="font-weight:bold;vertical-align:top;">function</td><td style="vertical-align:top;">:</td><td><div>event_page</div></td></tr><tr><td style="font-weight:bold;vertical-align:top;">global_settings</td><td style="vertical-align:top;">:</td><td><div><table><tr><td style="font-weight:bold;vertical-align:top;">app_folders</td><td style="vertical-align:top;">:</td><td><div>set([&#x27;C:\\\\Users\\\\Wesly\\\\Desktop\\\\UCSC-Hack-2017\\\\applications\\\\welcome\\\\&#x27;, &#x27;C:\\\\Users\\\\Wesly\\\\Desktop\\\\UCSC-Hack-2017\\\\applications\\\\examples\\\\&#x27;, &#x27;C:\\\\Users\\\\Wesly\\\\Desktop\\\\UCSC-Hack-2017\\\\applications\\\\ourhours\\\\&#x27;, &#x27;C:\\\\Users\\\\Wesly\\\\Desktop\\\\UCSC-Hack-2017\\\\applications\\\\admin\\\\&#x27;])</div></td></tr><tr><td style="font-weight:bold;vertical-align:top;">applications_parent</td><td style="vertical-align:top;">:</td><td><div>C:\\Users\\Wesly\\Desktop\\UCSC-Hack-2017</div></td></tr><tr><td style="font-weight:bold;vertical-align:top;">cmd_args</td><td style="vertical-align:top;">:</td><td><div><table></table></div></td></tr><tr><td style="font-weight:bold;vertical-align:top;">cmd_options</td><td style="vertical-align:top;">:</td><td><div>&lt;Values at 0x2ddaeb8: {&#x27;verbose&#x27;: False, &#x27;ip&#x27;: &#x27;127.0.0.1&#x27;, &#x27;debuglevel&#x27;: 30, &#x27;with_scheduler&#x27;: False, &#x27;shutdown_timeout&#x27;: 5, &#x27;taskbar&#x27;: False, &#x27;with_coverage&#x27;: False, &#x27;pid_filename&#x27;: &#x27;httpserver.pid&#x27;, &#x27;maxthreads&#x27;: None, &#x27;softcron&#x27;: False, &#x27;server_name&#x27;: &#x27;DESKTOP-GDD7DCK&#x27;, &#x27;bpython&#x27;: False, &#x27;nogui&#x27;: False, &#x27;port&#x27;: 8000, &#x27;print_errors&#x27;: False, &#x27;extcron&#x27;: False, &#x27;runcron&#x27;: False, &#x27;run_system_tests&#x27;: False, &#x27;test&#x27;: None, &#x27;folder&#x27;: &#x27;C:\\\\Users\\\\Wesly\\\\Desktop\\\\UCSC-Hack-2017&#x27;, &#x27;config&#x27;: &#x27;&#x27;, &#x27;minthreads&#x27;: None, &#x27;shell&#x27;: None, &#x27;run&#x27;: &#x27;&#x27;, &#x27;log_filename&#x27;: &#x27;httpserver.log&#x27;, &#x27;profiler_dir&#x27;: None, &#x27;args&#x27;: [&#x27;&#x27;], &#x27;socket_timeout&#x27;: 5, &#x27;ssl_ca_certificate&#x27;: None, &#x27;scheduler&#x27;: None, &#x27;interfaces&#x27;: None, &#x27;ssl_private_key&#x27;: &#x27;&#x27;, &#x27;gae&#x27;: None, &#x27;password&#x27;: &#x27;******&#x27;, &#x27;request_queue_size&#x27;: 5, &#x27;ssl_certificate&#x27;: &#x27;&#x27;, &#x27;cronjob&#x27;: False, &#x27;numthreads&#x27;: None, &#x27;quiet&#x27;: False, &#x27;import_models&#x27;: False, &#x27;timeout&#x27;: 10, &#x27;plain&#x27;: False, &#x27;nobanner&#x27;: False}&gt;</div></td></tr><tr><td style="font-weight:bold;vertical-align:top;">db_sessions</td><td style="vertical-align:top;">:</td><td><div>set([])</div></td></tr><tr><td style="font-weight:bold;vertical-align:top;">debugging</td><td style="vertical-align:top;">:</td><td><div>True</div></td></tr><tr><td style="font-weight:bold;vertical-align:top;">gluon_parent</td><td style="vertical-align:top;">:</td><td><div>C:\\Users\\Wesly\\Desktop\\UCSC-Hack-2017</div></td></tr><tr><td style="font-weight:bold;vertical-align:top;">is_jython</td><td style="vertical-align:top;">:</td><td><div>False</div></td></tr><tr><td style="font-weight:bold;vertical-align:top;">is_pypy</td><td style="vertical-align:top;">:</td><td><div>False</div></td></tr><tr><td style="font-weight:bold;vertical-align:top;">is_source</td><td style="vertical-align:top;">:</td><td><div>False</div></td></tr><tr><td style="font-weight:bold;vertical-align:top;">local_hosts</td><td style="vertical-align:top;">:</td><td><div><table><tr><td><div>fe80::81f2:e7ae:7efe:f1e7%23</div></td></tr><tr><td><div>DESKTOP-GDD7DCK</div></td></tr><tr><td><div>::ffff:127.0.0.1</div></td></tr><tr><td><div>::1</div></td></tr><tr><td><div>fe80::5efe:192.168.1.135%21</div></td></tr><tr><td><div>192.168.1.135</div></td></tr><tr><td><div>fe80::e941:c1cf:aca3:e27d%22</div></td></tr><tr><td><div>127.0.0.1</div></td></tr><tr><td><div>192.168.56.1</div></td></tr></table></div></td></tr><tr><td style="font-weight:bold;vertical-align:top;">web2py_version</td><td style="vertical-align:top;">:</td><td><div>2.14.6-stable+timestamp.2016.05.10.00.21.47</div></td></tr></table></div></td></tr><tr><td style="font-weight:bold;vertical-align:top;">is_https</td><td style="vertical-align:top;">:</td><td><div>False</div></td></tr><tr><td style="font-weight:bold;vertical-align:top;">is_local</td><td style="vertical-align:top;">:</td><td><div>True</div></td></tr><tr><td style="font-weight:bold;vertical-align:top;">is_restful</td><td style="vertical-align:top;">:</td><td><div>False</div></td></tr><tr><td style="font-weight:bold;vertical-align:top;">is_scheduler</td><td style="vertical-align:top;">:</td><td><div>False</div></td></tr><tr><td style="font-weight:bold;vertical-align:top;">is_shell</td><td style="vertical-align:top;">:</td><td><div>False</div></td></tr><tr><td style="font-weight:bold;vertical-align:top;">now</td><td style="vertical-align:top;">:</td><td><div>datetime.datetime(2017, 1, 21, 20, 51, 37, 386000)</div></td></tr><tr><td style="font-weight:bold;vertical-align:top;">raw_args</td><td style="vertical-align:top;">:</td><td><div>21</div></td></tr><tr><td style="font-weight:bold;vertical-align:top;">raw_extension</td><td style="vertical-align:top;">:</td><td><div>None</div></td></tr><tr><td style="font-weight:bold;vertical-align:top;">url</td><td style="vertical-align:top;">:</td><td><div>/ourhours/default/event_page/21</div></td></tr><tr><td style="font-weight:bold;vertical-align:top;">utcnow</td><td style="vertical-align:top;">:</td><td><div>datetime.datetime(2017, 1, 22, 4, 51, 37, 386000)</div></td></tr><tr><td style="font-weight:bold;vertical-align:top;">wsgi</td><td style="vertical-align:top;">:</td><td><div>&lt;gluon.main.LazyWSGI object at 0x07932990&gt;</div></td></tr></table></div>'
tRp70
sS'frames'
p71
(lp72
(dp73
S'file'
p74
S'C:\\Users\\Wesly\\Desktop\\UCSC-Hack-2017\\gluon\\restricted.py'
p75
sS'dump'
p76
(dp77
S'environment'
p78
S"{'A': <class 'gluon.html.A'>, 'ANY_OF': <class 'gluon.validators.ANY_OF'>, 'ASSIGNJS': <function ASSIGNJS>, 'Auth': <class 'gluon.tools.Auth'>, 'B': <class 'gluon.html.B'>, 'BEAUTIFY': <class 'gluon.html.BEAUTIFY'>, 'BODY': <class 'gluon.html.BODY'>, 'BR': <class 'gluon.html.BR'>, 'BUTTON': <class 'gluon.html.BUTTON'>, 'CAT': <class 'gluon.html.CAT'>, ...}"
p79
sS'ccode'
p80
S'<code object <module> at 086B00B0, file "C:\\User...cations\\ourhours\\controllers/default.py", line 1>'
p81
ssS'lnum'
p82
I227
sS'lines'
p83
(dp84
I224
S'            ccode = code'
p85
sI225
S'        else:'
p86
sI226
S'            ccode = compile2(code, layer)'
p87
sI227
S'        exec ccode in environment'
p88
sI228
S'    except HTTP:'
p89
sI229
S'        raise'
p90
sI230
S'    except RestrictedError:'
p91
sI231
S'        # do not encapsulate (obfuscate) the original RestrictedError'
p92
sI222
S'    try:'
p93
sI223
S'        if isinstance(code, types.CodeType):'
p94
ssS'call'
p95
S"(code='from gluon.tools import Mail\\nimport imaplib\\nimpo...ws])\\nresponse._vars=response._caller(event_page)\\n', environment={'A': <class 'gluon.html.A'>, 'ANY_OF': <class 'gluon.validators.ANY_OF'>, 'ASSIGNJS': <function ASSIGNJS>, 'Auth': <class 'gluon.tools.Auth'>, 'B': <class 'gluon.html.B'>, 'BEAUTIFY': <class 'gluon.html.BEAUTIFY'>, 'BODY': <class 'gluon.html.BODY'>, 'BR': <class 'gluon.html.BR'>, 'BUTTON': <class 'gluon.html.BUTTON'>, 'CAT': <class 'gluon.html.CAT'>, ...}, layer=r'C:\\Users\\Wesly\\Desktop\\UCSC-Hack-2017\\applications\\ourhours\\controllers/default.py')"
p96
sS'func'
p97
S'restricted'
p98
sa(dp99
g74
S'C:\\Users\\Wesly\\Desktop\\UCSC-Hack-2017\\applications\\ourhours\\controllers\\default.py'
p100
sg76
(dp101
sg82
I67
sg83
(dp102
I64
S'    rows = db().select(db.realtimedata.id, db.realtimedata.FlowRate,'
p103
sI65
S'                       limitby=(0, 3), orderby=~db.realtimedata.id)'
p104
sI66
S'    return json.dumps([[r.id, r.FlowRate] for r in rows])'
p105
sI57
S'def download():'
p106
sI58
S'    return response.download(request, db)'
p107
sI59
S''
sI60
S'def picture():'
p108
sI61
S'    return response.view(request, db)'
p109
sI62
S''
sI63
S'def getdata():'
p110
ssg95
S'()'
p111
sg97
S'<module>'
p112
sa(dp113
g74
S'C:\\Users\\Wesly\\Desktop\\UCSC-Hack-2017\\gluon\\globals.py'
p114
sg76
(dp115
S'self'
p116
S'undefined'
p117
sS'f'
S'<function event_page>'
p118
ssg82
I417
sg83
(dp119
I416
S'        self._vars = None'
p120
sI417
S'        self._caller = lambda f: f()'
p121
sI418
S'        self._view_environment = None'
p122
sI419
S'        self._custom_commit = None'
p123
sI420
S'        self._custom_rollback = None'
p124
sI421
S"        self.generic_patterns = ['*']"
p125
sI412
S"        self.flash = ''            # used by the default view layout"
p126
sI413
S'        self.meta = Storage()      # used by web2py_ajax.html'
p127
sI414
S'        self.menu = []             # used by the default view layout'
p128
sI415
S'        self.files = []            # used by web2py_ajax.html'
p129
ssg95
S'(f=<function event_page>)'
p130
sg97
S'<lambda>'
p131
sa(dp132
g74
S'C:\\Users\\Wesly\\Desktop\\UCSC-Hack-2017\\applications\\ourhours\\controllers\\default.py'
p133
sg76
(dp134
S'indent'
p135
g117
sS'default'
p136
g117
sS'builtinTrue'
p137
S'True'
p138
sS').select'
p139
g117
sS'builtinstr'
p140
S"<type 'str'>"
p141
sS'db.event.ALL'
p142
S'<pydal.helpers.classes.SQLALL object>'
p143
sS'global db'
p144
S'<DAL uri="sqlite://storage.sqlite">'
p145
sS'db.event'
p146
S'<Table event (id, event_allDay, event_name, event_id, event_description, event_code, start, end)>'
p147
sS'sort_keys'
p148
g117
sS'event'
p149
g117
ssg82
I48
sg83
(dp150
I43
S'    #currently faulty, returns all events'
p151
sI44
S"    g = db.groups(request.args(0,cast=int)) or redirect(URL('index'))"
p152
sI45
S'    db.event.event_id.default = g.id'
p153
sI46
S'    db.event.event_code.default = g.group_code'
p154
sI47
S'    # event = db(db.event.event_id == g.id).select()'
p155
sI48
S'    event = db(db.event).select(db.event.ALL, indent=4, sort_keys=True, default=str)'
p156
sI49
S'    json_data = json.dumps([[e.event_allDay, e.event_name, e.event_id, e.start, e.end, e.event_description] for e in event])'
p157
sI50
S'    response.flash = json_data'
p158
sI51
S''
sI52
S'    return locals()'
p159
ssg95
S'()'
p160
sg97
S'event_page'
p161
sa(dp162
g74
S'C:\\Users\\Wesly\\Desktop\\UCSC-Hack-2017\\gluon\\packages\\dal\\pydal\\objects.py'
p163
sg76
(dp164
S'self.query'
p165
S'<Query (event.id IS NOT NULL)>'
p166
sS'adapter.select'
p167
S'<bound method SQLiteAdapter.select of <pydal.adapters.sqlite.SQLiteAdapter object>>'
p168
sS'fields'
p169
S'[<pydal.objects.Field object>, <pydal.objects.Field object>, <pydal.objects.Field object>, <pydal.objects.Field object>, <pydal.objects.Field object>, <pydal.objects.Field object>, <pydal.objects.Field object>, <pydal.objects.Field object>]'
p170
sS'adapter'
p171
S'<pydal.adapters.sqlite.SQLiteAdapter object>'
p172
sS'attributes'
p173
S"{'default': <type 'str'>, 'indent': 4, 'sort_keys': True}"
p174
sS'self'
p175
S'<Set (event.id IS NOT NULL)>'
p176
ssg82
I2020
sg83
(dp177
I2016
S"                                    attributes.get('left', None),"
p178
sI2017
S"                                    attributes.get('orderby', None),"
p179
sI2018
S"                                    attributes.get('groupby', None))"
p180
sI2019
S'        fields = adapter.expand_all(fields, tablenames)'
p181
sI2020
S'        return adapter.select(self.query, fields, attributes)'
p182
sI2021
S''
sI2022
S'    def iterselect(self, *fields, **attributes):'
p183
sI2023
S'        adapter = self.db._adapter'
p184
sI2024
S'        tablenames = adapter.tables(self.query,'
p185
sI2015
S"                                    attributes.get('join', None),"
p186
ssg95
S"(self=<Set (event.id IS NOT NULL)>, *fields=[<pydal.objects.Field object>, <pydal.objects.Field object>, <pydal.objects.Field object>, <pydal.objects.Field object>, <pydal.objects.Field object>, <pydal.objects.Field object>, <pydal.objects.Field object>, <pydal.objects.Field object>], **attributes={'default': <type 'str'>, 'indent': 4, 'sort_keys': True})"
p187
sg97
S'select'
p188
sa(dp189
g74
S'C:\\Users\\Wesly\\Desktop\\UCSC-Hack-2017\\gluon\\packages\\dal\\pydal\\adapters\\sqlite.py'
p190
sg76
(dp191
S'fields'
p192
S'[<pydal.objects.Field object>, <pydal.objects.Field object>, <pydal.objects.Field object>, <pydal.objects.Field object>, <pydal.objects.Field object>, <pydal.objects.Field object>, <pydal.objects.Field object>, <pydal.objects.Field object>]'
p193
sS'self'
p194
S'<pydal.adapters.sqlite.SQLiteAdapter object>'
p195
sS').select'
p196
S'<bound method SQLiteAdapter.select of <pydal.adapters.sqlite.SQLiteAdapter object>>'
p197
sS'attributes'
p198
S"{'default': <type 'str'>, 'indent': 4, 'sort_keys': True}"
p199
sS'global SQLiteAdapter'
p200
S"<class 'pydal.adapters.sqlite.SQLiteAdapter'>"
p201
sS'query'
p202
S'<Query (event.id IS NOT NULL)>'
p203
sS'builtinsuper'
p204
S"<type 'super'>"
p205
ssg82
I123
sg83
(dp206
I118
S'        Note that the entire database, rather than one record, is locked'
p207
sI119
S'        (it will be locked eventually anyway by the following UPDATE).'
p208
sI120
S'        """'
p209
sI121
S"        if attributes.get('for_update', False) and not 'cache' in attributes:"
p210
sI122
S"            self.execute('BEGIN IMMEDIATE TRANSACTION;')"
p211
sI123
S'        return super(SQLiteAdapter, self).select(query, fields, attributes)'
p212
sI124
S''
sI125
S''
sI126
S'SPATIALLIBS = {'
p213
sI127
S"    'Windows':'mod_spatialite.dll',"
p214
ssg95
S"(self=<pydal.adapters.sqlite.SQLiteAdapter object>, query=<Query (event.id IS NOT NULL)>, fields=[<pydal.objects.Field object>, <pydal.objects.Field object>, <pydal.objects.Field object>, <pydal.objects.Field object>, <pydal.objects.Field object>, <pydal.objects.Field object>, <pydal.objects.Field object>, <pydal.objects.Field object>], attributes={'default': <type 'str'>, 'indent': 4, 'sort_keys': True})"
p215
sg97
g188
sa(dp216
g74
S'C:\\Users\\Wesly\\Desktop\\UCSC-Hack-2017\\gluon\\packages\\dal\\pydal\\adapters\\base.py'
p217
sg76
(dp218
S'self._select'
p219
S'<bound method SQLiteAdapter._select of <pydal.adapters.sqlite.SQLiteAdapter object>>'
p220
sS'fields'
p221
S'[<pydal.objects.Field object>, <pydal.objects.Field object>, <pydal.objects.Field object>, <pydal.objects.Field object>, <pydal.objects.Field object>, <pydal.objects.Field object>, <pydal.objects.Field object>, <pydal.objects.Field object>]'
p222
sS'self'
p223
S'<pydal.adapters.sqlite.SQLiteAdapter object>'
p224
sS'sql'
p225
g117
sS'query'
p226
S'<Query (event.id IS NOT NULL)>'
p227
sS'attributes'
p228
S"{'default': <type 'str'>, 'indent': 4, 'sort_keys': True}"
p229
ssg82
I1283
sg83
(dp230
I1280
S'        """'
p231
sI1281
S'        Always returns a Rows object, possibly empty.'
p232
sI1282
S'        """'
p233
sI1283
S'        sql = self._select(query, fields, attributes)'
p234
sI1284
S"        cache = attributes.get('cache', None)"
p235
sI1285
S"        if cache and attributes.get('cacheable',False):"
p236
sI1286
S"            del attributes['cache']"
p237
sI1287
S'            (cache_model, time_expire) = cache'
p238
sI1278
S''
sI1279
S'    def select(self, query, fields, attributes):'
p239
ssg95
S"(self=<pydal.adapters.sqlite.SQLiteAdapter object>, query=<Query (event.id IS NOT NULL)>, fields=[<pydal.objects.Field object>, <pydal.objects.Field object>, <pydal.objects.Field object>, <pydal.objects.Field object>, <pydal.objects.Field object>, <pydal.objects.Field object>, <pydal.objects.Field object>, <pydal.objects.Field object>], attributes={'default': <type 'str'>, 'indent': 4, 'sort_keys': True})"
p240
sg97
g188
sa(dp241
g74
S'C:\\Users\\Wesly\\Desktop\\UCSC-Hack-2017\\gluon\\packages\\dal\\pydal\\adapters\\base.py'
p242
sg76
(dp243
S'builtinSyntaxError'
p244
S"<type 'exceptions.SyntaxError'>"
p245
sS'key'
p246
S"'default'"
p247
ssg82
I1091
sg83
(dp248
I1088
S'    def _select(self, query, fields, attributes):'
p249
sI1089
S'        tables = self.tables'
p250
sI1090
S'        for key in set(attributes.keys())-SELECT_ARGS:'
p251
sI1091
S"            raise SyntaxError('invalid select attribute: %s' % key)"
p252
sI1092
S'        args_get = attributes.get'
p253
sI1093
S'        tablenames = tables(query)'
p254
sI1094
S'        tablenames_for_common_filters = tablenames'
p255
sI1095
S"        outer_scoped = [t._tablename for t in args_get('outer_scoped',[])]"
p256
sI1086
S'        return new_fields'
p257
sI1087
S''
ssg95
S"(self=<pydal.adapters.sqlite.SQLiteAdapter object>, query=<Query (event.id IS NOT NULL)>, fields=[<pydal.objects.Field object>, <pydal.objects.Field object>, <pydal.objects.Field object>, <pydal.objects.Field object>, <pydal.objects.Field object>, <pydal.objects.Field object>, <pydal.objects.Field object>, <pydal.objects.Field object>], attributes={'default': <type 'str'>, 'indent': 4, 'sort_keys': True})"
p258
sg97
S'_select'
p259
sasS'pyver'
p260
S'Python 2.7.9: C:\\Users\\Wesly\\Desktop\\UCSC-Hack-2017\\web2py.exe (prefix: )'
p261
sS'session'
p262
g69
(S's6\x01\x00\x00<div><table><tr><td style="font-weight:bold;vertical-align:top;">last_orderby</td><td style="vertical-align:top;">:</td><td><div>None</div></td></tr><tr><td style="font-weight:bold;vertical-align:top;">last_query</td><td style="vertical-align:top;">:</td><td><div>db.event.id&gt;0</div></td></tr></table></div>'
tRp263
sS'etype'
p264
S"<type 'exceptions.SyntaxError'>"
p265
sS'date'
p266
S'Sat Jan 21 20:51:37 2017'
p267
sS'response'
p268
g69
(S's\xc1\x16\x00\x00<div><table><tr><td style="font-weight:bold;vertical-align:top;">body</td><td style="vertical-align:top;">:</td><td><div>&lt;cStringIO.StringO object at 0x087CBCE0&gt;</div></td></tr><tr><td style="font-weight:bold;vertical-align:top;">cookies</td><td style="vertical-align:top;">:</td><td><div><table><tr><td style="font-weight:bold;vertical-align:top;">session_id_ourhours</td><td style="vertical-align:top;">:</td><td><div>127.0.0.1-6851877e-30ab-4140-b5cf-c9fa885e603e<table><tr><td style="font-weight:bold;vertical-align:top;">comment</td><td style="vertical-align:top;">:</td><td><div></div></td></tr><tr><td style="font-weight:bold;vertical-align:top;">domain</td><td style="vertical-align:top;">:</td><td><div></div></td></tr><tr><td style="font-weight:bold;vertical-align:top;">expires</td><td style="vertical-align:top;">:</td><td><div></div></td></tr><tr><td style="font-weight:bold;vertical-align:top;">httponly</td><td style="vertical-align:top;">:</td><td><div></div></td></tr><tr><td style="font-weight:bold;vertical-align:top;">max-age</td><td style="vertical-align:top;">:</td><td><div></div></td></tr><tr><td style="font-weight:bold;vertical-align:top;">path</td><td style="vertical-align:top;">:</td><td><div>/</div></td></tr><tr><td style="font-weight:bold;vertical-align:top;">secure</td><td style="vertical-align:top;">:</td><td><div></div></td></tr><tr><td style="font-weight:bold;vertical-align:top;">version</td><td style="vertical-align:top;">:</td><td><div></div></td></tr></table></div></td></tr></table></div></td></tr><tr><td style="font-weight:bold;vertical-align:top;">delimiters</td><td style="vertical-align:top;">:</td><td><div><table><tr><td><div>{{</div></td></tr><tr><td><div>}}</div></td></tr></table></div></td></tr><tr><td style="font-weight:bold;vertical-align:top;">files</td><td style="vertical-align:top;">:</td><td><div><table></table></div></td></tr><tr><td style="font-weight:bold;vertical-align:top;">flash</td><td style="vertical-align:top;">:</td><td><div></div></td></tr><tr><td style="font-weight:bold;vertical-align:top;">form_label_separator</td><td style="vertical-align:top;">:</td><td><div>: </div></td></tr><tr><td style="font-weight:bold;vertical-align:top;">formstyle</td><td style="vertical-align:top;">:</td><td><div>table3cols</div></td></tr><tr><td style="font-weight:bold;vertical-align:top;">generic_patterns</td><td style="vertical-align:top;">:</td><td><div><table><tr><td><div>*</div></td></tr></table></div></td></tr><tr><td style="font-weight:bold;vertical-align:top;">headers</td><td style="vertical-align:top;">:</td><td><div><table><tr><td style="font-weight:bold;vertical-align:top;">X-Powered-By</td><td style="vertical-align:top;">:</td><td><div>web2py</div></td></tr></table></div></td></tr><tr><td style="font-weight:bold;vertical-align:top;">menu</td><td style="vertical-align:top;">:</td><td><div><table><tr><td><div><table><tr><td><div>Home</div></td></tr><tr><td><div>False</div></td></tr><tr><td><div>/ourhours/default/index</div></td></tr></table></div></td></tr></table></div></td></tr><tr><td style="font-weight:bold;vertical-align:top;">meta</td><td style="vertical-align:top;">:</td><td><div><table></table></div></td></tr><tr><td style="font-weight:bold;vertical-align:top;">models_to_run</td><td style="vertical-align:top;">:</td><td><div><table><tr><td><div>^\\w+\\.py$</div></td></tr><tr><td><div>^default/\\w+\\.py$</div></td></tr><tr><td><div>^default/event_page/\\w+\\.py$</div></td></tr></table></div></td></tr><tr><td style="font-weight:bold;vertical-align:top;">postprocessing</td><td style="vertical-align:top;">:</td><td><div><table></table></div></td></tr><tr><td style="font-weight:bold;vertical-align:top;">session_client</td><td style="vertical-align:top;">:</td><td><div>127.0.0.1</div></td></tr><tr><td style="font-weight:bold;vertical-align:top;">session_cookie_compression_level</td><td style="vertical-align:top;">:</td><td><div>None</div></td></tr><tr><td style="font-weight:bold;vertical-align:top;">session_cookie_expires</td><td style="vertical-align:top;">:</td><td><div>None</div></td></tr><tr><td style="font-weight:bold;vertical-align:top;">session_data_name</td><td style="vertical-align:top;">:</td><td><div>session_data_ourhours</div></td></tr><tr><td style="font-weight:bold;vertical-align:top;">session_file</td><td style="vertical-align:top;">:</td><td><div>None</div></td></tr><tr><td style="font-weight:bold;vertical-align:top;">session_filename</td><td style="vertical-align:top;">:</td><td><div>C:\\Users\\Wesly\\Desktop\\UCSC-Hack-2017\\applications\\ourhours\\sessions\\127.0.0.1-6851877e-30ab-4140-b5cf-c9fa885e603e</div></td></tr><tr><td style="font-weight:bold;vertical-align:top;">session_hash</td><td style="vertical-align:top;">:</td><td><div>0f9a9bed8542c84cd1960a773a6fc7a6</div></td></tr><tr><td style="font-weight:bold;vertical-align:top;">session_id</td><td style="vertical-align:top;">:</td><td><div>True</div></td></tr><tr><td style="font-weight:bold;vertical-align:top;">session_id_name</td><td style="vertical-align:top;">:</td><td><div>session_id_ourhours</div></td></tr><tr><td style="font-weight:bold;vertical-align:top;">session_masterapp</td><td style="vertical-align:top;">:</td><td><div>ourhours</div></td></tr><tr><td style="font-weight:bold;vertical-align:top;">session_new</td><td style="vertical-align:top;">:</td><td><div>True</div></td></tr><tr><td style="font-weight:bold;vertical-align:top;">session_storage_type</td><td style="vertical-align:top;">:</td><td><div>cookie</div></td></tr><tr><td style="font-weight:bold;vertical-align:top;">status</td><td style="vertical-align:top;">:</td><td><div>200</div></td></tr><tr><td style="font-weight:bold;vertical-align:top;">view</td><td style="vertical-align:top;">:</td><td><div>default/event_page.html</div></td></tr></table></div>'
tRp269
sS'locals'
p270
(dp271
S'tables'
p272
S'<bound method SQLiteAdapter.tables of <pydal.adapters.sqlite.SQLiteAdapter object>>'
p273
sS'fields'
p274
S'[<pydal.objects.Field object>, <pydal.objects.Field object>, <pydal.objects.Field object>, <pydal.objects.Field object>, <pydal.objects.Field object>, <pydal.objects.Field object>, <pydal.objects.Field object>, <pydal.objects.Field object>]'
p275
sS'self'
p276
S'<pydal.adapters.sqlite.SQLiteAdapter object>'
p277
sS'key'
p278
S"'default'"
p279
sS'query'
p280
S'<Query (event.id IS NOT NULL)>'
p281
sS'attributes'
p282
S"{'default': <type 'str'>, 'indent': 4, 'sort_keys': True}"
p283
sssS'traceback'
p284
S'Traceback (most recent call last):\n  File "C:\\Users\\Wesly\\Desktop\\UCSC-Hack-2017\\gluon\\restricted.py", line 227, in restricted\n    exec ccode in environment\n  File "C:\\Users\\Wesly\\Desktop\\UCSC-Hack-2017\\applications\\ourhours\\controllers/default.py", line 67, in <module>\n  File "C:\\Users\\Wesly\\Desktop\\UCSC-Hack-2017\\gluon\\globals.py", line 417, in <lambda>\n    self._caller = lambda f: f()\n  File "C:\\Users\\Wesly\\Desktop\\UCSC-Hack-2017\\applications\\ourhours\\controllers/default.py", line 48, in event_page\n    event = db(db.event).select(db.event.ALL, indent=4, sort_keys=True, default=str)\n  File "C:\\Users\\Wesly\\Desktop\\UCSC-Hack-2017\\gluon\\packages\\dal\\pydal\\objects.py", line 2020, in select\n    return adapter.select(self.query, fields, attributes)\n  File "C:\\Users\\Wesly\\Desktop\\UCSC-Hack-2017\\gluon\\packages\\dal\\pydal\\adapters\\sqlite.py", line 123, in select\n    return super(SQLiteAdapter, self).select(query, fields, attributes)\n  File "C:\\Users\\Wesly\\Desktop\\UCSC-Hack-2017\\gluon\\packages\\dal\\pydal\\adapters\\base.py", line 1283, in select\n    sql = self._select(query, fields, attributes)\n  File "C:\\Users\\Wesly\\Desktop\\UCSC-Hack-2017\\gluon\\packages\\dal\\pydal\\adapters\\base.py", line 1091, in _select\n    raise SyntaxError(\'invalid select attribute: %s\' % key)\nSyntaxError: invalid select attribute: default\n'
p285
s.