(dp1
S'output'
p2
S"<type 'exceptions.AttributeError'> 'NoneType' object has no attribute 'id'"
p3
sS'layer'
p4
S'C:\\Users\\Wesly\\Desktop\\UCSC-Hack-2017\\applications\\ourhours\\controllers/default.py'
p5
sS'code'
p6
S"from gluon.tools import Mail\nimport imaplib\nimport email\nfrom email.header import decode_header\ndef index():\n    groups = db(db.groups).select(db.groups.ALL)\n    return locals()\n\n\ndef create():\n    form = SQLFORM(db.groups, deletable=True).process()\n    if form.accepted:\n        response.flash = 'Success'\n        redirect(URL('index'))\n    return locals()\n\ndef ecreate():\n    form = SQLFORM(db.event, deletable=True).process()\n    if form.accepted:\n        response.flash = 'Success'\n        redirect(URL('index'))\n    return locals()\n\ndef event_page():\n    g = db.groups(request.args(0,cast=int))\n    db.event.event_code.default = g.id\n    event = db(db.event.event_code == g.id).select(db.event.ALL)\n    return locals()\n\nresponse._vars=response._caller(event_page)\n"
p7
sS'snapshot'
p8
(dp9
S'exception'
p10
(dp11
S'__hash__'
p12
S"<method-wrapper '__hash__' of exceptions.AttributeError object>"
p13
sS'__setattr__'
p14
S"<method-wrapper '__setattr__' of exceptions.AttributeError object>"
p15
sS'__reduce_ex__'
p16
S'<built-in method __reduce_ex__ of exceptions.AttributeError object>'
p17
sS'__getslice__'
p18
S"<method-wrapper '__getslice__' of exceptions.AttributeError object>"
p19
sS'__getitem__'
p20
S"<method-wrapper '__getitem__' of exceptions.AttributeError object>"
p21
sS'__setstate__'
p22
S'<built-in method __setstate__ of exceptions.AttributeError object>'
p23
sS'__reduce__'
p24
S'<built-in method __reduce__ of exceptions.AttributeError object>'
p25
sS'__str__'
p26
S"<method-wrapper '__str__' of exceptions.AttributeError object>"
p27
sS'__format__'
p28
S'<built-in method __format__ of exceptions.AttributeError object>'
p29
sS'__getattribute__'
p30
S"<method-wrapper '__getattribute__' of exceptions.AttributeError object>"
p31
sS'__class__'
p32
S"<type 'exceptions.AttributeError'>"
p33
sS'__unicode__'
p34
S'<built-in method __unicode__ of exceptions.AttributeError object>'
p35
sS'__delattr__'
p36
S"<method-wrapper '__delattr__' of exceptions.AttributeError object>"
p37
sS'__subclasshook__'
p38
S'<built-in method __subclasshook__ of type object>'
p39
sS'__repr__'
p40
S"<method-wrapper '__repr__' of exceptions.AttributeError object>"
p41
sS'args'
p42
S'("\'NoneType\' object has no attribute \'id\'",)'
p43
sS'__dict__'
p44
S'{}'
p45
sS'__sizeof__'
p46
S'<built-in method __sizeof__ of exceptions.AttributeError object>'
p47
sS'__doc__'
p48
S"'Attribute not found.'"
p49
sS'__init__'
p50
S"<method-wrapper '__init__' of exceptions.AttributeError object>"
p51
sS'__new__'
p52
S'<built-in method __new__ of type object>'
p53
ssS'evalue'
p54
S"'NoneType' object has no attribute 'id'"
p55
sS'request'
p56
cgluon.html
XML_unpickle
p57
(S'se\x8c\x00\x00<div><table><tr><td style="font-weight:bold;vertical-align:top;">ajax</td><td style="vertical-align:top;">:</td><td><div>False</div></td></tr><tr><td style="font-weight:bold;vertical-align:top;">application</td><td style="vertical-align:top;">:</td><td><div>ourhours</div></td></tr><tr><td style="font-weight:bold;vertical-align:top;">args</td><td style="vertical-align:top;">:</td><td><div><table><tr><td><div>123</div></td></tr></table></div></td></tr><tr><td style="font-weight:bold;vertical-align:top;">cid</td><td style="vertical-align:top;">:</td><td><div>None</div></td></tr><tr><td style="font-weight:bold;vertical-align:top;">client</td><td style="vertical-align:top;">:</td><td><div>127.0.0.1</div></td></tr><tr><td style="font-weight:bold;vertical-align:top;">controller</td><td style="vertical-align:top;">:</td><td><div>default</div></td></tr><tr><td style="font-weight:bold;vertical-align:top;">cookies</td><td style="vertical-align:top;">:</td><td><div><table><tr><td style="font-weight:bold;vertical-align:top;">resolution</td><td style="vertical-align:top;">:</td><td><div>1349<table><tr><td style="font-weight:bold;vertical-align:top;">comment</td><td style="vertical-align:top;">:</td><td><div></div></td></tr><tr><td style="font-weight:bold;vertical-align:top;">domain</td><td style="vertical-align:top;">:</td><td><div></div></td></tr><tr><td style="font-weight:bold;vertical-align:top;">expires</td><td style="vertical-align:top;">:</td><td><div></div></td></tr><tr><td style="font-weight:bold;vertical-align:top;">httponly</td><td style="vertical-align:top;">:</td><td><div></div></td></tr><tr><td style="font-weight:bold;vertical-align:top;">max-age</td><td style="vertical-align:top;">:</td><td><div></div></td></tr><tr><td style="font-weight:bold;vertical-align:top;">path</td><td style="vertical-align:top;">:</td><td><div></div></td></tr><tr><td style="font-weight:bold;vertical-align:top;">secure</td><td style="vertical-align:top;">:</td><td><div></div></td></tr><tr><td style="font-weight:bold;vertical-align:top;">version</td><td style="vertical-align:top;">:</td><td><div></div></td></tr></table></div></td></tr><tr><td style="font-weight:bold;vertical-align:top;">session_data_ourhours</td><td style="vertical-align:top;">:</td><td><div>a2331e7de8af762fd791345c28d205cd:wRDIvkmFhb7W9Vw47kFk6DntU3f6Z9GIJI2HxeEqcUkeEOA9tTIz5MttchsRk87YvkWnHhg1JqaEIjwYzX992MpTqxwi8izge-Ovgv15xhZp2Dxenp7e0k4FwSFpmQeYmNhVAn3W1mbQhcJe9dW8dj3RKKBCgYk-RjBxI8O4jmWVTiIC0ieYqmVO1gC6ZzWd54XyfrIt-SKgvIE8Ib1mN20yGyi7SyAVlSfUSPXBL2fuvWkVVhhOShDaQIRc1SPpu7uv33KcyTgVz9LWwSFexWR0RBD5Qi2kHnl_5ngjzs-gdVSXyZtNz_Lu-VpjkFIqJeOQdcyTBwhcdPLNdWcDnUrSnXKBecnZS_kaTezvQ63Kpn6MOtR7L-F8O4gun5MtU4jwvtTvjf5qIRpEcSnDILbqT642a1C2jxZrDEPat47la-RdQceJ8-1LbucjmscIXcijbpQHoHTz-j94tgJ8JCaIQUkRk_U4j5IWaKGuk9XKmugK7K8pUihqiyDvMV18thLP9Uz8ZDBerOwuojorwaWEbw2hXQ50qAeGfivQvcCZH_Q5hZlKRCGVlkSaL7pYEu74QHwVfGuGQqOQ6uhFZmqEA7N1AyW3t1g4hUIX90bvY15WiGRCcAq01sg4iVXGJaaZc7shjhx8-N3piYbk5Nso-ISTEZXGGpqYfTishd9oA6AxYzKdu3_19WwYDD1jUFgkuxnFrfyGRjSfTu4w3R-ly3cRdRVziXcsEFwqlrNXntTyjY-wFBsTZsxoYprFxFyQc0ZzKHIPNCH5ELjqlcq7lPJU078HKimRjeEVMNojhC5bVdrN1HjDCqYxbdL99skVDcMJOqg2N1UEQ_BLv7NupwspZhTVgnoPdHKdW5_VnTPbOBcKMFgjSxS8rLwwcvUVZzyyKCzCwkrH-EtSLkyPMYBh8fhlnP0rOIjLl1v46jmQXcfWLhVWagoGDOvgoMsSzq7WzU6AHIIWEgE3NUwWTfaC-hSw1NwZrE82E_JnRgj-Vzw9J0wLiQbfKAa0hQaopCIcVPaNKfOva_UVdtxx6yivhfZsDx8wbpb4tuYV6fp_xM-U9ZTSQj04TjIZO7teKnas6a98-Pfc0HmVci-iM3zO_Ig7K_L62Ls8aKLrImHg01_7Mwl0J3yGoC5sOOzxkp6NU1qHJvNUMdV-vJujIbEvpZQWLa0OfR92iJF1HGcHjcfWLAEF78e7ZRX7EthI0k5VG4M-vwZpinAphVTsO7XtJDtvm87dKjZxFsACHn4THS7j8yvZpSHlDI89XdvhFnZ0uKCRhq1Qs04QljR70A4_JeXl-WiGQslzJtZSVRF1IBrktGDDQs2u79cdrG-sNENc_iY-DjuqGg_ZW-gT6R_JmozR292j1WJmW8KupdOG0VNH5EL1ws3-XZxxhvnVcLbbIyZBLodY7b6uTqBr_8SfHr-rmMXoPwHMyILHVoySfClZR1BgB_M7YzhlsAlZ8YOiQVJJc1_Nxsck6gUisDesRwwnUZvuwvIrwBXxcEqmZRhDyjXMbRkZmpyvAIxS4xJ-NiWgN5pVlFCiMZ1JBbPQ7FC-XIhKWQ_FyqPPCPnlTG7dmaii4y3L6KPu-aTPWOLy-llqUE-8HQaBAFWbvw8iiRi8YQXqtAsGpPVMaXl8onh73KQIKHtMq0eppAK6Cm2TYlBo3p6eCedlbCBxtaWofCZUtLsP7XtFHpPXPtobz02lFF1CMg7_c-nqglmnRdZK6EqjSAEV0K7b8JL26TzvOUAy_2a9ZibJt24=<table><tr><td style="font-weight:bold;vertical-align:top;">comment</td><td style="vertical-align:top;">:</td><td><div></div></td></tr><tr><td style="font-weight:bold;vertical-align:top;">domain</td><td style="vertical-align:top;">:</td><td><div></div></td></tr><tr><td style="font-weight:bold;vertical-align:top;">expires</td><td style="vertical-align:top;">:</td><td><div></div></td></tr><tr><td style="font-weight:bold;vertical-align:top;">httponly</td><td style="vertical-align:top;">:</td><td><div></div></td></tr><tr><td style="font-weight:bold;vertical-align:top;">max-age</td><td style="vertical-align:top;">:</td><td><div></div></td></tr><tr><td style="font-weight:bold;vertical-align:top;">path</td><td style="vertical-align:top;">:</td><td><div></div></td></tr><tr><td style="font-weight:bold;vertical-align:top;">secure</td><td style="vertical-align:top;">:</td><td><div></div></td></tr><tr><td style="font-weight:bold;vertical-align:top;">version</td><td style="vertical-align:top;">:</td><td><div></div></td></tr></table></div></td></tr><tr><td style="font-weight:bold;vertical-align:top;">session_id_admin</td><td style="vertical-align:top;">:</td><td><div>127.0.0.1-55e6bcde-8e06-49b5-93cc-f5247a897c59<table><tr><td style="font-weight:bold;vertical-align:top;">comment</td><td style="vertical-align:top;">:</td><td><div></div></td></tr><tr><td style="font-weight:bold;vertical-align:top;">domain</td><td style="vertical-align:top;">:</td><td><div></div></td></tr><tr><td style="font-weight:bold;vertical-align:top;">expires</td><td style="vertical-align:top;">:</td><td><div></div></td></tr><tr><td style="font-weight:bold;vertical-align:top;">httponly</td><td style="vertical-align:top;">:</td><td><div></div></td></tr><tr><td style="font-weight:bold;vertical-align:top;">max-age</td><td style="vertical-align:top;">:</td><td><div></div></td></tr><tr><td style="font-weight:bold;vertical-align:top;">path</td><td style="vertical-align:top;">:</td><td><div></div></td></tr><tr><td style="font-weight:bold;vertical-align:top;">secure</td><td style="vertical-align:top;">:</td><td><div></div></td></tr><tr><td style="font-weight:bold;vertical-align:top;">version</td><td style="vertical-align:top;">:</td><td><div></div></td></tr></table></div></td></tr><tr><td style="font-weight:bold;vertical-align:top;">session_id_hackathon</td><td style="vertical-align:top;">:</td><td><div>127.0.0.1-e9d19e57-2c82-4246-95e2-3afb87897355<table><tr><td style="font-weight:bold;vertical-align:top;">comment</td><td style="vertical-align:top;">:</td><td><div></div></td></tr><tr><td style="font-weight:bold;vertical-align:top;">domain</td><td style="vertical-align:top;">:</td><td><div></div></td></tr><tr><td style="font-weight:bold;vertical-align:top;">expires</td><td style="vertical-align:top;">:</td><td><div></div></td></tr><tr><td style="font-weight:bold;vertical-align:top;">httponly</td><td style="vertical-align:top;">:</td><td><div></div></td></tr><tr><td style="font-weight:bold;vertical-align:top;">max-age</td><td style="vertical-align:top;">:</td><td><div></div></td></tr><tr><td style="font-weight:bold;vertical-align:top;">path</td><td style="vertical-align:top;">:</td><td><div></div></td></tr><tr><td style="font-weight:bold;vertical-align:top;">secure</td><td style="vertical-align:top;">:</td><td><div></div></td></tr><tr><td style="font-weight:bold;vertical-align:top;">version</td><td style="vertical-align:top;">:</td><td><div></div></td></tr></table></div></td></tr><tr><td style="font-weight:bold;vertical-align:top;">session_id_hw</td><td style="vertical-align:top;">:</td><td><div>127.0.0.1-23223d0c-fdad-4421-b0fa-bfb22452a98b<table><tr><td style="font-weight:bold;vertical-align:top;">comment</td><td style="vertical-align:top;">:</td><td><div></div></td></tr><tr><td style="font-weight:bold;vertical-align:top;">domain</td><td style="vertical-align:top;">:</td><td><div></div></td></tr><tr><td style="font-weight:bold;vertical-align:top;">expires</td><td style="vertical-align:top;">:</td><td><div></div></td></tr><tr><td style="font-weight:bold;vertical-align:top;">httponly</td><td style="vertical-align:top;">:</td><td><div></div></td></tr><tr><td style="font-weight:bold;vertical-align:top;">max-age</td><td style="vertical-align:top;">:</td><td><div></div></td></tr><tr><td style="font-weight:bold;vertical-align:top;">path</td><td style="vertical-align:top;">:</td><td><div></div></td></tr><tr><td style="font-weight:bold;vertical-align:top;">secure</td><td style="vertical-align:top;">:</td><td><div></div></td></tr><tr><td style="font-weight:bold;vertical-align:top;">version</td><td style="vertical-align:top;">:</td><td><div></div></td></tr></table></div></td></tr><tr><td style="font-weight:bold;vertical-align:top;">session_id_layouttest</td><td style="vertical-align:top;">:</td><td><div>127.0.0.1-9dd550cb-7d25-4599-add6-bbf406414416<table><tr><td style="font-weight:bold;vertical-align:top;">comment</td><td style="vertical-align:top;">:</td><td><div></div></td></tr><tr><td style="font-weight:bold;vertical-align:top;">domain</td><td style="vertical-align:top;">:</td><td><div></div></td></tr><tr><td style="font-weight:bold;vertical-align:top;">expires</td><td style="vertical-align:top;">:</td><td><div></div></td></tr><tr><td style="font-weight:bold;vertical-align:top;">httponly</td><td style="vertical-align:top;">:</td><td><div></div></td></tr><tr><td style="font-weight:bold;vertical-align:top;">max-age</td><td style="vertical-align:top;">:</td><td><div></div></td></tr><tr><td style="font-weight:bold;vertical-align:top;">path</td><td style="vertical-align:top;">:</td><td><div></div></td></tr><tr><td style="font-weight:bold;vertical-align:top;">secure</td><td style="vertical-align:top;">:</td><td><div></div></td></tr><tr><td style="font-weight:bold;vertical-align:top;">version</td><td style="vertical-align:top;">:</td><td><div></div></td></tr></table></div></td></tr><tr><td style="font-weight:bold;vertical-align:top;">session_id_ourhours</td><td style="vertical-align:top;">:</td><td><div>True<table><tr><td style="font-weight:bold;vertical-align:top;">comment</td><td style="vertical-align:top;">:</td><td><div></div></td></tr><tr><td style="font-weight:bold;vertical-align:top;">domain</td><td style="vertical-align:top;">:</td><td><div></div></td></tr><tr><td style="font-weight:bold;vertical-align:top;">expires</td><td style="vertical-align:top;">:</td><td><div></div></td></tr><tr><td style="font-weight:bold;vertical-align:top;">httponly</td><td style="vertical-align:top;">:</td><td><div></div></td></tr><tr><td style="font-weight:bold;vertical-align:top;">max-age</td><td style="vertical-align:top;">:</td><td><div></div></td></tr><tr><td style="font-weight:bold;vertical-align:top;">path</td><td style="vertical-align:top;">:</td><td><div></div></td></tr><tr><td style="font-weight:bold;vertical-align:top;">secure</td><td style="vertical-align:top;">:</td><td><div></div></td></tr><tr><td style="font-weight:bold;vertical-align:top;">version</td><td style="vertical-align:top;">:</td><td><div></div></td></tr></table></div></td></tr><tr><td style="font-weight:bold;vertical-align:top;">session_id_welcome</td><td style="vertical-align:top;">:</td><td><div>127.0.0.1-e397b247-3562-40b7-be3d-d3ab021a0a04<table><tr><td style="font-weight:bold;vertical-align:top;">comment</td><td style="vertical-align:top;">:</td><td><div></div></td></tr><tr><td style="font-weight:bold;vertical-align:top;">domain</td><td style="vertical-align:top;">:</td><td><div></div></td></tr><tr><td style="font-weight:bold;vertical-align:top;">expires</td><td style="vertical-align:top;">:</td><td><div></div></td></tr><tr><td style="font-weight:bold;vertical-align:top;">httponly</td><td style="vertical-align:top;">:</td><td><div></div></td></tr><tr><td style="font-weight:bold;vertical-align:top;">max-age</td><td style="vertical-align:top;">:</td><td><div></div></td></tr><tr><td style="font-weight:bold;vertical-align:top;">path</td><td style="vertical-align:top;">:</td><td><div></div></td></tr><tr><td style="font-weight:bold;vertical-align:top;">secure</td><td style="vertical-align:top;">:</td><td><div></div></td></tr><tr><td style="font-weight:bold;vertical-align:top;">version</td><td style="vertical-align:top;">:</td><td><div></div></td></tr></table></div></td></tr></table></div></td></tr><tr><td style="font-weight:bold;vertical-align:top;">env</td><td style="vertical-align:top;">:</td><td><div><table><tr><td style="font-weight:bold;vertical-align:top;">HTTP_ACCEPT</td><td style="vertical-align:top;">:</td><td><div>text/html,application/xhtml+xml,application/xml;q=0.9,image/webp,*/*;q=0.8</div></td></tr><tr><td style="font-weight:bold;vertical-align:top;">HTTP_ACCEPT_ENCODING</td><td style="vertical-align:top;">:</td><td><div>gzip, deflate, sdch, br</div></td></tr><tr><td style="font-weight:bold;vertical-align:top;">HTTP_ACCEPT_LANGUAGE</td><td style="vertical-align:top;">:</td><td><div>en-US,en;q=0.8</div></td></tr><tr><td style="font-weight:bold;vertical-align:top;">HTTP_CONNECTION</td><td style="vertical-align:top;">:</td><td><div>keep-alive</div></td></tr><tr><td style="font-weight:bold;vertical-align:top;">HTTP_COOKIE</td><td style="vertical-align:top;">:</td><td><div>session_id_layouttest=127.0.0.1-9dd550cb-7d25-4599-add6-bbf406414416; resolution=1349; session_id_hackathon=127.0.0.1-e9d19e57-2c82-4246-95e2-3afb87897355; session_id_hw=127.0.0.1-23223d0c-fdad-4421-b0fa-bfb22452a98b; session_id_welcome=127.0.0.1-e397b247-3562-40b7-be3d-d3ab021a0a04; session_data_ourhours=&quot;a2331e7de8af762fd791345c28d205cd:wRDIvkmFhb7W9Vw47kFk6DntU3f6Z9GIJI2HxeEqcUkeEOA9tTIz5MttchsRk87YvkWnHhg1JqaEIjwYzX992MpTqxwi8izge-Ovgv15xhZp2Dxenp7e0k4FwSFpmQeYmNhVAn3W1mbQhcJe9dW8dj3RKKBCgYk-RjBxI8O4jmWVTiIC0ieYqmVO1gC6ZzWd54XyfrIt-SKgvIE8Ib1mN20yGyi7SyAVlSfUSPXBL2fuvWkVVhhOShDaQIRc1SPpu7uv33KcyTgVz9LWwSFexWR0RBD5Qi2kHnl_5ngjzs-gdVSXyZtNz_Lu-VpjkFIqJeOQdcyTBwhcdPLNdWcDnUrSnXKBecnZS_kaTezvQ63Kpn6MOtR7L-F8O4gun5MtU4jwvtTvjf5qIRpEcSnDILbqT642a1C2jxZrDEPat47la-RdQceJ8-1LbucjmscIXcijbpQHoHTz-j94tgJ8JCaIQUkRk_U4j5IWaKGuk9XKmugK7K8pUihqiyDvMV18thLP9Uz8ZDBerOwuojorwaWEbw2hXQ50qAeGfivQvcCZH_Q5hZlKRCGVlkSaL7pYEu74QHwVfGuGQqOQ6uhFZmqEA7N1AyW3t1g4hUIX90bvY15WiGRCcAq01sg4iVXGJaaZc7shjhx8-N3piYbk5Nso-ISTEZXGGpqYfTishd9oA6AxYzKdu3_19WwYDD1jUFgkuxnFrfyGRjSfTu4w3R-ly3cRdRVziXcsEFwqlrNXntTyjY-wFBsTZsxoYprFxFyQc0ZzKHIPNCH5ELjqlcq7lPJU078HKimRjeEVMNojhC5bVdrN1HjDCqYxbdL99skVDcMJOqg2N1UEQ_BLv7NupwspZhTVgnoPdHKdW5_VnTPbOBcKMFgjSxS8rLwwcvUVZzyyKCzCwkrH-EtSLkyPMYBh8fhlnP0rOIjLl1v46jmQXcfWLhVWagoGDOvgoMsSzq7WzU6AHIIWEgE3NUwWTfaC-hSw1NwZrE82E_JnRgj-Vzw9J0wLiQbfKAa0hQaopCIcVPaNKfOva_UVdtxx6yivhfZsDx8wbpb4tuYV6fp_xM-U9ZTSQj04TjIZO7teKnas6a98-Pfc0HmVci-iM3zO_Ig7K_L62Ls8aKLrImHg01_7Mwl0J3yGoC5sOOzxkp6NU1qHJvNUMdV-vJujIbEvpZQWLa0OfR92iJF1HGcHjcfWLAEF78e7ZRX7EthI0k5VG4M-vwZpinAphVTsO7XtJDtvm87dKjZxFsACHn4THS7j8yvZpSHlDI89XdvhFnZ0uKCRhq1Qs04QljR70A4_JeXl-WiGQslzJtZSVRF1IBrktGDDQs2u79cdrG-sNENc_iY-DjuqGg_ZW-gT6R_JmozR292j1WJmW8KupdOG0VNH5EL1ws3-XZxxhvnVcLbbIyZBLodY7b6uTqBr_8SfHr-rmMXoPwHMyILHVoySfClZR1BgB_M7YzhlsAlZ8YOiQVJJc1_Nxsck6gUisDesRwwnUZvuwvIrwBXxcEqmZRhDyjXMbRkZmpyvAIxS4xJ-NiWgN5pVlFCiMZ1JBbPQ7FC-XIhKWQ_FyqPPCPnlTG7dmaii4y3L6KPu-aTPWOLy-llqUE-8HQaBAFWbvw8iiRi8YQXqtAsGpPVMaXl8onh73KQIKHtMq0eppAK6Cm2TYlBo3p6eCedlbCBxtaWofCZUtLsP7XtFHpPXPtobz02lFF1CMg7_c-nqglmnRdZK6EqjSAEV0K7b8JL26TzvOUAy_2a9ZibJt24=&quot;; session_id_admin=127.0.0.1-55e6bcde-8e06-49b5-93cc-f5247a897c59; session_id_ourhours=True</div></td></tr><tr><td style="font-weight:bold;vertical-align:top;">HTTP_HOST</td><td style="vertical-align:top;">:</td><td><div>127.0.0.1:8000</div></td></tr><tr><td style="font-weight:bold;vertical-align:top;">HTTP_REFERER</td><td style="vertical-align:top;">:</td><td><div>http://127.0.0.1:8000/ourhours/default/index</div></td></tr><tr><td style="font-weight:bold;vertical-align:top;">HTTP_UPGRADE_INSECURE_REQUESTS</td><td style="vertical-align:top;">:</td><td><div>1</div></td></tr><tr><td style="font-weight:bold;vertical-align:top;">HTTP_USER_AGENT</td><td style="vertical-align:top;">:</td><td><div>Mozilla/5.0 (Windows NT 10.0; Win64; x64) AppleWebKit/537.36 (KHTML, like Gecko) Chrome/55.0.2883.87 Safari/537.36</div></td></tr><tr><td style="font-weight:bold;vertical-align:top;">PATH_INFO</td><td style="vertical-align:top;">:</td><td><div>/ourhours/default/event_page/123</div></td></tr><tr><td style="font-weight:bold;vertical-align:top;">QUERY_STRING</td><td style="vertical-align:top;">:</td><td><div></div></td></tr><tr><td style="font-weight:bold;vertical-align:top;">REMOTE_ADDR</td><td style="vertical-align:top;">:</td><td><div>127.0.0.1</div></td></tr><tr><td style="font-weight:bold;vertical-align:top;">REMOTE_PORT</td><td style="vertical-align:top;">:</td><td><div>64390</div></td></tr><tr><td style="font-weight:bold;vertical-align:top;">REQUEST_METHOD</td><td style="vertical-align:top;">:</td><td><div>GET</div></td></tr><tr><td style="font-weight:bold;vertical-align:top;">SCRIPT_NAME</td><td style="vertical-align:top;">:</td><td><div></div></td></tr><tr><td style="font-weight:bold;vertical-align:top;">SERVER_NAME</td><td style="vertical-align:top;">:</td><td><div>DESKTOP-GDD7DCK</div></td></tr><tr><td style="font-weight:bold;vertical-align:top;">SERVER_PORT</td><td style="vertical-align:top;">:</td><td><div>8000</div></td></tr><tr><td style="font-weight:bold;vertical-align:top;">SERVER_PROTOCOL</td><td style="vertical-align:top;">:</td><td><div>HTTP/1.1</div></td></tr><tr><td style="font-weight:bold;vertical-align:top;">SERVER_SOFTWARE</td><td style="vertical-align:top;">:</td><td><div>Rocket 1.2.6</div></td></tr><tr><td style="font-weight:bold;vertical-align:top;">app_folders</td><td style="vertical-align:top;">:</td><td><div>set([&#x27;C:\\\\Users\\\\Wesly\\\\Desktop\\\\UCSC-Hack-2017\\\\applications\\\\welcome\\\\&#x27;, &#x27;C:\\\\Users\\\\Wesly\\\\Desktop\\\\UCSC-Hack-2017\\\\applications\\\\ourhours\\\\&#x27;, &#x27;C:\\\\Users\\\\Wesly\\\\Desktop\\\\UCSC-Hack-2017\\\\applications\\\\admin\\\\&#x27;])</div></td></tr><tr><td style="font-weight:bold;vertical-align:top;">applications_parent</td><td style="vertical-align:top;">:</td><td><div>C:\\Users\\Wesly\\Desktop\\UCSC-Hack-2017</div></td></tr><tr><td style="font-weight:bold;vertical-align:top;">cmd_args</td><td style="vertical-align:top;">:</td><td><div><table></table></div></td></tr><tr><td style="font-weight:bold;vertical-align:top;">cmd_options</td><td style="vertical-align:top;">:</td><td><div>&lt;Values at 0x3189eb8: {&#x27;verbose&#x27;: False, &#x27;ip&#x27;: &#x27;127.0.0.1&#x27;, &#x27;debuglevel&#x27;: 30, &#x27;with_scheduler&#x27;: False, &#x27;shutdown_timeout&#x27;: 5, &#x27;taskbar&#x27;: False, &#x27;with_coverage&#x27;: False, &#x27;pid_filename&#x27;: &#x27;httpserver.pid&#x27;, &#x27;maxthreads&#x27;: None, &#x27;softcron&#x27;: False, &#x27;server_name&#x27;: &#x27;DESKTOP-GDD7DCK&#x27;, &#x27;bpython&#x27;: False, &#x27;nogui&#x27;: False, &#x27;port&#x27;: 8000, &#x27;print_errors&#x27;: False, &#x27;extcron&#x27;: False, &#x27;runcron&#x27;: False, &#x27;run_system_tests&#x27;: False, &#x27;test&#x27;: None, &#x27;folder&#x27;: &#x27;C:\\\\Users\\\\Wesly\\\\Desktop\\\\UCSC-Hack-2017&#x27;, &#x27;config&#x27;: &#x27;&#x27;, &#x27;minthreads&#x27;: None, &#x27;shell&#x27;: None, &#x27;run&#x27;: &#x27;&#x27;, &#x27;log_filename&#x27;: &#x27;httpserver.log&#x27;, &#x27;profiler_dir&#x27;: None, &#x27;args&#x27;: [&#x27;&#x27;], &#x27;socket_timeout&#x27;: 5, &#x27;ssl_ca_certificate&#x27;: None, &#x27;scheduler&#x27;: None, &#x27;interfaces&#x27;: None, &#x27;ssl_private_key&#x27;: &#x27;&#x27;, &#x27;gae&#x27;: None, &#x27;password&#x27;: &#x27;******&#x27;, &#x27;request_queue_size&#x27;: 5, &#x27;ssl_certificate&#x27;: &#x27;&#x27;, &#x27;cronjob&#x27;: False, &#x27;numthreads&#x27;: None, &#x27;quiet&#x27;: False, &#x27;import_models&#x27;: False, &#x27;timeout&#x27;: 10, &#x27;plain&#x27;: False, &#x27;nobanner&#x27;: False}&gt;</div></td></tr><tr><td style="font-weight:bold;vertical-align:top;">db_sessions</td><td style="vertical-align:top;">:</td><td><div>set([])</div></td></tr><tr><td style="font-weight:bold;vertical-align:top;">debugging</td><td style="vertical-align:top;">:</td><td><div>True</div></td></tr><tr><td style="font-weight:bold;vertical-align:top;">gluon_parent</td><td style="vertical-align:top;">:</td><td><div>C:\\Users\\Wesly\\Desktop\\UCSC-Hack-2017</div></td></tr><tr><td style="font-weight:bold;vertical-align:top;">http_accept</td><td style="vertical-align:top;">:</td><td><div>text/html,application/xhtml+xml,application/xml;q=0.9,image/webp,*/*;q=0.8</div></td></tr><tr><td style="font-weight:bold;vertical-align:top;">http_accept_encoding</td><td style="vertical-align:top;">:</td><td><div>gzip, deflate, sdch, br</div></td></tr><tr><td style="font-weight:bold;vertical-align:top;">http_accept_language</td><td style="vertical-align:top;">:</td><td><div>en-US,en;q=0.8</div></td></tr><tr><td style="font-weight:bold;vertical-align:top;">http_connection</td><td style="vertical-align:top;">:</td><td><div>keep-alive</div></td></tr><tr><td style="font-weight:bold;vertical-align:top;">http_cookie</td><td style="vertical-align:top;">:</td><td><div>session_id_layouttest=127.0.0.1-9dd550cb-7d25-4599-add6-bbf406414416; resolution=1349; session_id_hackathon=127.0.0.1-e9d19e57-2c82-4246-95e2-3afb87897355; session_id_hw=127.0.0.1-23223d0c-fdad-4421-b0fa-bfb22452a98b; session_id_welcome=127.0.0.1-e397b247-3562-40b7-be3d-d3ab021a0a04; session_data_ourhours=&quot;a2331e7de8af762fd791345c28d205cd:wRDIvkmFhb7W9Vw47kFk6DntU3f6Z9GIJI2HxeEqcUkeEOA9tTIz5MttchsRk87YvkWnHhg1JqaEIjwYzX992MpTqxwi8izge-Ovgv15xhZp2Dxenp7e0k4FwSFpmQeYmNhVAn3W1mbQhcJe9dW8dj3RKKBCgYk-RjBxI8O4jmWVTiIC0ieYqmVO1gC6ZzWd54XyfrIt-SKgvIE8Ib1mN20yGyi7SyAVlSfUSPXBL2fuvWkVVhhOShDaQIRc1SPpu7uv33KcyTgVz9LWwSFexWR0RBD5Qi2kHnl_5ngjzs-gdVSXyZtNz_Lu-VpjkFIqJeOQdcyTBwhcdPLNdWcDnUrSnXKBecnZS_kaTezvQ63Kpn6MOtR7L-F8O4gun5MtU4jwvtTvjf5qIRpEcSnDILbqT642a1C2jxZrDEPat47la-RdQceJ8-1LbucjmscIXcijbpQHoHTz-j94tgJ8JCaIQUkRk_U4j5IWaKGuk9XKmugK7K8pUihqiyDvMV18thLP9Uz8ZDBerOwuojorwaWEbw2hXQ50qAeGfivQvcCZH_Q5hZlKRCGVlkSaL7pYEu74QHwVfGuGQqOQ6uhFZmqEA7N1AyW3t1g4hUIX90bvY15WiGRCcAq01sg4iVXGJaaZc7shjhx8-N3piYbk5Nso-ISTEZXGGpqYfTishd9oA6AxYzKdu3_19WwYDD1jUFgkuxnFrfyGRjSfTu4w3R-ly3cRdRVziXcsEFwqlrNXntTyjY-wFBsTZsxoYprFxFyQc0ZzKHIPNCH5ELjqlcq7lPJU078HKimRjeEVMNojhC5bVdrN1HjDCqYxbdL99skVDcMJOqg2N1UEQ_BLv7NupwspZhTVgnoPdHKdW5_VnTPbOBcKMFgjSxS8rLwwcvUVZzyyKCzCwkrH-EtSLkyPMYBh8fhlnP0rOIjLl1v46jmQXcfWLhVWagoGDOvgoMsSzq7WzU6AHIIWEgE3NUwWTfaC-hSw1NwZrE82E_JnRgj-Vzw9J0wLiQbfKAa0hQaopCIcVPaNKfOva_UVdtxx6yivhfZsDx8wbpb4tuYV6fp_xM-U9ZTSQj04TjIZO7teKnas6a98-Pfc0HmVci-iM3zO_Ig7K_L62Ls8aKLrImHg01_7Mwl0J3yGoC5sOOzxkp6NU1qHJvNUMdV-vJujIbEvpZQWLa0OfR92iJF1HGcHjcfWLAEF78e7ZRX7EthI0k5VG4M-vwZpinAphVTsO7XtJDtvm87dKjZxFsACHn4THS7j8yvZpSHlDI89XdvhFnZ0uKCRhq1Qs04QljR70A4_JeXl-WiGQslzJtZSVRF1IBrktGDDQs2u79cdrG-sNENc_iY-DjuqGg_ZW-gT6R_JmozR292j1WJmW8KupdOG0VNH5EL1ws3-XZxxhvnVcLbbIyZBLodY7b6uTqBr_8SfHr-rmMXoPwHMyILHVoySfClZR1BgB_M7YzhlsAlZ8YOiQVJJc1_Nxsck6gUisDesRwwnUZvuwvIrwBXxcEqmZRhDyjXMbRkZmpyvAIxS4xJ-NiWgN5pVlFCiMZ1JBbPQ7FC-XIhKWQ_FyqPPCPnlTG7dmaii4y3L6KPu-aTPWOLy-llqUE-8HQaBAFWbvw8iiRi8YQXqtAsGpPVMaXl8onh73KQIKHtMq0eppAK6Cm2TYlBo3p6eCedlbCBxtaWofCZUtLsP7XtFHpPXPtobz02lFF1CMg7_c-nqglmnRdZK6EqjSAEV0K7b8JL26TzvOUAy_2a9ZibJt24=&quot;; session_id_admin=127.0.0.1-55e6bcde-8e06-49b5-93cc-f5247a897c59; session_id_ourhours=True</div></td></tr><tr><td style="font-weight:bold;vertical-align:top;">http_host</td><td style="vertical-align:top;">:</td><td><div>127.0.0.1:8000</div></td></tr><tr><td style="font-weight:bold;vertical-align:top;">http_referer</td><td style="vertical-align:top;">:</td><td><div>http://127.0.0.1:8000/ourhours/default/index</div></td></tr><tr><td style="font-weight:bold;vertical-align:top;">http_upgrade_insecure_requests</td><td style="vertical-align:top;">:</td><td><div>1</div></td></tr><tr><td style="font-weight:bold;vertical-align:top;">http_user_agent</td><td style="vertical-align:top;">:</td><td><div>Mozilla/5.0 (Windows NT 10.0; Win64; x64) AppleWebKit/537.36 (KHTML, like Gecko) Chrome/55.0.2883.87 Safari/537.36</div></td></tr><tr><td style="font-weight:bold;vertical-align:top;">is_jython</td><td style="vertical-align:top;">:</td><td><div>False</div></td></tr><tr><td style="font-weight:bold;vertical-align:top;">is_pypy</td><td style="vertical-align:top;">:</td><td><div>False</div></td></tr><tr><td style="font-weight:bold;vertical-align:top;">is_source</td><td style="vertical-align:top;">:</td><td><div>False</div></td></tr><tr><td style="font-weight:bold;vertical-align:top;">local_hosts</td><td style="vertical-align:top;">:</td><td><div><table><tr><td><div>fe80::81f2:e7ae:7efe:f1e7%23</div></td></tr><tr><td><div>DESKTOP-GDD7DCK</div></td></tr><tr><td><div>::ffff:127.0.0.1</div></td></tr><tr><td><div>::1</div></td></tr><tr><td><div>fe80::5efe:192.168.1.135%21</div></td></tr><tr><td><div>192.168.1.135</div></td></tr><tr><td><div>fe80::e941:c1cf:aca3:e27d%22</div></td></tr><tr><td><div>127.0.0.1</div></td></tr><tr><td><div>192.168.56.1</div></td></tr></table></div></td></tr><tr><td style="font-weight:bold;vertical-align:top;">path_info</td><td style="vertical-align:top;">:</td><td><div>/ourhours/default/event_page/123</div></td></tr><tr><td style="font-weight:bold;vertical-align:top;">query_string</td><td style="vertical-align:top;">:</td><td><div></div></td></tr><tr><td style="font-weight:bold;vertical-align:top;">remote_addr</td><td style="vertical-align:top;">:</td><td><div>127.0.0.1</div></td></tr><tr><td style="font-weight:bold;vertical-align:top;">remote_port</td><td style="vertical-align:top;">:</td><td><div>64390</div></td></tr><tr><td style="font-weight:bold;vertical-align:top;">request_method</td><td style="vertical-align:top;">:</td><td><div>GET</div></td></tr><tr><td style="font-weight:bold;vertical-align:top;">request_uri</td><td style="vertical-align:top;">:</td><td><div>/ourhours/default/event_page/123</div></td></tr><tr><td style="font-weight:bold;vertical-align:top;">script_name</td><td style="vertical-align:top;">:</td><td><div></div></td></tr><tr><td style="font-weight:bold;vertical-align:top;">server_name</td><td style="vertical-align:top;">:</td><td><div>DESKTOP-GDD7DCK</div></td></tr><tr><td style="font-weight:bold;vertical-align:top;">server_port</td><td style="vertical-align:top;">:</td><td><div>8000</div></td></tr><tr><td style="font-weight:bold;vertical-align:top;">server_protocol</td><td style="vertical-align:top;">:</td><td><div>HTTP/1.1</div></td></tr><tr><td style="font-weight:bold;vertical-align:top;">server_software</td><td style="vertical-align:top;">:</td><td><div>Rocket 1.2.6</div></td></tr><tr><td style="font-weight:bold;vertical-align:top;">web2py_path</td><td style="vertical-align:top;">:</td><td><div>C:\\Users\\Wesly\\Desktop\\UCSC-Hack-2017</div></td></tr><tr><td style="font-weight:bold;vertical-align:top;">web2py_version</td><td style="vertical-align:top;">:</td><td><div>2.14.6-stable+timestamp.2016.05.10.00.21.47</div></td></tr><tr><td style="font-weight:bold;vertical-align:top;">wsgi.errors</td><td style="vertical-align:top;">:</td><td><div>&lt;open file &#x27;&lt;stderr&gt;&#x27;, mode &#x27;w&#x27; at 0x0215D0D0&gt;</div></td></tr><tr><td style="font-weight:bold;vertical-align:top;">wsgi.file_wrapper</td><td style="vertical-align:top;">:</td><td><div>&lt;class wsgiref.util.FileWrapper at 0x02C7A148&gt;</div></td></tr><tr><td style="font-weight:bold;vertical-align:top;">wsgi.input</td><td style="vertical-align:top;">:</td><td><div>&lt;socket._fileobject object at 0x085942F0&gt;</div></td></tr><tr><td style="font-weight:bold;vertical-align:top;">wsgi.multiprocess</td><td style="vertical-align:top;">:</td><td><div>False</div></td></tr><tr><td style="font-weight:bold;vertical-align:top;">wsgi.multithread</td><td style="vertical-align:top;">:</td><td><div>True</div></td></tr><tr><td style="font-weight:bold;vertical-align:top;">wsgi.run_once</td><td style="vertical-align:top;">:</td><td><div>False</div></td></tr><tr><td style="font-weight:bold;vertical-align:top;">wsgi.url_scheme</td><td style="vertical-align:top;">:</td><td><div>http</div></td></tr><tr><td style="font-weight:bold;vertical-align:top;">wsgi.version</td><td style="vertical-align:top;">:</td><td><div><table><tr><td><div>1</div></td></tr><tr><td><div>0</div></td></tr></table></div></td></tr><tr><td style="font-weight:bold;vertical-align:top;">wsgi_errors</td><td style="vertical-align:top;">:</td><td><div>&lt;open file &#x27;&lt;stderr&gt;&#x27;, mode &#x27;w&#x27; at 0x0215D0D0&gt;</div></td></tr><tr><td style="font-weight:bold;vertical-align:top;">wsgi_file_wrapper</td><td style="vertical-align:top;">:</td><td><div>&lt;class wsgiref.util.FileWrapper at 0x02C7A148&gt;</div></td></tr><tr><td style="font-weight:bold;vertical-align:top;">wsgi_input</td><td style="vertical-align:top;">:</td><td><div>&lt;socket._fileobject object at 0x085942F0&gt;</div></td></tr><tr><td style="font-weight:bold;vertical-align:top;">wsgi_multiprocess</td><td style="vertical-align:top;">:</td><td><div>False</div></td></tr><tr><td style="font-weight:bold;vertical-align:top;">wsgi_multithread</td><td style="vertical-align:top;">:</td><td><div>True</div></td></tr><tr><td style="font-weight:bold;vertical-align:top;">wsgi_run_once</td><td style="vertical-align:top;">:</td><td><div>False</div></td></tr><tr><td style="font-weight:bold;vertical-align:top;">wsgi_url_scheme</td><td style="vertical-align:top;">:</td><td><div>http</div></td></tr><tr><td style="font-weight:bold;vertical-align:top;">wsgi_version</td><td style="vertical-align:top;">:</td><td><div><table><tr><td><div>1</div></td></tr><tr><td><div>0</div></td></tr></table></div></td></tr></table></div></td></tr><tr><td style="font-weight:bold;vertical-align:top;">extension</td><td style="vertical-align:top;">:</td><td><div>html</div></td></tr><tr><td style="font-weight:bold;vertical-align:top;">folder</td><td style="vertical-align:top;">:</td><td><div>C:\\Users\\Wesly\\Desktop\\UCSC-Hack-2017\\applications\\ourhours\\</div></td></tr><tr><td style="font-weight:bold;vertical-align:top;">function</td><td style="vertical-align:top;">:</td><td><div>event_page</div></td></tr><tr><td style="font-weight:bold;vertical-align:top;">global_settings</td><td style="vertical-align:top;">:</td><td><div><table><tr><td style="font-weight:bold;vertical-align:top;">app_folders</td><td style="vertical-align:top;">:</td><td><div>set([&#x27;C:\\\\Users\\\\Wesly\\\\Desktop\\\\UCSC-Hack-2017\\\\applications\\\\welcome\\\\&#x27;, &#x27;C:\\\\Users\\\\Wesly\\\\Desktop\\\\UCSC-Hack-2017\\\\applications\\\\ourhours\\\\&#x27;, &#x27;C:\\\\Users\\\\Wesly\\\\Desktop\\\\UCSC-Hack-2017\\\\applications\\\\admin\\\\&#x27;])</div></td></tr><tr><td style="font-weight:bold;vertical-align:top;">applications_parent</td><td style="vertical-align:top;">:</td><td><div>C:\\Users\\Wesly\\Desktop\\UCSC-Hack-2017</div></td></tr><tr><td style="font-weight:bold;vertical-align:top;">cmd_args</td><td style="vertical-align:top;">:</td><td><div><table></table></div></td></tr><tr><td style="font-weight:bold;vertical-align:top;">cmd_options</td><td style="vertical-align:top;">:</td><td><div>&lt;Values at 0x3189eb8: {&#x27;verbose&#x27;: False, &#x27;ip&#x27;: &#x27;127.0.0.1&#x27;, &#x27;debuglevel&#x27;: 30, &#x27;with_scheduler&#x27;: False, &#x27;shutdown_timeout&#x27;: 5, &#x27;taskbar&#x27;: False, &#x27;with_coverage&#x27;: False, &#x27;pid_filename&#x27;: &#x27;httpserver.pid&#x27;, &#x27;maxthreads&#x27;: None, &#x27;softcron&#x27;: False, &#x27;server_name&#x27;: &#x27;DESKTOP-GDD7DCK&#x27;, &#x27;bpython&#x27;: False, &#x27;nogui&#x27;: False, &#x27;port&#x27;: 8000, &#x27;print_errors&#x27;: False, &#x27;extcron&#x27;: False, &#x27;runcron&#x27;: False, &#x27;run_system_tests&#x27;: False, &#x27;test&#x27;: None, &#x27;folder&#x27;: &#x27;C:\\\\Users\\\\Wesly\\\\Desktop\\\\UCSC-Hack-2017&#x27;, &#x27;config&#x27;: &#x27;&#x27;, &#x27;minthreads&#x27;: None, &#x27;shell&#x27;: None, &#x27;run&#x27;: &#x27;&#x27;, &#x27;log_filename&#x27;: &#x27;httpserver.log&#x27;, &#x27;profiler_dir&#x27;: None, &#x27;args&#x27;: [&#x27;&#x27;], &#x27;socket_timeout&#x27;: 5, &#x27;ssl_ca_certificate&#x27;: None, &#x27;scheduler&#x27;: None, &#x27;interfaces&#x27;: None, &#x27;ssl_private_key&#x27;: &#x27;&#x27;, &#x27;gae&#x27;: None, &#x27;password&#x27;: &#x27;******&#x27;, &#x27;request_queue_size&#x27;: 5, &#x27;ssl_certificate&#x27;: &#x27;&#x27;, &#x27;cronjob&#x27;: False, &#x27;numthreads&#x27;: None, &#x27;quiet&#x27;: False, &#x27;import_models&#x27;: False, &#x27;timeout&#x27;: 10, &#x27;plain&#x27;: False, &#x27;nobanner&#x27;: False}&gt;</div></td></tr><tr><td style="font-weight:bold;vertical-align:top;">db_sessions</td><td style="vertical-align:top;">:</td><td><div>set([])</div></td></tr><tr><td style="font-weight:bold;vertical-align:top;">debugging</td><td style="vertical-align:top;">:</td><td><div>True</div></td></tr><tr><td style="font-weight:bold;vertical-align:top;">gluon_parent</td><td style="vertical-align:top;">:</td><td><div>C:\\Users\\Wesly\\Desktop\\UCSC-Hack-2017</div></td></tr><tr><td style="font-weight:bold;vertical-align:top;">is_jython</td><td style="vertical-align:top;">:</td><td><div>False</div></td></tr><tr><td style="font-weight:bold;vertical-align:top;">is_pypy</td><td style="vertical-align:top;">:</td><td><div>False</div></td></tr><tr><td style="font-weight:bold;vertical-align:top;">is_source</td><td style="vertical-align:top;">:</td><td><div>False</div></td></tr><tr><td style="font-weight:bold;vertical-align:top;">local_hosts</td><td style="vertical-align:top;">:</td><td><div><table><tr><td><div>fe80::81f2:e7ae:7efe:f1e7%23</div></td></tr><tr><td><div>DESKTOP-GDD7DCK</div></td></tr><tr><td><div>::ffff:127.0.0.1</div></td></tr><tr><td><div>::1</div></td></tr><tr><td><div>fe80::5efe:192.168.1.135%21</div></td></tr><tr><td><div>192.168.1.135</div></td></tr><tr><td><div>fe80::e941:c1cf:aca3:e27d%22</div></td></tr><tr><td><div>127.0.0.1</div></td></tr><tr><td><div>192.168.56.1</div></td></tr></table></div></td></tr><tr><td style="font-weight:bold;vertical-align:top;">web2py_version</td><td style="vertical-align:top;">:</td><td><div>2.14.6-stable+timestamp.2016.05.10.00.21.47</div></td></tr></table></div></td></tr><tr><td style="font-weight:bold;vertical-align:top;">is_https</td><td style="vertical-align:top;">:</td><td><div>False</div></td></tr><tr><td style="font-weight:bold;vertical-align:top;">is_local</td><td style="vertical-align:top;">:</td><td><div>True</div></td></tr><tr><td style="font-weight:bold;vertical-align:top;">is_restful</td><td style="vertical-align:top;">:</td><td><div>False</div></td></tr><tr><td style="font-weight:bold;vertical-align:top;">is_scheduler</td><td style="vertical-align:top;">:</td><td><div>False</div></td></tr><tr><td style="font-weight:bold;vertical-align:top;">is_shell</td><td style="vertical-align:top;">:</td><td><div>False</div></td></tr><tr><td style="font-weight:bold;vertical-align:top;">now</td><td style="vertical-align:top;">:</td><td><div>datetime.datetime(2017, 1, 21, 3, 49, 39, 655000)</div></td></tr><tr><td style="font-weight:bold;vertical-align:top;">raw_args</td><td style="vertical-align:top;">:</td><td><div>123</div></td></tr><tr><td style="font-weight:bold;vertical-align:top;">raw_extension</td><td style="vertical-align:top;">:</td><td><div>None</div></td></tr><tr><td style="font-weight:bold;vertical-align:top;">url</td><td style="vertical-align:top;">:</td><td><div>/ourhours/default/event_page/123</div></td></tr><tr><td style="font-weight:bold;vertical-align:top;">utcnow</td><td style="vertical-align:top;">:</td><td><div>datetime.datetime(2017, 1, 21, 11, 49, 39, 655000)</div></td></tr><tr><td style="font-weight:bold;vertical-align:top;">wsgi</td><td style="vertical-align:top;">:</td><td><div>&lt;gluon.main.LazyWSGI object at 0x083E6B30&gt;</div></td></tr></table></div>'
tRp58
sS'frames'
p59
(lp60
(dp61
S'file'
p62
S'C:\\Users\\Wesly\\Desktop\\UCSC-Hack-2017\\gluon\\restricted.py'
p63
sS'dump'
p64
(dp65
S'environment'
p66
S"{'A': <class 'gluon.html.A'>, 'ANY_OF': <class 'gluon.validators.ANY_OF'>, 'ASSIGNJS': <function ASSIGNJS>, 'Auth': <class 'gluon.tools.Auth'>, 'B': <class 'gluon.html.B'>, 'BEAUTIFY': <class 'gluon.html.BEAUTIFY'>, 'BODY': <class 'gluon.html.BODY'>, 'BR': <class 'gluon.html.BR'>, 'BUTTON': <class 'gluon.html.BUTTON'>, 'CAT': <class 'gluon.html.CAT'>, ...}"
p67
sS'ccode'
p68
S'<code object <module> at 04893A40, file "C:\\User...cations\\ourhours\\controllers/default.py", line 1>'
p69
ssS'lnum'
p70
I227
sS'lines'
p71
(dp72
I224
S'            ccode = code'
p73
sI225
S'        else:'
p74
sI226
S'            ccode = compile2(code, layer)'
p75
sI227
S'        exec ccode in environment'
p76
sI228
S'    except HTTP:'
p77
sI229
S'        raise'
p78
sI230
S'    except RestrictedError:'
p79
sI231
S'        # do not encapsulate (obfuscate) the original RestrictedError'
p80
sI222
S'    try:'
p81
sI223
S'        if isinstance(code, types.CodeType):'
p82
ssS'call'
p83
S"(code='from gluon.tools import Mail\\nimport imaplib\\nimpo...s()\\n\\nresponse._vars=response._caller(event_page)\\n', environment={'A': <class 'gluon.html.A'>, 'ANY_OF': <class 'gluon.validators.ANY_OF'>, 'ASSIGNJS': <function ASSIGNJS>, 'Auth': <class 'gluon.tools.Auth'>, 'B': <class 'gluon.html.B'>, 'BEAUTIFY': <class 'gluon.html.BEAUTIFY'>, 'BODY': <class 'gluon.html.BODY'>, 'BR': <class 'gluon.html.BR'>, 'BUTTON': <class 'gluon.html.BUTTON'>, 'CAT': <class 'gluon.html.CAT'>, ...}, layer=r'C:\\Users\\Wesly\\Desktop\\UCSC-Hack-2017\\applications\\ourhours\\controllers/default.py')"
p84
sS'func'
p85
S'restricted'
p86
sa(dp87
g62
S'C:\\Users\\Wesly\\Desktop\\UCSC-Hack-2017\\applications\\ourhours\\controllers\\default.py'
p88
sg64
(dp89
sg70
I30
sg71
(dp90
I19
S'    if form.accepted:'
p91
sI20
S"        response.flash = 'Success'"
p92
sI21
S"        redirect(URL('index'))"
p93
sI22
S'    return locals()'
p94
sI23
S''
sI24
S'def event_page():'
p95
sI25
S'    g = db.groups(request.args(0,cast=int))'
p96
sI26
S'    db.event.event_code.default = g.id'
p97
sI27
S'    event = db(db.event.event_code == g.id).select(db.event.ALL)'
p98
sI28
S'    return locals()'
p99
ssg83
S'()'
p100
sg85
S'<module>'
p101
sa(dp102
g62
S'C:\\Users\\Wesly\\Desktop\\UCSC-Hack-2017\\gluon\\globals.py'
p103
sg64
(dp104
S'self'
p105
S'undefined'
p106
sS'f'
S'<function event_page>'
p107
ssg70
I417
sg71
(dp108
I416
S'        self._vars = None'
p109
sI417
S'        self._caller = lambda f: f()'
p110
sI418
S'        self._view_environment = None'
p111
sI419
S'        self._custom_commit = None'
p112
sI420
S'        self._custom_rollback = None'
p113
sI421
S"        self.generic_patterns = ['*']"
p114
sI412
S"        self.flash = ''            # used by the default view layout"
p115
sI413
S'        self.meta = Storage()      # used by web2py_ajax.html'
p116
sI414
S'        self.menu = []             # used by the default view layout'
p117
sI415
S'        self.files = []            # used by web2py_ajax.html'
p118
ssg83
S'(f=<function event_page>)'
p119
sg85
S'<lambda>'
p120
sa(dp121
g62
S'C:\\Users\\Wesly\\Desktop\\UCSC-Hack-2017\\applications\\ourhours\\controllers\\default.py'
p122
sg64
(dp123
S'db.event'
p124
S'<Table event (id, event_name, event_description,...nt_sdate, event_edate, event_stime, event_etime)>'
p125
sS'g'
S'None'
p126
sS'g.id'
p127
g106
sS'db.event.event_code'
p128
S'<pydal.objects.Field object>'
p129
sS'db.event.event_code.default'
p130
S'None'
p131
sS'global db'
p132
S'<DAL uri="sqlite://storage.sqlite">'
p133
ssg70
I26
sg71
(dp134
I19
S'    if form.accepted:'
p135
sI20
S"        response.flash = 'Success'"
p136
sI21
S"        redirect(URL('index'))"
p137
sI22
S'    return locals()'
p138
sI23
S''
sI24
S'def event_page():'
p139
sI25
S'    g = db.groups(request.args(0,cast=int))'
p140
sI26
S'    db.event.event_code.default = g.id'
p141
sI27
S'    event = db(db.event.event_code == g.id).select(db.event.ALL)'
p142
sI28
S'    return locals()'
p143
ssg83
S'()'
p144
sg85
S'event_page'
p145
sasS'pyver'
p146
S'Python 2.7.9: C:\\Users\\Wesly\\Desktop\\UCSC-Hack-2017\\web2py.exe (prefix: )'
p147
sS'session'
p148
g57
(S's6\x01\x00\x00<div><table><tr><td style="font-weight:bold;vertical-align:top;">last_orderby</td><td style="vertical-align:top;">:</td><td><div>None</div></td></tr><tr><td style="font-weight:bold;vertical-align:top;">last_query</td><td style="vertical-align:top;">:</td><td><div>db.event.id&gt;0</div></td></tr></table></div>'
tRp149
sS'etype'
p150
S"<type 'exceptions.AttributeError'>"
p151
sS'date'
p152
S'Sat Jan 21 03:49:39 2017'
p153
sS'response'
p154
g57
(S's\xc1\x16\x00\x00<div><table><tr><td style="font-weight:bold;vertical-align:top;">body</td><td style="vertical-align:top;">:</td><td><div>&lt;cStringIO.StringO object at 0x04974A80&gt;</div></td></tr><tr><td style="font-weight:bold;vertical-align:top;">cookies</td><td style="vertical-align:top;">:</td><td><div><table><tr><td style="font-weight:bold;vertical-align:top;">session_id_ourhours</td><td style="vertical-align:top;">:</td><td><div>127.0.0.1-92532e8c-f5cf-4025-ab84-629af8ce473e<table><tr><td style="font-weight:bold;vertical-align:top;">comment</td><td style="vertical-align:top;">:</td><td><div></div></td></tr><tr><td style="font-weight:bold;vertical-align:top;">domain</td><td style="vertical-align:top;">:</td><td><div></div></td></tr><tr><td style="font-weight:bold;vertical-align:top;">expires</td><td style="vertical-align:top;">:</td><td><div></div></td></tr><tr><td style="font-weight:bold;vertical-align:top;">httponly</td><td style="vertical-align:top;">:</td><td><div></div></td></tr><tr><td style="font-weight:bold;vertical-align:top;">max-age</td><td style="vertical-align:top;">:</td><td><div></div></td></tr><tr><td style="font-weight:bold;vertical-align:top;">path</td><td style="vertical-align:top;">:</td><td><div>/</div></td></tr><tr><td style="font-weight:bold;vertical-align:top;">secure</td><td style="vertical-align:top;">:</td><td><div></div></td></tr><tr><td style="font-weight:bold;vertical-align:top;">version</td><td style="vertical-align:top;">:</td><td><div></div></td></tr></table></div></td></tr></table></div></td></tr><tr><td style="font-weight:bold;vertical-align:top;">delimiters</td><td style="vertical-align:top;">:</td><td><div><table><tr><td><div>{{</div></td></tr><tr><td><div>}}</div></td></tr></table></div></td></tr><tr><td style="font-weight:bold;vertical-align:top;">files</td><td style="vertical-align:top;">:</td><td><div><table></table></div></td></tr><tr><td style="font-weight:bold;vertical-align:top;">flash</td><td style="vertical-align:top;">:</td><td><div></div></td></tr><tr><td style="font-weight:bold;vertical-align:top;">form_label_separator</td><td style="vertical-align:top;">:</td><td><div>: </div></td></tr><tr><td style="font-weight:bold;vertical-align:top;">formstyle</td><td style="vertical-align:top;">:</td><td><div>table3cols</div></td></tr><tr><td style="font-weight:bold;vertical-align:top;">generic_patterns</td><td style="vertical-align:top;">:</td><td><div><table><tr><td><div>*</div></td></tr></table></div></td></tr><tr><td style="font-weight:bold;vertical-align:top;">headers</td><td style="vertical-align:top;">:</td><td><div><table><tr><td style="font-weight:bold;vertical-align:top;">X-Powered-By</td><td style="vertical-align:top;">:</td><td><div>web2py</div></td></tr></table></div></td></tr><tr><td style="font-weight:bold;vertical-align:top;">menu</td><td style="vertical-align:top;">:</td><td><div><table><tr><td><div><table><tr><td><div>Home</div></td></tr><tr><td><div>False</div></td></tr><tr><td><div>/ourhours/default/index</div></td></tr></table></div></td></tr></table></div></td></tr><tr><td style="font-weight:bold;vertical-align:top;">meta</td><td style="vertical-align:top;">:</td><td><div><table></table></div></td></tr><tr><td style="font-weight:bold;vertical-align:top;">models_to_run</td><td style="vertical-align:top;">:</td><td><div><table><tr><td><div>^\\w+\\.py$</div></td></tr><tr><td><div>^default/\\w+\\.py$</div></td></tr><tr><td><div>^default/event_page/\\w+\\.py$</div></td></tr></table></div></td></tr><tr><td style="font-weight:bold;vertical-align:top;">postprocessing</td><td style="vertical-align:top;">:</td><td><div><table></table></div></td></tr><tr><td style="font-weight:bold;vertical-align:top;">session_client</td><td style="vertical-align:top;">:</td><td><div>127.0.0.1</div></td></tr><tr><td style="font-weight:bold;vertical-align:top;">session_cookie_compression_level</td><td style="vertical-align:top;">:</td><td><div>None</div></td></tr><tr><td style="font-weight:bold;vertical-align:top;">session_cookie_expires</td><td style="vertical-align:top;">:</td><td><div>None</div></td></tr><tr><td style="font-weight:bold;vertical-align:top;">session_data_name</td><td style="vertical-align:top;">:</td><td><div>session_data_ourhours</div></td></tr><tr><td style="font-weight:bold;vertical-align:top;">session_file</td><td style="vertical-align:top;">:</td><td><div>None</div></td></tr><tr><td style="font-weight:bold;vertical-align:top;">session_filename</td><td style="vertical-align:top;">:</td><td><div>C:\\Users\\Wesly\\Desktop\\UCSC-Hack-2017\\applications\\ourhours\\sessions\\127.0.0.1-92532e8c-f5cf-4025-ab84-629af8ce473e</div></td></tr><tr><td style="font-weight:bold;vertical-align:top;">session_hash</td><td style="vertical-align:top;">:</td><td><div>5cb57ee53da556565b27fc24074574e4</div></td></tr><tr><td style="font-weight:bold;vertical-align:top;">session_id</td><td style="vertical-align:top;">:</td><td><div>True</div></td></tr><tr><td style="font-weight:bold;vertical-align:top;">session_id_name</td><td style="vertical-align:top;">:</td><td><div>session_id_ourhours</div></td></tr><tr><td style="font-weight:bold;vertical-align:top;">session_masterapp</td><td style="vertical-align:top;">:</td><td><div>ourhours</div></td></tr><tr><td style="font-weight:bold;vertical-align:top;">session_new</td><td style="vertical-align:top;">:</td><td><div>True</div></td></tr><tr><td style="font-weight:bold;vertical-align:top;">session_storage_type</td><td style="vertical-align:top;">:</td><td><div>cookie</div></td></tr><tr><td style="font-weight:bold;vertical-align:top;">status</td><td style="vertical-align:top;">:</td><td><div>200</div></td></tr><tr><td style="font-weight:bold;vertical-align:top;">view</td><td style="vertical-align:top;">:</td><td><div>default/event_page.html</div></td></tr></table></div>'
tRp155
sS'locals'
p156
(dp157
S'g'
S'None'
p158
sssS'traceback'
p159
S'Traceback (most recent call last):\n  File "C:\\Users\\Wesly\\Desktop\\UCSC-Hack-2017\\gluon\\restricted.py", line 227, in restricted\n    exec ccode in environment\n  File "C:\\Users\\Wesly\\Desktop\\UCSC-Hack-2017\\applications\\ourhours\\controllers/default.py", line 30, in <module>\n  File "C:\\Users\\Wesly\\Desktop\\UCSC-Hack-2017\\gluon\\globals.py", line 417, in <lambda>\n    self._caller = lambda f: f()\n  File "C:\\Users\\Wesly\\Desktop\\UCSC-Hack-2017\\applications\\ourhours\\controllers/default.py", line 26, in event_page\n    db.event.event_code.default = g.id\nAttributeError: \'NoneType\' object has no attribute \'id\'\n'
p160
s.