(dp1
S'event_allday'
p2
(dp3
S'length'
p4
I512
sS'unique'
p5
I00
sS'sortable'
p6
I2
sS'sql'
p7
S'CHAR(1)'
p8
sS'notnull'
p9
I00
sS'type'
p10
S'boolean'
p11
ssS'event_name'
p12
(dp13
g4
I512
sg5
I00
sg6
I3
sg7
S'CHAR(512)'
p14
sg9
I00
sg10
S'string'
p15
ssS'event_start_time'
p16
(dp17
S'sortable'
p18
L8L
sS'sql'
p19
S'TIME'
p20
sS'length'
p21
L512L
sS'notnull'
p22
L0L
sS'unique'
p23
L0L
sS'type'
p24
S'time'
p25
ssS'event_end_time'
p26
(dp27
g18
L9L
sg19
S'TIME'
p28
sg21
L512L
sg22
L0L
sg23
L0L
sg24
g25
ssS'event_etime'
p29
(dp30
S'sortable'
p31
L9L
sS'sql'
p32
S'TIME'
p33
sS'length'
p34
L512L
sS'notnull'
p35
L0L
sS'unique'
p36
L0L
sS'type'
p37
S'time'
p38
ssS'id'
p39
(dp40
g4
I512
sg5
I00
sg6
I1
sg7
S'INTEGER PRIMARY KEY AUTOINCREMENT'
p41
sg9
I00
sg10
S'id'
p42
ssS'group_code'
p43
(dp44
S'sortable'
p45
L4L
sS'sql'
p46
S'CHAR(512) UNIQUE'
p47
sS'length'
p48
L512L
sS'notnull'
p49
L0L
sS'unique'
p50
L1L
sS'type'
p51
S'string'
p52
ssS'event_description'
p53
(dp54
g4
I32768
sg5
I00
sg6
I5
sg7
S'TEXT'
p55
sg9
I00
sg10
S'text'
p56
ssS'end'
p57
(dp58
g4
I512
sg5
I00
sg6
I8
sg7
S'TIMESTAMP'
p59
sg9
I00
sg10
S'datetime'
p60
ssS'event_end_date'
p61
(dp62
g18
L7L
sg19
S'TIMESTAMP'
p63
sg21
L512L
sg22
L0L
sg23
L0L
sg24
S'datetime'
p64
ssS'event_id'
p65
(dp66
g4
I512
sg5
I00
sg6
I4
sg7
S'INTEGER'
p67
sg9
I00
sg10
S'integer'
p68
ssS'event_sdate'
p69
(dp70
g31
L6L
sg32
S'TIMESTAMP'
p71
sg34
L512L
sg35
L0L
sg36
L0L
sg37
S'datetime'
p72
ssS'event_stime'
p73
(dp74
g31
L8L
sg32
S'TIME'
p75
sg34
L512L
sg35
L0L
sg36
L0L
sg37
g38
ssS'start'
p76
(dp77
g4
I512
sg5
I00
sg6
I7
sg7
S'TIMESTAMP'
p78
sg9
I00
sg10
g60
ssS'event_code'
p79
(dp80
g4
I512
sg5
I00
sg6
I6
sg7
S'CHAR(512)'
p81
sg9
I00
sg10
g15
ssS'event_edate'
p82
(dp83
g31
L7L
sg32
S'TIMESTAMP'
p84
sg34
L512L
sg35
L0L
sg36
L0L
sg37
g72
ssS'event_start_date'
p85
(dp86
g18
L6L
sg19
S'TIMESTAMP'
p87
sg21
L512L
sg22
L0L
sg23
L0L
sg24
g64
ss.