(dp1
S'group_code'
p2
(dp3
S'sortable'
p4
I4
sS'sql'
p5
S'CHAR(512) UNIQUE'
p6
sS'length'
p7
I512
sS'notnull'
p8
I00
sS'unique'
p9
I01
sS'type'
p10
S'string'
p11
ssS'event_description'
p12
(dp13
S'length'
p14
I32768
sS'unique'
p15
I00
sS'sortable'
p16
I3
sS'sql'
p17
S'TEXT'
p18
sS'notnull'
p19
I00
sS'type'
p20
S'text'
p21
ssS'event_name'
p22
(dp23
g14
I512
sg15
I00
sg16
I2
sg17
S'CHAR(512)'
p24
sg19
I00
sg20
S'string'
p25
ssS'event_sdate'
p26
(dp27
g14
I512
sg15
I00
sg16
I5
sg17
S'TIMESTAMP'
p28
sg19
I00
sg20
S'datetime'
p29
ssS'event_stime'
p30
(dp31
g14
I512
sg15
I00
sg16
I7
sg17
S'TIME'
p32
sg19
I00
sg20
S'time'
p33
ssS'event_code'
p34
(dp35
g14
I512
sg15
I00
sg16
I4
sg17
S'INTEGER'
p36
sg19
I00
sg20
S'integer'
p37
ssS'event_edate'
p38
(dp39
g14
I512
sg15
I00
sg16
I6
sg17
S'TIMESTAMP'
p40
sg19
I00
sg20
g29
ssS'event_etime'
p41
(dp42
g14
I512
sg15
I00
sg16
I8
sg17
S'TIME'
p43
sg19
I00
sg20
g33
ssS'id'
p44
(dp45
g14
I512
sg15
I00
sg16
I1
sg17
S'INTEGER PRIMARY KEY AUTOINCREMENT'
p46
sg19
I00
sg20
S'id'
p47
ss.