(dp1
S'event_code'
p2
(dp3
S'length'
p4
I512
sS'unique'
p5
I00
sS'sortable'
p6
I6
sS'sql'
p7
S'CHAR(512)'
p8
sS'notnull'
p9
I00
sS'type'
p10
S'string'
p11
ssS'event_name'
p12
(dp13
g4
I512
sg5
I00
sg6
I3
sg7
S'CHAR(512)'
p14
sg9
I00
sg10
g11
ssS'event_start_time'
p15
(dp16
S'sortable'
p17
L8L
sS'sql'
p18
S'TIME'
p19
sS'length'
p20
L512L
sS'notnull'
p21
L0L
sS'unique'
p22
L0L
sS'type'
p23
S'time'
p24
ssS'event_end_time'
p25
(dp26
g17
L9L
sg18
S'TIME'
p27
sg20
L512L
sg21
L0L
sg22
L0L
sg23
g24
ssS'event_etime'
p28
(dp29
S'sortable'
p30
L9L
sS'sql'
p31
S'TIME'
p32
sS'length'
p33
L512L
sS'notnull'
p34
L0L
sS'unique'
p35
L0L
sS'type'
p36
S'time'
p37
ssS'id'
p38
(dp39
g4
I512
sg5
I00
sg6
I1
sg7
S'INTEGER PRIMARY KEY AUTOINCREMENT'
p40
sg9
I00
sg10
S'id'
p41
ssS'group_code'
p42
(dp43
S'sortable'
p44
L4L
sS'sql'
p45
S'CHAR(512) UNIQUE'
p46
sS'length'
p47
L512L
sS'notnull'
p48
L0L
sS'unique'
p49
L1L
sS'type'
p50
S'string'
p51
ssS'event_description'
p52
(dp53
g4
I32768
sg5
I00
sg6
I5
sg7
S'TEXT'
p54
sg9
I00
sg10
S'text'
p55
ssS'end'
p56
(dp57
g4
I512
sg5
I00
sg6
I8
sg7
S'TIMESTAMP'
p58
sg9
I00
sg10
S'datetime'
p59
ssS'event_end_date'
p60
(dp61
g17
L7L
sg18
S'TIMESTAMP'
p62
sg20
L512L
sg21
L0L
sg22
L0L
sg23
S'datetime'
p63
ssS'event_id'
p64
(dp65
g4
I512
sg5
I00
sg6
I4
sg7
S'INTEGER'
p66
sg9
I00
sg10
S'integer'
p67
ssS'event_sdate'
p68
(dp69
g30
L6L
sg31
S'TIMESTAMP'
p70
sg33
L512L
sg34
L0L
sg35
L0L
sg36
S'datetime'
p71
ssS'event_stime'
p72
(dp73
g30
L8L
sg31
S'TIME'
p74
sg33
L512L
sg34
L0L
sg35
L0L
sg36
g37
ssS'start'
p75
(dp76
g4
I512
sg5
I00
sg6
I7
sg7
S'TIMESTAMP'
p77
sg9
I00
sg10
g59
ssS'event_allday'
p78
(dp79
g4
I512
sg5
I00
sg6
I2
sg7
S'CHAR(1)'
p80
sg9
I00
sg10
S'boolean'
p81
ssS'event_edate'
p82
(dp83
g30
L7L
sg31
S'TIMESTAMP'
p84
sg33
L512L
sg34
L0L
sg35
L0L
sg36
g71
ssS'event_start_date'
p85
(dp86
g17
L6L
sg18
S'TIMESTAMP'
p87
sg20
L512L
sg21
L0L
sg22
L0L
sg23
g63
ss.