(dp1
S'event_name'
p2
(dp3
S'length'
p4
I512
sS'unique'
p5
I00
sS'sortable'
p6
I2
sS'sql'
p7
S'CHAR(512)'
p8
sS'notnull'
p9
I00
sS'type'
p10
S'string'
p11
ssS'event_start_time'
p12
(dp13
S'sortable'
p14
I8
sS'sql'
p15
S'TIME'
p16
sS'length'
p17
I512
sS'notnull'
p18
I00
sS'unique'
p19
I00
sS'type'
p20
S'time'
p21
ssS'event_end_time'
p22
(dp23
g14
I9
sg15
S'TIME'
p24
sg17
I512
sg18
I00
sg19
I00
sg20
g21
ssS'event_etime'
p25
(dp26
S'sortable'
p27
I9
sS'sql'
p28
S'TIME'
p29
sS'length'
p30
I512
sS'notnull'
p31
I00
sS'unique'
p32
I00
sS'type'
p33
S'time'
p34
ssS'id'
p35
(dp36
g4
I512
sg5
I00
sg6
I1
sg7
S'INTEGER PRIMARY KEY AUTOINCREMENT'
p37
sg9
I00
sg10
S'id'
p38
ssS'group_code'
p39
(dp40
S'sortable'
p41
I4
sS'sql'
p42
S'CHAR(512) UNIQUE'
p43
sS'length'
p44
I512
sS'notnull'
p45
I00
sS'unique'
p46
I01
sS'type'
p47
S'string'
p48
ssS'event_description'
p49
(dp50
g4
I32768
sg5
I00
sg6
I4
sg7
S'TEXT'
p51
sg9
I00
sg10
S'text'
p52
ssS'end'
p53
(dp54
g4
I512
sg5
I00
sg6
I7
sg7
S'TIMESTAMP'
p55
sg9
I00
sg10
S'datetime'
p56
ssS'event_end_date'
p57
(dp58
g14
I7
sg15
S'TIMESTAMP'
p59
sg17
I512
sg18
I00
sg19
I00
sg20
S'datetime'
p60
ssS'event_id'
p61
(dp62
g4
I512
sg5
I00
sg6
I3
sg7
S'INTEGER'
p63
sg9
I00
sg10
S'integer'
p64
ssS'event_sdate'
p65
(dp66
g27
I6
sg28
S'TIMESTAMP'
p67
sg30
I512
sg31
I00
sg32
I00
sg33
S'datetime'
p68
ssS'event_stime'
p69
(dp70
g27
I8
sg28
S'TIME'
p71
sg30
I512
sg31
I00
sg32
I00
sg33
g34
ssS'start'
p72
(dp73
g4
I512
sg5
I00
sg6
I6
sg7
S'TIMESTAMP'
p74
sg9
I00
sg10
g56
ssS'event_code'
p75
(dp76
g4
I512
sg5
I00
sg6
I5
sg7
S'CHAR(512)'
p77
sg9
I00
sg10
g11
ssS'event_edate'
p78
(dp79
g27
I7
sg28
S'TIMESTAMP'
p80
sg30
I512
sg31
I00
sg32
I00
sg33
g68
ssS'event_start_date'
p81
(dp82
g14
I6
sg15
S'TIMESTAMP'
p83
sg17
I512
sg18
I00
sg19
I00
sg20
g60
ss.