(dp1
S'group_code'
p2
(dp3
S'length'
p4
I512
sS'unique'
p5
I00
sS'sortable'
p6
I5
sS'sql'
p7
S'CHAR(512)'
p8
sS'notnull'
p9
I00
sS'type'
p10
S'string'
p11
ssS'email'
p12
(dp13
g4
I512
sg5
I00
sg6
I2
sg7
S'CHAR(512)'
p14
sg9
I00
sg10
g11
ssS'group_photo_optional'
p15
(dp16
S'sortable'
p17
L3L
sS'sql'
p18
S'CHAR(512)'
p19
sS'length'
p20
L512L
sS'notnull'
p21
L0L
sS'unique'
p22
L0L
sS'type'
p23
S'upload'
p24
ssS'id'
p25
(dp26
g4
I512
sg5
I00
sg6
I1
sg7
S'INTEGER PRIMARY KEY AUTOINCREMENT'
p27
sg9
I00
sg10
S'id'
p28
ssS'group_description'
p29
(dp30
g4
I32768
sg5
I00
sg6
I6
sg7
S'TEXT'
p31
sg9
I00
sg10
S'text'
p32
ssS'optional_group_photo'
p33
(dp34
g4
I512
sg5
I00
sg6
I4
sg7
S'CHAR(512)'
p35
sg9
I00
sg10
S'upload'
p36
ssS'group_name'
p37
(dp38
g4
I512
sg5
I00
sg6
I3
sg7
S'CHAR(512)'
p39
sg9
I00
sg10
g11
ss.